
jpeg:     file format elf32-zip


Disassembly of section .rocode:

02000000 <_boot_address>:
 2000000:	6a 00 00 c0 	LDI        0x03000000,SP  // 3000000 <_top_of_stack>
 2000004:	6a 40 00 00 
 2000008:	7b 47 c0 0f 	MOV        $60+PC,uPC
 200000c:	03 43 c0 02 	LJSR       @0x02000058    // 2000058 <_bootloader>
 2000010:	7c 87 c0 00 
 2000014:	02 00 00 58 

02000018 <_after_bootloader>:
 2000018:	6a 00 00 c0 	LDI        0x03000000,SP  // 3000000 <_top_of_stack>
 200001c:	6a 40 00 00 
 2000020:	70 c0 40 00 	OR         $16384,CC
 2000024:	0e 00 00 00 	CLR        R1
 2000028:	13 43 c0 09 	MOV        0x02000050,R2  // 2000050 <_argv>
 200002c:	1a 03 20 40 	LDI        0x0204fe64,R3  // 204fe64 <__env>
 2000030:	1a 40 fe 64 
 2000034:	87 fa fc f8 	JSR        0x02000178     // 2000178 <main>
 2000038:	02 00 01 78 

0200003c <_graceful_kernel_exit>:
 200003c:	87 fa fc f8 	JSR        0x0200ed24     // 200ed24 <exit>
 2000040:	02 00 ed 24 

02000044 <_hw_shutdown>:
 2000044:	7f c0 03 01 	NEXIT      R1

02000048 <_kernel_is_dead>:
 2000048:	70 c0 00 10 	HALT
 200004c:	78 83 ff f8 	BRA        @0x02000048    // 2000048 <_kernel_is_dead>

02000050 <_argv>:
	...

02000058 <_bootloader>:
 2000058:	0a 00 00 00 	LDI        0x00000004,R1  // 4 <_rom+0x4>
 200005c:	0a 40 00 04 
 2000060:	0c 00 00 04 	CMP        $4,R1
 2000064:	78 88 00 d4 	BZ         @0x0200013c    // 200013c <_bootloader+0xe4>
 2000068:	e8 08 ad 00 	SUB        $8,SP         | SW         R5,(SP)
 200006c:	34 c7 40 04 	SW         R6,$4(SP)
 2000070:	22 00 00 40 	LDI        0x02000178,R4  // 2000178 <main>
 2000074:	22 40 01 78 
 2000078:	12 00 00 40 	LDI        0x02000178,R2  // 2000178 <main>
 200007c:	12 40 01 78 
 2000080:	24 04 80 00 	CMP        R2,R4
 2000084:	78 88 00 ac 	BZ         @0x02000134    // 2000134 <_bootloader+0xdc>
 2000088:	1a 00 02 80 	LDI        0x01400000,R3  // 1400000 <_bkram>
 200008c:	1a 40 00 00 
 2000090:	1c 05 00 00 	CMP        R4,R3
 2000094:	78 b8 00 30 	BNC        @0x020000c8    // 20000c8 <_bootloader+0x70>
 2000098:	8f 90 a7 a7 	MOV        R2,R1         | MOV        $-1+R4,R4
 200009c:	a0 98 af a0 	SUB        R3,R4         | MOV        R4,R5
 20000a0:	28 43 ff fc 	AND        $-4,R5
 20000a4:	33 40 80 04 	MOV        $4+R2,R6
 20000a8:	28 85 80 00 	ADD        R6,R5
 20000ac:	9a 04 b4 88 	ADD        $4,R3         | LW         (R1),R6
 20000b0:	b5 9c 8a 04 	SW         R6,$-4(R3)    | ADD        $4,R1
 20000b4:	0c 05 40 00 	CMP        R5,R1
 20000b8:	78 ab ff f0 	BNZ        @0x020000ac    // 20000ac <_bootloader+0x54>
 20000bc:	20 43 ff fc 	AND        $-4,R4
 20000c0:	23 41 00 04 	MOV        $4+R4,R4
 20000c4:	10 85 00 00 	ADD        R4,R2
 20000c8:	22 03 00 40 	LDI        0x0200fde8,R4  // 200fde8 <_ram_image_end>
 20000cc:	22 40 fd e8 
 20000d0:	0a 00 00 40 	LDI        0x02000000,R1  // 2000000 <_boot_address>
 20000d4:	0a 40 00 00 
 20000d8:	9f a0 98 88 	MOV        R4,R3         | SUB        R1,R3
 20000dc:	2b 40 c0 00 	MOV        R3,R5
 20000e0:	29 c0 00 02 	ASR        $2,R5
 20000e4:	1c 00 00 01 	CMP        $1,R3
 20000e8:	78 90 00 14 	BLT        @0x02000100    // 2000100 <_bootloader+0xa8>
 20000ec:	1e 00 00 00 	CLR        R3
 20000f0:	92 04 8a 04 	ADD        $4,R2         | ADD        $4,R1
 20000f4:	b4 94 b5 8c 	LW         -4(R2),R6     | SW         R6,$-4(R1)
 20000f8:	9a 01 9b a8 	ADD        $1,R3         | CMP        R5,R3
 20000fc:	78 93 ff f0 	BLT        @0x020000f0    // 20000f0 <_bootloader+0x98>
 2000100:	12 03 20 40 	LDI        0x0204fe6c,R2  // 204fe6c <_bss_image_end>
 2000104:	12 40 fe 6c 
 2000108:	90 a0 9f 90 	SUB        R4,R2         | MOV        R2,R3
 200010c:	19 c0 00 02 	ASR        $2,R3
 2000110:	14 00 00 01 	CMP        $1,R2
 2000114:	78 90 00 14 	BLT        @0x0200012c    // 200012c <_bootloader+0xd4>
 2000118:	16 00 00 00 	CLR        R2
 200011c:	8a 04 a6 00 	ADD        $4,R1         | CLR        R4
 2000120:	a5 8c 92 01 	SW         R4,$-4(R1)    | ADD        $1,R2
 2000124:	14 04 c0 00 	CMP        R3,R2
 2000128:	78 93 ff f0 	BLT        @0x0200011c    // 200011c <_bootloader+0xc4>
 200012c:	ac 00 b4 04 	LW         (SP),R5       | LW         4(SP),R6
 2000130:	ea 08 ff 80 	ADD        $8,SP         | RTN
 2000134:	13 41 00 00 	MOV        R4,R2
 2000138:	78 83 ff 8c 	BRA        @0x020000c8    // 20000c8 <_bootloader+0x70>
 200013c:	22 03 00 40 	LDI        0x0200fde8,R4  // 200fde8 <_ram_image_end>
 2000140:	22 40 fd e8 
 2000144:	12 03 20 40 	LDI        0x0204fe6c,R2  // 204fe6c <_bss_image_end>
 2000148:	12 40 fe 6c 
 200014c:	24 04 80 00 	CMP        R2,R4
 2000150:	78 b8 00 20 	BNC        @0x02000174    // 2000174 <_bootloader+0x11c>
 2000154:	8f a0 97 97 	MOV        R4,R1         | MOV        $-1+R2,R2
 2000158:	90 a0 91 7c 	SUB        R4,R2         | AND        $-4,R2
 200015c:	1b 41 00 04 	MOV        $4+R4,R3
 2000160:	10 84 c0 00 	ADD        R3,R2
 2000164:	9e 00 9d 88 	CLR        R3            | SW         R3,(R1)
 2000168:	8a 04 93 88 	ADD        $4,R1         | CMP        R1,R2
 200016c:	78 ab ff f4 	BNZ        @0x02000164    // 2000164 <_bootloader+0x10c>
 2000170:	7b 40 00 00 	RTN
 2000174:	7b 40 00 00 	RTN

02000178 <main>:
 2000178:	68 00 00 44 	SUB        $68,SP
 200017c:	85 20 ad 24 	SW         R0,$32(SP)    | SW         R5,$36(SP)
 2000180:	b5 28 bd 2c 	SW         R6,$40(SP)    | SW         R7,$44(SP)
 2000184:	c5 30 cd 34 	SW         R8,$48(SP)    | SW         R9,$52(SP)
 2000188:	d5 38 dd 3c 	SW         R10,$56(SP)   | SW         R11,$60(SP)
 200018c:	64 c7 40 40 	SW         R12,$64(SP)
 2000190:	2a 03 00 40 	LDI        0x0200fde8,R5  // 200fde8 <_ram_image_end>
 2000194:	2a 40 fd e8 
 2000198:	36 04 00 10 	LDI        $262160,R6
 200019c:	c7 a8 c2 b0 	MOV        R5,R8         | ADD        R6,R8
 20001a0:	06 00 01 00 	LDI        $256,R0
 20001a4:	04 c6 00 00 	SW         R0,(R8)
 20001a8:	0e 04 00 14 	LDI        $262164,R1
 20001ac:	bf a8 ba 88 	MOV        R5,R7         | ADD        R1,R7
 20001b0:	85 b8 85 08 	SW         R0,(R7)       | SW         R0,$8(SP)
 20001b4:	04 c7 40 04 	SW         R0,$4(SP)
 20001b8:	02 03 00 40 	LDI        0x0200ef39,R0  // 200ef39 <__call_exitprocs+0x1d9>
 20001bc:	02 40 ef 39 
 20001c0:	04 c7 40 00 	SW         R0,(SP)
 20001c4:	87 fa fc f8 	JSR        0x02001a08     // 2001a08 <printf>
 20001c8:	02 00 1a 08 
 20001cc:	0e 04 00 20 	LDI        $262176,R1
 20001d0:	cf a8 ca 88 	MOV        R5,R9         | ADD        R1,R9
 20001d4:	02 00 02 80 	LDI        0x01401000,R0  // 1401000 <_bkram+0x1000>
 20001d8:	02 40 10 00 
 20001dc:	04 c6 40 00 	SW         R0,(R9)
 20001e0:	0e 04 00 2c 	LDI        $262188,R1
 20001e4:	df a8 da 88 	MOV        R5,R11        | ADD        R1,R11
 20001e8:	02 40 10 0c 	LDILO      $4108,R0
 20001ec:	04 c6 c0 00 	SW         R0,(R11)
 20001f0:	0b 40 1f f4 	MOV        $-12+R0,R1
 20001f4:	84 88 85 08 	LW         (R1),R0       | SW         R0,$8(SP)
 20001f8:	0c c7 40 04 	SW         R1,$4(SP)
 20001fc:	52 03 00 40 	LDI        0x0200ef45,R10 // 200ef45 <__call_exitprocs+0x1e5>
 2000200:	52 40 ef 45 
 2000204:	54 c7 40 00 	SW         R10,(SP)
 2000208:	87 fa fc f8 	JSR        0x02001a08     // 2001a08 <printf>
 200020c:	02 00 1a 08 
 2000210:	8c c8 8c 88 	LW         (R9),R1       | LW         (R1),R1
 2000214:	33 41 9f f0 	MOV        $-16+R6,R6
 2000218:	cf a8 ca b0 	MOV        R5,R9         | ADD        R6,R9
 200021c:	8d c8 cd 08 	SW         R1,(R9)       | SW         R9,$8(SP)
 2000220:	0c c7 40 04 	SW         R1,$4(SP)
 2000224:	02 03 00 40 	LDI        0x0200ef4d,R0  // 200ef4d <__call_exitprocs+0x1ed>
 2000228:	02 40 ef 4d 
 200022c:	04 c7 40 00 	SW         R0,(SP)
 2000230:	87 fa fc f8 	JSR        0x02001a08     // 2001a08 <printf>
 2000234:	02 00 1a 08 
 2000238:	0e 04 00 24 	LDI        $262180,R1
 200023c:	87 a8 82 88 	MOV        R5,R0         | ADD        R1,R0
 2000240:	04 c7 40 18 	SW         R0,$24(SP)
 2000244:	0a 00 02 80 	LDI        0x01401004,R1  // 1401004 <_bkram+0x1004>
 2000248:	0a 40 10 04 
 200024c:	8d 80 84 88 	SW         R1,(R0)       | LW         (R1),R0
 2000250:	85 08 8d 04 	SW         R0,$8(SP)     | SW         R1,$4(SP)
 2000254:	54 c7 40 00 	SW         R10,(SP)
 2000258:	87 fa fc f8 	JSR        0x02001a08     // 2001a08 <printf>
 200025c:	02 00 1a 08 
 2000260:	8c c0 94 b8 	LW         (R8),R1       | LW         (R7),R2
 2000264:	0b 04 80 00 	MPY        R2,R1
 2000268:	09 80 00 02 	LSL        $2,R1
 200026c:	87 fa fc f8 	JSR        0x02000ca0     // 2000ca0 <malloc>
 2000270:	02 00 0c a0 
 2000274:	16 04 00 1c 	LDI        $262172,R2
 2000278:	87 a8 82 90 	MOV        R5,R0         | ADD        R2,R0
 200027c:	85 14 8d 80 	SW         R0,$20(SP)    | SW         R1,(R0)
 2000280:	8c d8 ad 88 	LW         (R11),R1      | SW         R5,(R1)
 2000284:	ad 08 8d 04 	SW         R5,$8(SP)     | SW         R1,$4(SP)
 2000288:	02 03 00 40 	LDI        0x0200ef5b,R0  // 200ef5b <__call_exitprocs+0x1fb>
 200028c:	02 40 ef 5b 
 2000290:	04 c7 40 00 	SW         R0,(SP)
 2000294:	87 fa fc f8 	JSR        0x02001a08     // 2001a08 <printf>
 2000298:	02 00 1a 08 
 200029c:	0e 04 00 28 	LDI        $262184,R1
 20002a0:	87 a8 82 88 	MOV        R5,R0         | ADD        R1,R0
 20002a4:	04 c7 40 1c 	SW         R0,$28(SP)
 20002a8:	0a 00 02 80 	LDI        0x01401008,R1  // 1401008 <_bkram+0x1008>
 20002ac:	0a 40 10 08 
 20002b0:	8d 80 97 88 	SW         R1,(R0)       | MOV        R1,R2
 20002b4:	0c 84 40 00 	LW         (R1),R1
 20002b8:	1e 04 00 04 	LDI        $262148,R3
 20002bc:	b7 a8 b2 98 	MOV        R5,R6         | ADD        R3,R6
 20002c0:	8d b0 8b 01 	SW         R1,(R6)       | CMP        $1,R1
 20002c4:	78 a8 00 0c 	BNZ        @0x020002d4    // 20002d4 <main+0x15c>
 20002c8:	8c 90 8d b0 	LW         (R2),R1       | SW         R1,(R6)
 20002cc:	0c 00 00 01 	CMP        $1,R1
 20002d0:	78 8b ff f4 	BZ         @0x020002c8    // 20002c8 <main+0x150>
 20002d4:	02 03 00 40 	LDI        0x0200fde8,R0  // 200fde8 <_ram_image_end>
 20002d8:	02 40 fd e8 
 20002dc:	85 08 84 14 	SW         R0,$8(SP)     | LW         20(SP),R0
 20002e0:	84 80 85 04 	LW         (R0),R0       | SW         R0,$4(SP)
 20002e4:	02 03 00 40 	LDI        0x0200ef63,R0  // 200ef63 <__call_exitprocs+0x203>
 20002e8:	02 40 ef 63 
 20002ec:	04 c7 40 00 	SW         R0,(SP)
 20002f0:	87 fa fc f8 	JSR        0x02001a08     // 2001a08 <printf>
 20002f4:	02 00 1a 08 
 20002f8:	8c c0 94 b8 	LW         (R8),R1       | LW         (R7),R2
 20002fc:	0b 04 80 00 	MPY        R2,R1
 2000300:	8a 88 8d 04 	ADD        R1,R1         | SW         R1,$4(SP)
 2000304:	02 03 00 40 	LDI        0x0200ef48,R0  // 200ef48 <__call_exitprocs+0x1e8>
 2000308:	02 40 ef 48 
 200030c:	04 c7 40 00 	SW         R0,(SP)
 2000310:	87 fa fc f8 	JSR        0x02001a08     // 2001a08 <printf>
 2000314:	02 00 1a 08 
 2000318:	16 04 00 30 	LDI        $262192,R2
 200031c:	8f a8 8a 90 	MOV        R5,R1         | ADD        R2,R1
 2000320:	02 00 02 80 	LDI        0x01401010,R0  // 1401010 <_bkram+0x1010>
 2000324:	02 40 10 10 
 2000328:	85 88 97 80 	SW         R0,(R1)       | MOV        R0,R2
 200032c:	0c 84 00 00 	LW         (R0),R1
 2000330:	1e 04 00 08 	LDI        $262152,R3
 2000334:	aa 98 8d a8 	ADD        R3,R5         | SW         R1,(R5)
 2000338:	0c 00 00 01 	CMP        $1,R1
 200033c:	78 a8 00 0c 	BNZ        @0x0200034c    // 200034c <main+0x1d4>
 2000340:	8c 90 8d a8 	LW         (R2),R1       | SW         R1,(R5)
 2000344:	0c 00 00 01 	CMP        $1,R1
 2000348:	78 8b ff f4 	BZ         @0x02000340    // 2000340 <main+0x1c8>
 200034c:	3a 03 00 40 	LDI        0x0200fde8,R7  // 200fde8 <_ram_image_end>
 2000350:	3a 40 fd e8 
 2000354:	63 41 c0 10 	MOV        $16+R7,R12
 2000358:	af b8 d7 b8 	MOV        R7,R5         | MOV        R7,R10
 200035c:	5a 03 00 40 	LDI        0x0200ef6d,R11 // 200ef6d <__call_exitprocs+0x20d>
 2000360:	5a 40 ef 6d 
 2000364:	84 d0 85 08 	LW         (R10),R0      | SW         R0,$8(SP)
 2000368:	d5 04 dd 00 	SW         R10,$4(SP)    | SW         R11,(SP)
 200036c:	87 fa fc f8 	JSR        0x02001a08     // 2001a08 <printf>
 2000370:	02 00 1a 08 
 2000374:	d2 04 d3 e0 	ADD        $4,R10        | CMP        R12,R10
 2000378:	78 ab ff e8 	BNZ        @0x02000364    // 2000364 <main+0x1ec>
 200037c:	0e 00 00 0a 	LDI        $10,R1
 2000380:	87 fa fc f8 	JSR        0x02001a48     // 2001a48 <putchar>
 2000384:	02 00 1a 48 
 2000388:	62 03 40 40 	LDI        0x0202fde8,R12 // 202fde8 <_ram_image_end+0x20000>
 200038c:	62 40 fd e8 
 2000390:	0e 02 00 10 	LDI        $131088,R1
 2000394:	38 84 40 00 	ADD        R1,R7
 2000398:	5a 03 00 40 	LDI        0x0200ef6d,R11 // 200ef6d <__call_exitprocs+0x20d>
 200039c:	5a 40 ef 6d 
 20003a0:	84 e0 85 08 	LW         (R12),R0      | SW         R0,$8(SP)
 20003a4:	e5 04 dd 00 	SW         R12,$4(SP)    | SW         R11,(SP)
 20003a8:	87 fa fc f8 	JSR        0x02001a08     // 2001a08 <printf>
 20003ac:	02 00 1a 08 
 20003b0:	e2 04 bb e0 	ADD        $4,R12        | CMP        R12,R7
 20003b4:	78 ab ff e8 	BNZ        @0x020003a0    // 20003a0 <main+0x228>
 20003b8:	0e 00 00 0a 	LDI        $10,R1
 20003bc:	87 fa fc f8 	JSR        0x02001a48     // 2001a48 <putchar>
 20003c0:	02 00 1a 48 
 20003c4:	5a 03 20 40 	LDI        0x0204fdd8,R11 // 204fdd8 <_ram_image_end+0x3fff0>
 20003c8:	5a 40 fd d8 
 20003cc:	3a 03 00 40 	LDI        0x0200ef6d,R7  // 200ef6d <__call_exitprocs+0x20d>
 20003d0:	3a 40 ef 6d 
 20003d4:	84 d8 85 08 	LW         (R11),R0      | SW         R0,$8(SP)
 20003d8:	dd 04 bd 00 	SW         R11,$4(SP)    | SW         R7,(SP)
 20003dc:	87 fa fc f8 	JSR        0x02001a08     // 2001a08 <printf>
 20003e0:	02 00 1a 08 
 20003e4:	da 04 cb d8 	ADD        $4,R11        | CMP        R11,R9
 20003e8:	78 ab ff e8 	BNZ        @0x020003d4    // 20003d4 <main+0x25c>
 20003ec:	0e 04 00 0c 	LDI        $262156,R1
 20003f0:	97 a8 92 88 	MOV        R5,R2         | ADD        R1,R2
 20003f4:	8c 90 8b 01 	LW         (R2),R1       | CMP        $1,R1
 20003f8:	78 a8 00 18 	BNZ        @0x02000414    // 2000414 <main+0x29c>
 20003fc:	1e 04 00 34 	LDI        $262196,R3
 2000400:	8f a8 8a 98 	MOV        R5,R1         | ADD        R3,R1
 2000404:	1c 84 40 00 	LW         (R1),R3
 2000408:	8c 98 8d 90 	LW         (R3),R1       | SW         R1,(R2)
 200040c:	0c 00 00 01 	CMP        $1,R1
 2000410:	78 8b ff f4 	BZ         @0x02000408    // 2000408 <main+0x290>
 2000414:	84 18 84 80 	LW         24(SP),R0     | LW         (R0),R0
 2000418:	85 10 bc 14 	SW         R0,$16(SP)    | LW         20(SP),R7
 200041c:	84 b8 85 0c 	LW         (R7),R0       | SW         R0,$12(SP)
 2000420:	ad 08 84 c0 	SW         R5,$8(SP)     | LW         (R8),R0
 2000424:	04 c7 40 04 	SW         R0,$4(SP)
 2000428:	02 03 00 40 	LDI        0x0200ef78,R0  // 200ef78 <__call_exitprocs+0x218>
 200042c:	02 40 ef 78 
 2000430:	04 c7 40 00 	SW         R0,(SP)
 2000434:	87 fa fc f8 	JSR        0x02001a08     // 2001a08 <printf>
 2000438:	02 00 1a 08 
 200043c:	84 c0 85 04 	LW         (R8),R0       | SW         R0,$4(SP)
 2000440:	02 03 00 40 	LDI        0x0200ef8d,R0  // 200ef8d <__call_exitprocs+0x22d>
 2000444:	02 40 ef 8d 
 2000448:	04 c7 40 00 	SW         R0,(SP)
 200044c:	87 fa fc f8 	JSR        0x02001a08     // 2001a08 <printf>
 2000450:	02 00 1a 08 
 2000454:	a6 00 9c b8 	CLR        R4            | LW         (R7),R3
 2000458:	12 03 00 40 	LDI        0x0200fde8,R2  // 200fde8 <_ram_image_end>
 200045c:	12 40 fd e8 
 2000460:	0c 86 00 00 	LW         (R8),R1
 2000464:	87 fa fc f8 	JSR        0x020008e4     // 20008e4 <lifting>
 2000468:	02 00 08 e4 
 200046c:	04 87 40 1c 	LW         28(SP),R0
 2000470:	0a 00 02 80 	LDI        0x01401008,R1  // 1401008 <_bkram+0x1008>
 2000474:	0a 40 10 08 
 2000478:	8d 80 97 88 	SW         R1,(R0)       | MOV        R1,R2
 200047c:	8c 90 8d b0 	LW         (R2),R1       | SW         R1,(R6)
 2000480:	0c 00 00 00 	CMP        $0,R1
 2000484:	78 8b ff f4 	BZ         @0x0200047c    // 200047c <main+0x304>
 2000488:	0e 04 00 18 	LDI        $262168,R1
 200048c:	aa 88 8c a8 	ADD        R1,R5         | LW         (R5),R1
 2000490:	87 fa fc f8 	JSR        0x02000cc0     // 2000cc0 <free>
 2000494:	02 00 0c c0 
 2000498:	8e 00 84 20 	CLR        R1            | LW         32(SP),R0
 200049c:	ac 24 b4 28 	LW         36(SP),R5     | LW         40(SP),R6
 20004a0:	bc 2c c4 30 	LW         44(SP),R7     | LW         48(SP),R8
 20004a4:	cc 34 d4 38 	LW         52(SP),R9     | LW         56(SP),R10
 20004a8:	5c 87 40 3c 	LW         60(SP),R11
 20004ac:	64 87 40 40 	LW         64(SP),R12
 20004b0:	68 80 00 44 	ADD        $68,SP
 20004b4:	7b 40 00 00 	RTN

020004b8 <singlelift>:
 20004b8:	e8 38 ad 18 	SUB        $56,SP        | SW         R5,$24(SP)
 20004bc:	b5 1c bd 20 	SW         R6,$28(SP)    | SW         R7,$32(SP)
 20004c0:	c5 24 cd 28 	SW         R8,$36(SP)    | SW         R9,$40(SP)
 20004c4:	d5 2c dd 30 	SW         R10,$44(SP)   | SW         R11,$48(SP)
 20004c8:	e5 34 8d 14 	SW         R12,$52(SP)   | SW         R1,$20(SP)
 20004cc:	14 00 00 01 	CMP        $1,R2
 20004d0:	78 90 01 04 	BLT        @0x020005d8    // 20005d8 <singlelift+0x120>
 20004d4:	af 88 e7 98 	MOV        R1,R5         | MOV        R3,R12
 20004d8:	1b 40 80 00 	MOV        R2,R3
 20004dc:	1b 04 40 00 	MPY        R1,R3
 20004e0:	0b 40 c0 00 	MOV        R3,R1
 20004e4:	09 40 00 1f 	LSR        $31,R1
 20004e8:	08 84 c0 00 	ADD        R3,R1
 20004ec:	09 c0 00 01 	ASR        $1,R1
 20004f0:	09 80 00 02 	LSL        $2,R1
 20004f4:	8d 0c 8f 90 	SW         R1,$12(SP)    | MOV        R2,R1
 20004f8:	09 c0 00 01 	ASR        $1,R1
 20004fc:	df 8f d7 a8 	MOV        $-1+R1,R11    | MOV        R5,R10
 2000500:	51 80 00 02 	LSL        $2,R10
 2000504:	9f a0 ab 01 	MOV        R4,R3         | CMP        $1,R5
 2000508:	78 a8 00 e0 	BNZ        @0x020005ec    // 20005ec <singlelift+0x134>
 200050c:	a5 04 ac 0c 	SW         R4,$4(SP)     | LW         12(SP),R5
 2000510:	a2 a8 a5 00 	ADD        R5,R4         | SW         R4,(SP)
 2000514:	08 83 ff fe 	ADD        $-2,R1
 2000518:	0b 06 80 00 	MPY        R10,R1
 200051c:	a7 98 a2 88 	MOV        R3,R4         | ADD        R1,R4
 2000520:	a5 08 e2 10 	SW         R4,$8(SP)     | ADD        $16,R12
 2000524:	11 80 00 02 	LSL        $2,R2
 2000528:	9a 90 9d 10 	ADD        R2,R3         | SW         R3,$16(SP)
 200052c:	cc 04 af c8 	LW         4(SP),R9      | MOV        R9,R5
 2000530:	a4 00 9f e0 	LW         (SP),R4       | MOV        R12,R3
 2000534:	3c 87 3f f0 	LW         -16(R12),R7
 2000538:	44 87 3f f4 	LW         -12(R12),R8
 200053c:	14 87 3f f8 	LW         -8(R12),R2
 2000540:	b4 e4 b8 c0 	LW         -4(R12),R6    | SUB        R8,R7
 2000544:	8f b0 8a c0 	MOV        R6,R1         | ADD        R8,R1
 2000548:	09 c0 00 01 	ASR        $1,R1
 200054c:	90 88 bd c8 	SUB        R1,R2         | SW         R7,(R9)
 2000550:	8f 90 8a b8 	MOV        R2,R1         | ADD        R7,R1
 2000554:	08 80 00 02 	ADD        $2,R1
 2000558:	09 c0 00 02 	ASR        $2,R1
 200055c:	8a c0 8d a0 	ADD        R8,R1         | SW         R1,(R4)
 2000560:	5c 00 00 02 	CMP        $2,R11
 2000564:	78 90 00 44 	BLT        @0x020005ac    // 20005ac <singlelift+0xf4>
 2000568:	3c 87 40 14 	LW         20(SP),R7
 200056c:	aa d0 a2 d0 	ADD        R10,R5        | ADD        R10,R4
 2000570:	43 41 80 00 	MOV        R6,R8
 2000574:	34 84 c0 04 	LW         4(R3),R6
 2000578:	cf 90 8f b0 	MOV        R2,R9         | MOV        R6,R1
 200057c:	08 86 00 00 	ADD        R8,R1
 2000580:	09 c0 00 01 	ASR        $1,R1
 2000584:	94 98 90 88 	LW         (R3),R2       | SUB        R1,R2
 2000588:	cd a8 8f 90 	SW         R9,(R5)       | MOV        R2,R1
 200058c:	8a c8 8a 02 	ADD        R9,R1         | ADD        $2,R1
 2000590:	09 c0 00 02 	ASR        $2,R1
 2000594:	8a c0 8d a0 	ADD        R8,R1         | SW         R1,(R4)
 2000598:	9a 08 ba 01 	ADD        $8,R3         | ADD        $1,R7
 200059c:	3c 06 c0 00 	CMP        R11,R7
 20005a0:	78 ab ff c8 	BNZ        @0x0200056c    // 200056c <singlelift+0xb4>
 20005a4:	8c 08 af 88 	LW         8(SP),R1      | MOV        R1,R5
 20005a8:	a4 0c a2 88 	LW         12(SP),R4     | ADD        R1,R4
 20005ac:	aa d0 95 a8 	ADD        R10,R5        | SW         R2,(R5)
 20005b0:	a2 d0 92 01 	ADD        R10,R4        | ADD        $1,R2
 20005b4:	11 c0 00 03 	ASR        $3,R2
 20005b8:	92 b0 95 a0 	ADD        R6,R2         | SW         R2,(R4)
 20005bc:	8c 04 8a 04 	LW         4(SP),R1      | ADD        $4,R1
 20005c0:	8d 04 94 00 	SW         R1,$4(SP)     | LW         (SP),R2
 20005c4:	92 04 95 00 	ADD        $4,R2         | SW         R2,(SP)
 20005c8:	94 08 92 04 	LW         8(SP),R2      | ADD        $4,R2
 20005cc:	95 08 e2 04 	SW         R2,$8(SP)     | ADD        $4,R12
 20005d0:	94 10 8b 90 	LW         16(SP),R2     | CMP        R2,R1
 20005d4:	78 ab ff 54 	BNZ        @0x0200052c    // 200052c <singlelift+0x74>
 20005d8:	ac 18 b4 1c 	LW         24(SP),R5     | LW         28(SP),R6
 20005dc:	bc 20 c4 24 	LW         32(SP),R7     | LW         36(SP),R8
 20005e0:	cc 28 d4 2c 	LW         40(SP),R9     | LW         44(SP),R10
 20005e4:	dc 30 e4 34 	LW         48(SP),R11    | LW         52(SP),R12
 20005e8:	ea 38 ff 80 	ADD        $56,SP        | RTN
 20005ec:	a5 00 8a 7e 	SW         R4,(SP)       | ADD        $-2,R1
 20005f0:	0b 06 80 00 	MPY        R10,R1
 20005f4:	a2 88 a5 04 	ADD        R1,R4         | SW         R4,$4(SP)
 20005f8:	60 80 00 10 	ADD        $16,R12
 20005fc:	11 80 00 02 	LSL        $2,R2
 2000600:	9a 90 9d 08 	ADD        R2,R3         | SW         R3,$8(SP)
 2000604:	cc 00 af c8 	LW         (SP),R9       | MOV        R9,R5
 2000608:	a4 0c a2 c8 	LW         12(SP),R4     | ADD        R9,R4
 200060c:	1b 43 00 00 	MOV        R12,R3
 2000610:	0c 87 3f f0 	LW         -16(R12),R1
 2000614:	3c 87 3f f4 	LW         -12(R12),R7
 2000618:	14 87 3f f8 	LW         -8(R12),R2
 200061c:	b4 e4 88 b8 	LW         -4(R12),R6    | SUB        R7,R1
 2000620:	c7 b8 c2 b0 	MOV        R7,R8         | ADD        R6,R8
 2000624:	41 c0 00 01 	ASR        $1,R8
 2000628:	90 c0 8d c8 	SUB        R8,R2         | SW         R1,(R9)
 200062c:	8a 90 8a 02 	ADD        R2,R1         | ADD        $2,R1
 2000630:	09 c0 00 02 	ASR        $2,R1
 2000634:	8a b8 8d a0 	ADD        R7,R1         | SW         R1,(R4)
 2000638:	5c 00 00 02 	CMP        $2,R11
 200063c:	78 90 00 44 	BLT        @0x02000684    // 2000684 <singlelift+0x1cc>
 2000640:	3e 00 00 01 	LDI        $1,R7
 2000644:	aa d0 a2 d0 	ADD        R10,R5        | ADD        R10,R4
 2000648:	43 41 80 00 	MOV        R6,R8
 200064c:	34 84 c0 04 	LW         4(R3),R6
 2000650:	cf 90 8f b0 	MOV        R2,R9         | MOV        R6,R1
 2000654:	08 86 00 00 	ADD        R8,R1
 2000658:	09 c0 00 01 	ASR        $1,R1
 200065c:	94 98 90 88 	LW         (R3),R2       | SUB        R1,R2
 2000660:	cd a8 8f 90 	SW         R9,(R5)       | MOV        R2,R1
 2000664:	8a c8 8a 02 	ADD        R9,R1         | ADD        $2,R1
 2000668:	09 c0 00 02 	ASR        $2,R1
 200066c:	8a c0 8d a0 	ADD        R8,R1         | SW         R1,(R4)
 2000670:	9a 08 ba 01 	ADD        $8,R3         | ADD        $1,R7
 2000674:	3c 06 c0 00 	CMP        R11,R7
 2000678:	78 ab ff c8 	BNZ        @0x02000644    // 2000644 <singlelift+0x18c>
 200067c:	8c 04 af 88 	LW         4(SP),R1      | MOV        R1,R5
 2000680:	a4 0c a2 88 	LW         12(SP),R4     | ADD        R1,R4
 2000684:	aa d0 95 a8 	ADD        R10,R5        | SW         R2,(R5)
 2000688:	a2 d0 92 01 	ADD        R10,R4        | ADD        $1,R2
 200068c:	11 c0 00 03 	ASR        $3,R2
 2000690:	92 b0 95 a0 	ADD        R6,R2         | SW         R2,(R4)
 2000694:	8c 00 8a 04 	LW         (SP),R1       | ADD        $4,R1
 2000698:	8d 00 94 04 	SW         R1,(SP)       | LW         4(SP),R2
 200069c:	92 04 95 04 	ADD        $4,R2         | SW         R2,$4(SP)
 20006a0:	e2 d0 94 08 	ADD        R10,R12       | LW         8(SP),R2
 20006a4:	0c 04 80 00 	CMP        R2,R1
 20006a8:	78 ab ff 58 	BNZ        @0x02000604    // 2000604 <singlelift+0x14c>
 20006ac:	ac 18 b4 1c 	LW         24(SP),R5     | LW         28(SP),R6
 20006b0:	bc 20 c4 24 	LW         32(SP),R7     | LW         36(SP),R8
 20006b4:	cc 28 d4 2c 	LW         40(SP),R9     | LW         44(SP),R10
 20006b8:	dc 30 e4 34 	LW         48(SP),R11    | LW         52(SP),R12
 20006bc:	ea 38 ff 80 	ADD        $56,SP        | RTN

020006c0 <ilift>:
 20006c0:	e8 38 ad 18 	SUB        $56,SP        | SW         R5,$24(SP)
 20006c4:	b5 1c bd 20 	SW         R6,$28(SP)    | SW         R7,$32(SP)
 20006c8:	c5 24 cd 28 	SW         R8,$36(SP)    | SW         R9,$40(SP)
 20006cc:	d5 2c dd 30 	SW         R10,$44(SP)   | SW         R11,$48(SP)
 20006d0:	e5 34 8d 0c 	SW         R12,$52(SP)   | SW         R1,$12(SP)
 20006d4:	14 00 00 01 	CMP        $1,R2
 20006d8:	78 90 01 10 	BLT        @0x020007ec    // 20007ec <ilift+0x12c>
 20006dc:	af 88 e7 98 	MOV        R1,R5         | MOV        R3,R12
 20006e0:	1b 40 80 00 	MOV        R2,R3
 20006e4:	1b 04 40 00 	MPY        R1,R3
 20006e8:	0b 40 c0 00 	MOV        R3,R1
 20006ec:	09 40 00 1f 	LSR        $31,R1
 20006f0:	08 84 c0 00 	ADD        R3,R1
 20006f4:	09 c0 00 01 	ASR        $1,R1
 20006f8:	09 80 00 02 	LSL        $2,R1
 20006fc:	9f a8 d7 a8 	MOV        R5,R3         | MOV        R5,R10
 2000700:	51 80 00 02 	LSL        $2,R10
 2000704:	2b 40 80 00 	MOV        R2,R5
 2000708:	29 c0 00 01 	ASR        $1,R5
 200070c:	df af 9b 01 	MOV        $-1+R5,R11    | CMP        $1,R3
 2000710:	1b 43 00 00 	MOV        R12,R3
 2000714:	78 a8 00 e8 	BNZ        @0x02000800    // 2000800 <ilift+0x140>
 2000718:	9a 88 9d 04 	ADD        R1,R3         | SW         R3,$4(SP)
 200071c:	24 c7 40 00 	SW         R4,(SP)
 2000720:	11 80 00 02 	LSL        $2,R2
 2000724:	9f e0 9a 90 	MOV        R12,R3        | ADD        R2,R3
 2000728:	9d 08 97 ae 	SW         R3,$8(SP)     | MOV        $-2+R5,R2
 200072c:	13 06 80 00 	MPY        R10,R2
 2000730:	92 88 95 10 	ADD        R1,R2         | SW         R2,$16(SP)
 2000734:	29 80 00 03 	LSL        $3,R5
 2000738:	aa 70 ad 14 	ADD        $-16,R5       | SW         R5,$20(SP)
 200073c:	cc 00 9f c8 	LW         (SP),R9       | MOV        R9,R3
 2000740:	8c 04 a7 88 	LW         4(SP),R1      | MOV        R1,R4
 2000744:	bc e0 b7 d0 	LW         (R12),R7      | MOV        R10,R6
 2000748:	b2 e0 ac b0 	ADD        R12,R6        | LW         (R6),R5
 200074c:	97 a8 92 b8 	MOV        R5,R2         | ADD        R7,R2
 2000750:	10 80 00 02 	ADD        $2,R2
 2000754:	11 c0 00 02 	ASR        $2,R2
 2000758:	8c 88 88 90 	LW         (R1),R1       | SUB        R2,R1
 200075c:	97 88 92 b8 	MOV        R1,R2         | ADD        R7,R2
 2000760:	14 c6 40 00 	SW         R2,(R9)
 2000764:	0c c6 40 04 	SW         R1,$4(R9)
 2000768:	5c 00 00 02 	CMP        $2,R11
 200076c:	78 90 00 44 	BLT        @0x020007b4    // 20007b4 <ilift+0xf4>
 2000770:	3c 87 40 0c 	LW         12(SP),R7
 2000774:	9a 08 b2 d0 	ADD        $8,R3         | ADD        R10,R6
 2000778:	a2 d0 cf a8 	ADD        R10,R4        | MOV        R5,R9
 200077c:	ac b0 c7 88 	LW         (R6),R5       | MOV        R1,R8
 2000780:	97 a8 92 c8 	MOV        R5,R2         | ADD        R9,R2
 2000784:	10 80 00 02 	ADD        $2,R2
 2000788:	11 c0 00 02 	ASR        $2,R2
 200078c:	8c a0 88 90 	LW         (R4),R1       | SUB        R2,R1
 2000790:	97 88 92 c0 	MOV        R1,R2         | ADD        R8,R2
 2000794:	11 c0 00 01 	ASR        $1,R2
 2000798:	92 c8 95 98 	ADD        R9,R2         | SW         R2,(R3)
 200079c:	0c c4 c0 04 	SW         R1,$4(R3)
 20007a0:	ba 01 bb d8 	ADD        $1,R7         | CMP        R11,R7
 20007a4:	78 ab ff cc 	BNZ        @0x02000774    // 2000774 <ilift+0xb4>
 20007a8:	a7 e0 8c 10 	MOV        R12,R4        | LW         16(SP),R1
 20007ac:	a2 88 9c 14 	ADD        R1,R4         | LW         20(SP),R3
 20007b0:	8c 00 9a 88 	LW         (SP),R1       | ADD        R1,R3
 20007b4:	a2 d0 8f a9 	ADD        R10,R4        | MOV        $1+R5,R1
 20007b8:	09 c0 00 03 	ASR        $3,R1
 20007bc:	94 a0 90 88 	LW         (R4),R2       | SUB        R1,R2
 20007c0:	8f c0 8a 90 	MOV        R8,R1         | ADD        R2,R1
 20007c4:	09 c0 00 01 	ASR        $1,R1
 20007c8:	08 85 40 00 	ADD        R5,R1
 20007cc:	0c c4 c0 08 	SW         R1,$8(R3)
 20007d0:	14 c4 c0 0c 	SW         R2,$12(R3)
 20007d4:	e2 04 8c 04 	ADD        $4,R12        | LW         4(SP),R1
 20007d8:	8a 04 8d 04 	ADD        $4,R1         | SW         R1,$4(SP)
 20007dc:	8c 00 8a 04 	LW         (SP),R1       | ADD        $4,R1
 20007e0:	8d 00 8c 08 	SW         R1,(SP)       | LW         8(SP),R1
 20007e4:	64 04 40 00 	CMP        R1,R12
 20007e8:	78 ab ff 50 	BNZ        @0x0200073c    // 200073c <ilift+0x7c>
 20007ec:	ac 18 b4 1c 	LW         24(SP),R5     | LW         28(SP),R6
 20007f0:	bc 20 c4 24 	LW         32(SP),R7     | LW         36(SP),R8
 20007f4:	cc 28 d4 2c 	LW         40(SP),R9     | LW         44(SP),R10
 20007f8:	dc 30 e4 34 	LW         48(SP),R11    | LW         52(SP),R12
 20007fc:	ea 38 ff 80 	ADD        $56,SP        | RTN
 2000800:	9a 88 9d 04 	ADD        R1,R3         | SW         R3,$4(SP)
 2000804:	24 c7 40 00 	SW         R4,(SP)
 2000808:	11 80 00 02 	LSL        $2,R2
 200080c:	9f e0 9a 90 	MOV        R12,R3        | ADD        R2,R3
 2000810:	9d 08 97 ae 	SW         R3,$8(SP)     | MOV        $-2+R5,R2
 2000814:	13 06 80 00 	MPY        R10,R2
 2000818:	92 88 95 0c 	ADD        R1,R2         | SW         R2,$12(SP)
 200081c:	29 80 00 03 	LSL        $3,R5
 2000820:	aa 70 ad 10 	ADD        $-16,R5       | SW         R5,$16(SP)
 2000824:	cc 00 9f c8 	LW         (SP),R9       | MOV        R9,R3
 2000828:	8c 04 a7 88 	LW         4(SP),R1      | MOV        R1,R4
 200082c:	bc e0 b7 d0 	LW         (R12),R7      | MOV        R10,R6
 2000830:	b2 e0 ac b0 	ADD        R12,R6        | LW         (R6),R5
 2000834:	97 b8 92 a8 	MOV        R7,R2         | ADD        R5,R2
 2000838:	10 80 00 02 	ADD        $2,R2
 200083c:	11 c0 00 02 	ASR        $2,R2
 2000840:	8c 88 88 90 	LW         (R1),R1       | SUB        R2,R1
 2000844:	ba 88 bd c8 	ADD        R1,R7         | SW         R7,(R9)
 2000848:	0c c6 40 04 	SW         R1,$4(R9)
 200084c:	5c 00 00 02 	CMP        $2,R11
 2000850:	78 90 00 44 	BLT        @0x02000898    // 2000898 <ilift+0x1d8>
 2000854:	3e 00 00 01 	LDI        $1,R7
 2000858:	9a 08 b2 d0 	ADD        $8,R3         | ADD        R10,R6
 200085c:	a2 d0 cf a8 	ADD        R10,R4        | MOV        R5,R9
 2000860:	ac b0 c7 88 	LW         (R6),R5       | MOV        R1,R8
 2000864:	97 a8 92 c8 	MOV        R5,R2         | ADD        R9,R2
 2000868:	10 80 00 02 	ADD        $2,R2
 200086c:	11 c0 00 02 	ASR        $2,R2
 2000870:	8c a0 88 90 	LW         (R4),R1       | SUB        R2,R1
 2000874:	97 88 92 c0 	MOV        R1,R2         | ADD        R8,R2
 2000878:	11 c0 00 01 	ASR        $1,R2
 200087c:	92 c8 95 98 	ADD        R9,R2         | SW         R2,(R3)
 2000880:	0c c4 c0 04 	SW         R1,$4(R3)
 2000884:	ba 01 bb d8 	ADD        $1,R7         | CMP        R11,R7
 2000888:	78 ab ff cc 	BNZ        @0x02000858    // 2000858 <ilift+0x198>
 200088c:	a7 e0 8c 0c 	MOV        R12,R4        | LW         12(SP),R1
 2000890:	a2 88 9c 10 	ADD        R1,R4         | LW         16(SP),R3
 2000894:	8c 00 9a 88 	LW         (SP),R1       | ADD        R1,R3
 2000898:	a2 d0 8f a9 	ADD        R10,R4        | MOV        $1+R5,R1
 200089c:	09 c0 00 03 	ASR        $3,R1
 20008a0:	94 a0 90 88 	LW         (R4),R2       | SUB        R1,R2
 20008a4:	8f 90 8a c0 	MOV        R2,R1         | ADD        R8,R1
 20008a8:	09 c0 00 01 	ASR        $1,R1
 20008ac:	08 85 40 00 	ADD        R5,R1
 20008b0:	0c c4 c0 08 	SW         R1,$8(R3)
 20008b4:	14 c4 c0 0c 	SW         R2,$12(R3)
 20008b8:	e2 04 8c 04 	ADD        $4,R12        | LW         4(SP),R1
 20008bc:	8a 04 8d 04 	ADD        $4,R1         | SW         R1,$4(SP)
 20008c0:	8c 00 8a d0 	LW         (SP),R1       | ADD        R10,R1
 20008c4:	8d 00 8c 08 	SW         R1,(SP)       | LW         8(SP),R1
 20008c8:	64 04 40 00 	CMP        R1,R12
 20008cc:	78 ab ff 54 	BNZ        @0x02000824    // 2000824 <ilift+0x164>
 20008d0:	ac 18 b4 1c 	LW         24(SP),R5     | LW         28(SP),R6
 20008d4:	bc 20 c4 24 	LW         32(SP),R7     | LW         36(SP),R8
 20008d8:	cc 28 d4 2c 	LW         40(SP),R9     | LW         44(SP),R10
 20008dc:	dc 30 e4 34 	LW         48(SP),R11    | LW         52(SP),R12
 20008e0:	ea 38 ff 80 	ADD        $56,SP        | RTN

020008e4 <lifting>:
 20008e4:	e8 38 85 14 	SUB        $56,SP        | SW         R0,$20(SP)
 20008e8:	ad 18 b5 1c 	SW         R5,$24(SP)    | SW         R6,$28(SP)
 20008ec:	bd 20 c5 24 	SW         R7,$32(SP)    | SW         R8,$36(SP)
 20008f0:	cd 28 d5 2c 	SW         R9,$40(SP)    | SW         R10,$44(SP)
 20008f4:	dd 30 e5 34 	SW         R11,$48(SP)   | SW         R12,$52(SP)
 20008f8:	d7 88 95 00 	MOV        R1,R10        | SW         R2,(SP)
 20008fc:	df 98 a5 04 	MOV        R3,R11        | SW         R4,$4(SP)
 2000900:	4b 43 40 08 	MOV        $8+SP,R9
 2000904:	c7 c8 bf 98 	MOV        R9,R8         | MOV        R3,R7
 2000908:	b7 90 e7 88 	MOV        R2,R6         | MOV        R1,R12
 200090c:	2e 00 00 00 	CLR        R5
 2000910:	a7 b8 9f b0 	MOV        R7,R4         | MOV        R6,R3
 2000914:	97 e0 8f d0 	MOV        R12,R2        | MOV        R10,R1
 2000918:	87 fa fc f8 	JSR        0x020004b8     // 20004b8 <singlelift>
 200091c:	02 00 04 b8 
 2000920:	a7 b0 9f b8 	MOV        R6,R4         | MOV        R7,R3
 2000924:	97 e0 8f d0 	MOV        R12,R2        | MOV        R10,R1
 2000928:	87 fa fc f8 	JSR        0x020004b8     // 20004b8 <singlelift>
 200092c:	02 00 04 b8 
 2000930:	0b 42 80 00 	MOV        R10,R1
 2000934:	0b 07 00 00 	MPY        R12,R1
 2000938:	1b 40 40 00 	MOV        R1,R3
 200093c:	19 40 00 1f 	LSR        $31,R3
 2000940:	18 84 40 00 	ADD        R1,R3
 2000944:	19 c0 00 01 	ASR        $1,R3
 2000948:	0b 43 00 00 	MOV        R12,R1
 200094c:	09 40 00 1f 	LSR        $31,R1
 2000950:	08 87 00 00 	ADD        R12,R1
 2000954:	09 c0 00 01 	ASR        $1,R1
 2000958:	9a 88 aa 01 	ADD        R1,R3         | ADD        $1,R5
 200095c:	2c 00 00 01 	CMP        $1,R5
 2000960:	78 88 00 90 	BZ         @0x020009f4    // 20009f4 <lifting+0x110>
 2000964:	8c c4 8a 98 	LW         -4(R8),R1     | ADD        R3,R1
 2000968:	8d c0 ab 03 	SW         R1,(R8)       | CMP        $3,R5
 200096c:	78 a8 00 88 	BNZ        @0x020009f8    // 20009f8 <lifting+0x114>
 2000970:	8c 04 9c 88 	LW         4(SP),R1      | LW         (R1),R3
 2000974:	1c 00 00 00 	CMP        $0,R3
 2000978:	78 a8 00 90 	BNZ        @0x02000a0c    // 2000a0c <lifting+0x128>
 200097c:	af e0 a9 7e 	MOV        R12,R5        | AND        $-2,R5
 2000980:	33 42 5f f8 	MOV        $-8+R9,R6
 2000984:	14 86 40 04 	LW         4(R9),R2
 2000988:	11 80 00 02 	LSL        $2,R2
 200098c:	e4 00 c7 e0 	LW         (SP),R12      | MOV        R12,R8
 2000990:	c2 90 bf d8 	ADD        R2,R8         | MOV        R11,R7
 2000994:	ba 90 a7 b8 	ADD        R2,R7         | MOV        R7,R4
 2000998:	9f c0 97 a8 	MOV        R8,R3         | MOV        R5,R2
 200099c:	0b 42 80 00 	MOV        R10,R1
 20009a0:	87 fa fc f8 	JSR        0x020006c0     // 20006c0 <ilift>
 20009a4:	02 00 06 c0 
 20009a8:	a7 c0 9f b8 	MOV        R8,R4         | MOV        R7,R3
 20009ac:	97 a8 8f d0 	MOV        R5,R2         | MOV        R10,R1
 20009b0:	87 fa fc f8 	JSR        0x020006c0     // 20006c0 <ilift>
 20009b4:	02 00 06 c0 
 20009b8:	aa a8 ca 7c 	ADD        R5,R5         | ADD        $-4,R9
 20009bc:	34 06 40 00 	CMP        R9,R6
 20009c0:	78 ab ff c0 	BNZ        @0x02000984    // 2000984 <lifting+0xa0>
 20009c4:	a7 d8 9f e0 	MOV        R11,R4        | MOV        R12,R3
 20009c8:	97 a8 8f d0 	MOV        R5,R2         | MOV        R10,R1
 20009cc:	87 fa fc f8 	JSR        0x020006c0     // 20006c0 <ilift>
 20009d0:	02 00 06 c0 
 20009d4:	a7 e0 9f d8 	MOV        R12,R4        | MOV        R11,R3
 20009d8:	97 a8 8f d0 	MOV        R5,R2         | MOV        R10,R1
 20009dc:	84 14 ac 18 	LW         20(SP),R0     | LW         24(SP),R5
 20009e0:	b4 1c bc 20 	LW         28(SP),R6     | LW         32(SP),R7
 20009e4:	c4 24 cc 28 	LW         36(SP),R8     | LW         40(SP),R9
 20009e8:	d4 2c dc 30 	LW         44(SP),R10    | LW         48(SP),R11
 20009ec:	e4 34 ea 38 	LW         52(SP),R12    | ADD        $56,SP
 20009f0:	78 83 fc cc 	BRA        @0x020006c0    // 20006c0 <ilift>
 20009f4:	1c c6 00 00 	SW         R3,(R8)
 20009f8:	19 80 00 02 	LSL        $2,R3
 20009fc:	b2 98 ba 98 	ADD        R3,R6         | ADD        R3,R7
 2000a00:	61 c0 00 01 	ASR        $1,R12
 2000a04:	40 80 00 04 	ADD        $4,R8
 2000a08:	78 83 ff 04 	BRA        @0x02000910    // 2000910 <lifting+0x2c>
 2000a0c:	84 14 ac 18 	LW         20(SP),R0     | LW         24(SP),R5
 2000a10:	b4 1c bc 20 	LW         28(SP),R6     | LW         32(SP),R7
 2000a14:	c4 24 cc 28 	LW         36(SP),R8     | LW         40(SP),R9
 2000a18:	d4 2c dc 30 	LW         44(SP),R10    | LW         48(SP),R11
 2000a1c:	e4 34 ea 38 	LW         52(SP),R12    | ADD        $56,SP
 2000a20:	7b 40 00 00 	RTN

02000a24 <clrram>:
 2000a24:	e8 04 85 00 	SUB        $4,SP         | SW         R0,(SP)
 2000a28:	9f 88 8b 01 	MOV        R1,R3         | CMP        $1,R1
 2000a2c:	78 90 00 18 	BLT        @0x02000a48    // 2000a48 <clrram+0x24>
 2000a30:	0b 40 80 00 	MOV        R2,R1
 2000a34:	19 80 00 02 	LSL        $2,R3
 2000a38:	96 00 84 00 	CLR        R2            | LW         (SP),R0
 2000a3c:	68 80 00 04 	ADD        $4,SP
 2000a40:	7c 87 c0 00 	LJMP       @0x020017bc    // 20017bc <memset>
 2000a44:	02 00 17 bc 
 2000a48:	84 00 ea 04 	LW         (SP),R0       | ADD        $4,SP
 2000a4c:	7b 40 00 00 	RTN

02000a50 <out2inpbuf>:
 2000a50:	0c 00 00 01 	CMP        $1,R1
 2000a54:	78 90 00 20 	BLT        @0x02000a78    // 2000a78 <out2inpbuf+0x28>
 2000a58:	e8 04 ad 00 	SUB        $4,SP         | SW         R5,(SP)
 2000a5c:	26 00 00 00 	CLR        R4
 2000a60:	ac 90 ad 98 	LW         (R2),R5       | SW         R5,(R3)
 2000a64:	9a 04 92 04 	ADD        $4,R3         | ADD        $4,R2
 2000a68:	a2 01 8b a0 	ADD        $1,R4         | CMP        R4,R1
 2000a6c:	78 ab ff f0 	BNZ        @0x02000a60    // 2000a60 <out2inpbuf+0x10>
 2000a70:	ac 00 ea 04 	LW         (SP),R5       | ADD        $4,SP
 2000a74:	7b 40 00 00 	RTN
 2000a78:	7b 40 00 00 	RTN

02000a7c <split>:
 2000a7c:	14 00 00 01 	CMP        $1,R2
 2000a80:	78 90 01 6c 	BLT        @0x02000bf0    // 2000bf0 <split+0x174>
 2000a84:	e8 30 85 10 	SUB        $48,SP        | SW         R0,$16(SP)
 2000a88:	ad 14 b5 18 	SW         R5,$20(SP)    | SW         R6,$24(SP)
 2000a8c:	bd 1c c5 20 	SW         R7,$28(SP)    | SW         R8,$32(SP)
 2000a90:	cd 24 d5 28 	SW         R9,$36(SP)    | SW         R10,$40(SP)
 2000a94:	dd 2c bf 88 	SW         R11,$44(SP)   | MOV        R1,R7
 2000a98:	c7 90 af 98 	MOV        R2,R8         | MOV        R3,R5
 2000a9c:	b7 a0 8b 00 	MOV        R4,R6         | CMP        $0,R1
 2000aa0:	78 88 00 ac 	BZ         @0x02000b50    // 2000b50 <split+0xd4>
 2000aa4:	0c 00 00 01 	CMP        $1,R1
 2000aa8:	78 a8 01 48 	BNZ        @0x02000bf4    // 2000bf4 <split+0x178>
 2000aac:	cf 97 8e 03 	MOV        $-1+R2,R9     | LDI        $3,R1
 2000ab0:	4c 04 40 00 	CMP        R1,R9
 2000ab4:	4b 70 40 00 	MOV.GE     R1,R9
 2000ab8:	3e 00 00 00 	CLR        R7
 2000abc:	5e 07 fc 00 	LDI        $523264,R11
 2000ac0:	52 03 00 40 	LDI        0x0200ef1c,R10 // 200ef1c <__call_exitprocs+0x1bc>
 2000ac4:	52 40 ef 1c 
 2000ac8:	8c a8 9f 88 	LW         (R5),R1       | MOV        R1,R3
 2000acc:	99 d8 97 98 	AND        R11,R3        | MOV        R3,R2
 2000ad0:	11 c0 00 08 	ASR        $8,R2
 2000ad4:	95 b0 9d 0c 	SW         R2,(R6)       | SW         R3,$12(SP)
 2000ad8:	95 08 8d 04 	SW         R2,$8(SP)     | SW         R1,$4(SP)
 2000adc:	54 c7 40 00 	SW         R10,(SP)
 2000ae0:	87 fa fc f8 	JSR        0x02001a08     // 2001a08 <printf>
 2000ae4:	02 00 1a 08 
 2000ae8:	aa 04 b2 04 	ADD        $4,R5         | ADD        $4,R6
 2000aec:	ba 01 cb b8 	ADD        $1,R7         | CMP        R7,R9
 2000af0:	78 b3 ff d4 	BGE        @0x02000ac8    // 2000ac8 <split+0x4c>
 2000af4:	3c 06 00 00 	CMP        R8,R7
 2000af8:	78 b0 00 40 	BGE        @0x02000b3c    // 2000b3c <split+0xc0>
 2000afc:	56 07 fc 00 	LDI        $523264,R10
 2000b00:	4a 03 00 40 	LDI        0x0200ef1c,R9  // 200ef1c <__call_exitprocs+0x1bc>
 2000b04:	4a 40 ef 1c 
 2000b08:	8c a8 9f 88 	LW         (R5),R1       | MOV        R1,R3
 2000b0c:	99 d0 97 98 	AND        R10,R3        | MOV        R3,R2
 2000b10:	11 c0 00 08 	ASR        $8,R2
 2000b14:	14 c5 80 00 	SW         R2,(R6)
 2000b18:	3c 00 ff fd 	CMP        $65533,R7
 2000b1c:	78 90 00 10 	BLT        @0x02000b30    // 2000b30 <split+0xb4>
 2000b20:	9d 0c 95 08 	SW         R3,$12(SP)    | SW         R2,$8(SP)
 2000b24:	8d 04 cd 00 	SW         R1,$4(SP)     | SW         R9,(SP)
 2000b28:	87 fa fc f8 	JSR        0x02001a08     // 2001a08 <printf>
 2000b2c:	02 00 1a 08 
 2000b30:	aa 04 b2 04 	ADD        $4,R5         | ADD        $4,R6
 2000b34:	ba 01 bb c0 	ADD        $1,R7         | CMP        R8,R7
 2000b38:	78 ab ff cc 	BNZ        @0x02000b08    // 2000b08 <split+0x8c>
 2000b3c:	84 10 ac 14 	LW         16(SP),R0     | LW         20(SP),R5
 2000b40:	b4 18 bc 1c 	LW         24(SP),R6     | LW         28(SP),R7
 2000b44:	c4 20 cc 24 	LW         32(SP),R8     | LW         36(SP),R9
 2000b48:	d4 28 dc 2c 	LW         40(SP),R10    | LW         44(SP),R11
 2000b4c:	ea 30 ff 80 	ADD        $48,SP        | RTN
 2000b50:	cf 97 8e 03 	MOV        $-1+R2,R9     | LDI        $3,R1
 2000b54:	4c 04 40 00 	CMP        R1,R9
 2000b58:	4b 70 40 00 	MOV.GE     R1,R9
 2000b5c:	5a 00 0f f8 	BREV       $4088,R11
 2000b60:	52 03 00 40 	LDI        0x0200ef1c,R10 // 200ef1c <__call_exitprocs+0x1bc>
 2000b64:	52 40 ef 1c 
 2000b68:	8c a8 9f 88 	LW         (R5),R1       | MOV        R1,R3
 2000b6c:	99 d8 97 98 	AND        R11,R3        | MOV        R3,R2
 2000b70:	11 c0 00 14 	ASR        $20,R2
 2000b74:	95 b0 9d 0c 	SW         R2,(R6)       | SW         R3,$12(SP)
 2000b78:	95 08 8d 04 	SW         R2,$8(SP)     | SW         R1,$4(SP)
 2000b7c:	54 c7 40 00 	SW         R10,(SP)
 2000b80:	87 fa fc f8 	JSR        0x02001a08     // 2001a08 <printf>
 2000b84:	02 00 1a 08 
 2000b88:	aa 04 b2 04 	ADD        $4,R5         | ADD        $4,R6
 2000b8c:	ba 01 cb b8 	ADD        $1,R7         | CMP        R7,R9
 2000b90:	78 b3 ff d4 	BGE        @0x02000b68    // 2000b68 <split+0xec>
 2000b94:	3c 06 00 00 	CMP        R8,R7
 2000b98:	78 b3 ff a0 	BGE        @0x02000b3c    // 2000b3c <split+0xc0>
 2000b9c:	52 00 0f f8 	BREV       $4088,R10
 2000ba0:	4a 03 00 40 	LDI        0x0200ef1c,R9  // 200ef1c <__call_exitprocs+0x1bc>
 2000ba4:	4a 40 ef 1c 
 2000ba8:	8c a8 9f 88 	LW         (R5),R1       | MOV        R1,R3
 2000bac:	99 d0 97 98 	AND        R10,R3        | MOV        R3,R2
 2000bb0:	11 c0 00 14 	ASR        $20,R2
 2000bb4:	14 c5 80 00 	SW         R2,(R6)
 2000bb8:	3c 00 ff fd 	CMP        $65533,R7
 2000bbc:	78 90 00 10 	BLT        @0x02000bd0    // 2000bd0 <split+0x154>
 2000bc0:	9d 0c 95 08 	SW         R3,$12(SP)    | SW         R2,$8(SP)
 2000bc4:	8d 04 cd 00 	SW         R1,$4(SP)     | SW         R9,(SP)
 2000bc8:	87 fa fc f8 	JSR        0x02001a08     // 2001a08 <printf>
 2000bcc:	02 00 1a 08 
 2000bd0:	aa 04 b2 04 	ADD        $4,R5         | ADD        $4,R6
 2000bd4:	ba 01 c3 b8 	ADD        $1,R7         | CMP        R7,R8
 2000bd8:	78 ab ff cc 	BNZ        @0x02000ba8    // 2000ba8 <split+0x12c>
 2000bdc:	84 10 ac 14 	LW         16(SP),R0     | LW         20(SP),R5
 2000be0:	b4 18 bc 1c 	LW         24(SP),R6     | LW         28(SP),R7
 2000be4:	c4 20 cc 24 	LW         32(SP),R8     | LW         36(SP),R9
 2000be8:	d4 28 dc 2c 	LW         40(SP),R10    | LW         44(SP),R11
 2000bec:	ea 30 ff 80 	ADD        $48,SP        | RTN
 2000bf0:	7b 40 00 00 	RTN
 2000bf4:	8b 02 be 00 	CMP        $2,R1         | CLR        R7
 2000bf8:	4a 03 00 40 	LDI        0x0200ef1c,R9  // 200ef1c <__call_exitprocs+0x1bc>
 2000bfc:	4a 40 ef 1c 
 2000c00:	78 a8 00 68 	BNZ        @0x02000c6c    // 2000c6c <split+0x1f0>
 2000c04:	94 a8 8f 90 	LW         (R5),R2       | MOV        R2,R1
 2000c08:	08 40 01 ff 	AND        $511,R1
 2000c0c:	8d b0 bb 04 	SW         R1,(R6)       | CMP        $4,R7
 2000c10:	78 90 00 08 	BLT        @0x02000c1c    // 2000c1c <split+0x1a0>
 2000c14:	3c 00 ff fd 	CMP        $65533,R7
 2000c18:	78 90 00 10 	BLT        @0x02000c2c    // 2000c2c <split+0x1b0>
 2000c1c:	8d 0c 8d 08 	SW         R1,$12(SP)    | SW         R1,$8(SP)
 2000c20:	95 04 cd 00 	SW         R2,$4(SP)     | SW         R9,(SP)
 2000c24:	87 fa fc f8 	JSR        0x02001a08     // 2001a08 <printf>
 2000c28:	02 00 1a 08 
 2000c2c:	aa 04 b2 04 	ADD        $4,R5         | ADD        $4,R6
 2000c30:	ba 01 c3 b8 	ADD        $1,R7         | CMP        R7,R8
 2000c34:	78 ab ff cc 	BNZ        @0x02000c04    // 2000c04 <split+0x188>
 2000c38:	84 10 ac 14 	LW         16(SP),R0     | LW         20(SP),R5
 2000c3c:	b4 18 bc 1c 	LW         24(SP),R6     | LW         28(SP),R7
 2000c40:	c4 20 cc 24 	LW         32(SP),R8     | LW         36(SP),R9
 2000c44:	d4 28 dc 2c 	LW         40(SP),R10    | LW         44(SP),R11
 2000c48:	ea 30 ff 80 	ADD        $48,SP        | RTN
 2000c4c:	95 0c 86 00 	SW         R2,$12(SP)    | CLR        R0
 2000c50:	85 08 8d 04 	SW         R0,$8(SP)     | SW         R1,$4(SP)
 2000c54:	4c c7 40 00 	SW         R9,(SP)
 2000c58:	87 fa fc f8 	JSR        0x02001a08     // 2001a08 <printf>
 2000c5c:	02 00 1a 08 
 2000c60:	aa 04 b2 04 	ADD        $4,R5         | ADD        $4,R6
 2000c64:	ba 01 c3 b8 	ADD        $1,R7         | CMP        R7,R8
 2000c68:	78 8b fe d0 	BZ         @0x02000b3c    // 2000b3c <split+0xc0>
 2000c6c:	8c a8 96 00 	LW         (R5),R1       | CLR        R2
 2000c70:	95 b0 bb 04 	SW         R2,(R6)       | CMP        $4,R7
 2000c74:	78 93 ff d4 	BLT        @0x02000c4c    // 2000c4c <split+0x1d0>
 2000c78:	3c 00 ff fd 	CMP        $65533,R7
 2000c7c:	78 93 ff e0 	BLT        @0x02000c60    // 2000c60 <split+0x1e4>
 2000c80:	95 0c 95 08 	SW         R2,$12(SP)    | SW         R2,$8(SP)
 2000c84:	8d 04 cd 00 	SW         R1,$4(SP)     | SW         R9,(SP)
 2000c88:	87 fa fc f8 	JSR        0x02001a08     // 2001a08 <printf>
 2000c8c:	02 00 1a 08 
 2000c90:	aa 04 b2 04 	ADD        $4,R5         | ADD        $4,R6
 2000c94:	ba 01 c3 b8 	ADD        $1,R7         | CMP        R7,R8
 2000c98:	78 ab ff d0 	BNZ        @0x02000c6c    // 2000c6c <split+0x1f0>
 2000c9c:	78 83 fe 9c 	BRA        @0x02000b3c    // 2000b3c <split+0xc0>

02000ca0 <malloc>:
 2000ca0:	e8 04 85 00 	SUB        $4,SP         | SW         R0,(SP)
 2000ca4:	13 40 40 00 	MOV        R1,R2
 2000ca8:	0a 03 00 40 	LDI        0x0200f840,R1  // 200f840 <_impure_ptr>
 2000cac:	0a 40 f8 40 
 2000cb0:	8c 88 84 00 	LW         (R1),R1       | LW         (SP),R0
 2000cb4:	68 80 00 04 	ADD        $4,SP
 2000cb8:	7c 87 c0 00 	LJMP       @0x02000ce0    // 2000ce0 <_malloc_r>
 2000cbc:	02 00 0c e0 

02000cc0 <free>:
 2000cc0:	e8 04 85 00 	SUB        $4,SP         | SW         R0,(SP)
 2000cc4:	13 40 40 00 	MOV        R1,R2
 2000cc8:	0a 03 00 40 	LDI        0x0200f840,R1  // 200f840 <_impure_ptr>
 2000ccc:	0a 40 f8 40 
 2000cd0:	8c 88 84 00 	LW         (R1),R1       | LW         (SP),R0
 2000cd4:	68 80 00 04 	ADD        $4,SP
 2000cd8:	7c 87 c0 00 	LJMP       @0x020066a8    // 20066a8 <_free_r>
 2000cdc:	02 00 66 a8 

02000ce0 <_malloc_r>:
 2000ce0:	68 00 00 40 	SUB        $64,SP
 2000ce4:	85 1c ad 20 	SW         R0,$28(SP)    | SW         R5,$32(SP)
 2000ce8:	b5 24 bd 28 	SW         R6,$36(SP)    | SW         R7,$40(SP)
 2000cec:	c5 2c cd 30 	SW         R8,$44(SP)    | SW         R9,$48(SP)
 2000cf0:	d5 34 dd 38 	SW         R10,$52(SP)   | SW         R11,$56(SP)
 2000cf4:	e5 3c e7 88 	SW         R12,$60(SP)   | MOV        R1,R12
 2000cf8:	1b 40 80 0b 	MOV        $11+R2,R3
 2000cfc:	1c 00 00 17 	CMP        $23,R3
 2000d00:	78 b8 00 84 	BNC        @0x02000d88    // 2000d88 <_malloc_r+0xa8>
 2000d04:	14 00 00 11 	CMP        $17,R2
 2000d08:	78 b8 02 bc 	BNC        @0x02000fc8    // 2000fc8 <_malloc_r+0x2e8>
 2000d0c:	87 fa fc f8 	JSR        0x020019e0     // 20019e0 <__malloc_lock>
 2000d10:	02 00 19 e0 
 2000d14:	96 02 8e 18 	LDI        $2,R2         | LDI        $24,R1
 2000d18:	36 00 00 10 	LDI        $16,R6
 2000d1c:	3a 03 00 40 	LDI        0x0200f438,R7  // 200f438 <__malloc_av_>
 2000d20:	3a 40 f4 38 
 2000d24:	87 b8 82 88 	MOV        R7,R0         | ADD        R1,R0
 2000d28:	2c 84 00 04 	LW         4(R0),R5
 2000d2c:	2c 04 3f f8 	CMP        $-8+R0,R5
 2000d30:	78 88 02 b8 	BZ         @0x02000fec    // 2000fec <_malloc_r+0x30c>
 2000d34:	04 85 40 04 	LW         4(R5),R0
 2000d38:	00 43 ff fc 	AND        $-4,R0
 2000d3c:	0c 85 40 0c 	LW         12(R5),R1
 2000d40:	14 85 40 08 	LW         8(R5),R2
 2000d44:	0c c4 80 0c 	SW         R1,$12(R2)
 2000d48:	14 c4 40 08 	SW         R2,$8(R1)
 2000d4c:	8f a8 8a 80 	MOV        R5,R1         | ADD        R0,R1
 2000d50:	04 84 40 04 	LW         4(R1),R0
 2000d54:	00 c0 00 01 	OR         $1,R0
 2000d58:	04 c4 40 04 	SW         R0,$4(R1)
 2000d5c:	0b 43 00 00 	MOV        R12,R1
 2000d60:	87 fa fc f8 	JSR        0x020019e4     // 20019e4 <__malloc_unlock>
 2000d64:	02 00 19 e4 
 2000d68:	aa 08 8f a8 	ADD        $8,R5         | MOV        R5,R1
 2000d6c:	84 1c ac 20 	LW         28(SP),R0     | LW         32(SP),R5
 2000d70:	b4 24 bc 28 	LW         36(SP),R6     | LW         40(SP),R7
 2000d74:	c4 2c cc 30 	LW         44(SP),R8     | LW         48(SP),R9
 2000d78:	d4 34 dc 38 	LW         52(SP),R10    | LW         56(SP),R11
 2000d7c:	64 87 40 3c 	LW         60(SP),R12
 2000d80:	68 80 00 40 	ADD        $64,SP
 2000d84:	7b 40 00 00 	RTN
 2000d88:	b7 98 b1 78 	MOV        R3,R6         | AND        $-8,R6
 2000d8c:	19 40 00 1f 	LSR        $31,R3
 2000d90:	b3 90 96 00 	CMP        R2,R6         | CLR        R2
 2000d94:	10 d8 00 01 	OR.C       $1,R2
 2000d98:	10 c4 c0 00 	OR         R3,R2
 2000d9c:	78 a8 02 28 	BNZ        @0x02000fc8    // 2000fc8 <_malloc_r+0x2e8>
 2000da0:	87 fa fc f8 	JSR        0x020019e0     // 20019e0 <__malloc_lock>
 2000da4:	02 00 19 e0 
 2000da8:	34 00 01 f8 	CMP        $504,R6
 2000dac:	78 98 06 c8 	BC         @0x02001478    // 2001478 <_malloc_r+0x798>
 2000db0:	03 41 80 00 	MOV        R6,R0
 2000db4:	01 40 00 09 	LSR        $9,R0
 2000db8:	0e 00 02 00 	LDI        $512,R1
 2000dbc:	9e 40 96 3f 	LDI        $64,R3        | LDI        $63,R2
 2000dc0:	78 88 00 20 	BZ         @0x02000de4    // 2000de4 <_malloc_r+0x104>
 2000dc4:	04 00 00 05 	CMP        $5,R0
 2000dc8:	78 b8 05 68 	BNC        @0x02001334    // 2001334 <_malloc_r+0x654>
 2000dcc:	03 41 80 00 	MOV        R6,R0
 2000dd0:	01 40 00 06 	LSR        $6,R0
 2000dd4:	13 40 00 38 	MOV        $56+R0,R2
 2000dd8:	1b 40 00 39 	MOV        $57+R0,R3
 2000ddc:	0b 40 c0 00 	MOV        R3,R1
 2000de0:	09 80 00 03 	LSL        $3,R1
 2000de4:	3a 03 00 40 	LDI        0x0200f438,R7  // 200f438 <__malloc_av_>
 2000de8:	3a 40 f4 38 
 2000dec:	87 b8 82 88 	MOV        R7,R0         | ADD        R1,R0
 2000df0:	0b 40 1f f8 	MOV        $-8+R0,R1
 2000df4:	2c 84 00 04 	LW         4(R0),R5
 2000df8:	0c 05 40 00 	CMP        R5,R1
 2000dfc:	78 88 04 74 	BZ         @0x02001274    // 2001274 <_malloc_r+0x594>
 2000e00:	04 85 40 04 	LW         4(R5),R0
 2000e04:	81 7c 83 b0 	AND        $-4,R0        | CMP        R6,R0
 2000e08:	78 98 04 5c 	BC         @0x02001268    // 2001268 <_malloc_r+0x588>
 2000e0c:	8f 80 88 b0 	MOV        R0,R1         | SUB        R6,R1
 2000e10:	0c 00 00 10 	CMP        $16,R1
 2000e14:	78 9b ff 24 	BC         @0x02000d3c    // 2000d3c <_malloc_r+0x5c>
 2000e18:	44 85 c0 10 	LW         16(R7),R8
 2000e1c:	0a 03 00 40 	LDI        0x0200f440,R1  // 200f440 <__malloc_av_+0x8>
 2000e20:	0a 40 f4 40 
 2000e24:	44 04 40 00 	CMP        R1,R8
 2000e28:	78 88 01 e0 	BZ         @0x0200100c    // 200100c <_malloc_r+0x32c>
 2000e2c:	04 86 00 04 	LW         4(R8),R0
 2000e30:	81 7c 83 b0 	AND        $-4,R0        | CMP        R6,R0
 2000e34:	78 b8 04 44 	BNC        @0x0200127c    // 200127c <_malloc_r+0x59c>
 2000e38:	0c c5 c0 14 	SW         R1,$20(R7)
 2000e3c:	0c c5 c0 10 	SW         R1,$16(R7)
 2000e40:	04 00 02 00 	CMP        $512,R0
 2000e44:	78 b8 04 84 	BNC        @0x020012cc    // 20012cc <_malloc_r+0x5ec>
 2000e48:	0b 40 00 00 	MOV        R0,R1
 2000e4c:	09 40 00 03 	LSR        $3,R1
 2000e50:	01 40 00 05 	LSR        $5,R0
 2000e54:	1b 40 1f e0 	MOV        $-32+R0,R3
 2000e58:	1c 00 00 00 	CMP        $0,R3
 2000e5c:	2a 30 00 00 	CLR.GE     $0,R5
 2000e60:	2a 10 00 00 	LDI.LT     0x00000001,R5  // 1 <_rom+0x1>
 2000e64:	2a 50 00 01 
 2000e68:	29 94 00 00 	LSL.LT     R0,R5
 2000e6c:	1c 85 c0 04 	LW         4(R7),R3
 2000e70:	18 c5 40 00 	OR         R5,R3
 2000e74:	1c c5 c0 04 	SW         R3,$4(R7)
 2000e78:	03 40 40 01 	MOV        $1+R1,R0
 2000e7c:	01 80 00 03 	LSL        $3,R0
 2000e80:	8f b8 8a 80 	MOV        R7,R1         | ADD        R0,R1
 2000e84:	04 84 40 00 	LW         (R1),R0
 2000e88:	2b 40 5f f8 	MOV        $-8+R1,R5
 2000e8c:	2c c6 00 0c 	SW         R5,$12(R8)
 2000e90:	04 c6 00 08 	SW         R0,$8(R8)
 2000e94:	44 c4 40 00 	SW         R8,(R1)
 2000e98:	44 c4 00 0c 	SW         R8,$12(R0)
 2000e9c:	43 40 80 00 	MOV        R2,R8
 2000ea0:	41 c0 00 02 	ASR        $2,R8
 2000ea4:	2b 42 1f e0 	MOV        $-32+R8,R5
 2000ea8:	86 00 8e 00 	CLR        R0            | CLR        R1
 2000eac:	2c 00 00 00 	CMP        $0,R5
 2000eb0:	78 90 01 74 	BLT        @0x02001028    // 2001028 <_malloc_r+0x348>
 2000eb4:	46 00 00 01 	LDI        $1,R8
 2000eb8:	41 85 40 00 	LSL        R5,R8
 2000ebc:	87 c0 8e 00 	MOV        R8,R0         | CLR        R1
 2000ec0:	cf 98 c6 00 	MOV        R3,R9         | CLR        R8
 2000ec4:	44 04 00 00 	CMP        R0,R8
 2000ec8:	4c 0c 40 00 	CMP.Z      R1,R9
 2000ecc:	78 98 01 74 	BC         @0x02001044    // 2001044 <_malloc_r+0x364>
 2000ed0:	d7 c0 df c8 	MOV        R8,R10        | MOV        R9,R11
 2000ed4:	d9 88 d1 80 	AND        R1,R11        | AND        R0,R10
 2000ed8:	54 00 00 00 	CMP        $0,R10
 2000edc:	5c 08 00 00 	CMP.Z      $0,R11
 2000ee0:	78 a8 00 3c 	BNZ        @0x02000f20    // 2000f20 <_malloc_r+0x240>
 2000ee4:	91 7c 92 04 	AND        $-4,R2        | ADD        $4,R2
 2000ee8:	08 84 40 00 	ADD        R1,R1
 2000eec:	00 98 00 01 	ADD.C      $1,R0
 2000ef0:	82 80 d7 c0 	ADD        R0,R0         | MOV        R8,R10
 2000ef4:	df c8 d9 88 	MOV        R9,R11        | AND        R1,R11
 2000ef8:	d1 80 d3 00 	AND        R0,R10        | CMP        $0,R10
 2000efc:	5c 08 00 00 	CMP.Z      $0,R11
 2000f00:	78 a8 00 1c 	BNZ        @0x02000f20    // 2000f20 <_malloc_r+0x240>
 2000f04:	92 04 8a 88 	ADD        $4,R2         | ADD        R1,R1
 2000f08:	00 98 00 01 	ADD.C      $1,R0
 2000f0c:	82 80 a7 c0 	ADD        R0,R0         | MOV        R8,R4
 2000f10:	af c8 a9 88 	MOV        R9,R5         | AND        R1,R5
 2000f14:	a1 80 a3 00 	AND        R0,R4         | CMP        $0,R4
 2000f18:	2c 08 00 00 	CMP.Z      $0,R5
 2000f1c:	78 8b ff e4 	BZ         @0x02000f04    // 2000f04 <_malloc_r+0x224>
 2000f20:	a6 00 9f 90 	CLR        R4            | MOV        R2,R3
 2000f24:	19 80 00 03 	LSL        $3,R3
 2000f28:	df b8 da 98 	MOV        R7,R11        | ADD        R3,R11
 2000f2c:	af d8 d7 90 	MOV        R11,R5        | MOV        R2,R10
 2000f30:	1c 85 40 0c 	LW         12(R5),R3
 2000f34:	2c 04 c0 00 	CMP        R3,R5
 2000f38:	78 88 04 40 	BZ         @0x0200137c    // 200137c <_malloc_r+0x69c>
 2000f3c:	44 84 c0 04 	LW         4(R3),R8
 2000f40:	c1 7c cf 98 	AND        $-4,R8        | MOV        R3,R9
 2000f44:	1c 84 c0 0c 	LW         12(R3),R3
 2000f48:	44 05 80 00 	CMP        R6,R8
 2000f4c:	78 9b ff e4 	BC         @0x02000f34    // 2000f34 <_malloc_r+0x254>
 2000f50:	87 c0 80 b0 	MOV        R8,R0         | SUB        R6,R0
 2000f54:	04 00 00 10 	CMP        $16,R0
 2000f58:	78 98 04 d4 	BC         @0x02001430    // 2001430 <_malloc_r+0x750>
 2000f5c:	14 86 40 08 	LW         8(R9),R2
 2000f60:	2b 42 40 08 	MOV        $8+R9,R5
 2000f64:	8f c8 8a b0 	MOV        R9,R1         | ADD        R6,R1
 2000f68:	30 c0 00 01 	OR         $1,R6
 2000f6c:	34 c6 40 04 	SW         R6,$4(R9)
 2000f70:	1c c4 80 0c 	SW         R3,$12(R2)
 2000f74:	14 c4 c0 08 	SW         R2,$8(R3)
 2000f78:	0c c5 c0 14 	SW         R1,$20(R7)
 2000f7c:	0c c5 c0 10 	SW         R1,$16(R7)
 2000f80:	12 03 00 40 	LDI        0x0200f440,R2  // 200f440 <__malloc_av_+0x8>
 2000f84:	12 40 f4 40 
 2000f88:	14 c4 40 0c 	SW         R2,$12(R1)
 2000f8c:	14 c4 40 08 	SW         R2,$8(R1)
 2000f90:	13 40 00 00 	MOV        R0,R2
 2000f94:	10 c0 00 01 	OR         $1,R2
 2000f98:	14 c4 40 04 	SW         R2,$4(R1)
 2000f9c:	ca c0 85 c8 	ADD        R8,R9         | SW         R0,(R9)
 2000fa0:	0b 43 00 00 	MOV        R12,R1
 2000fa4:	87 fa fc f8 	JSR        0x020019e4     // 20019e4 <__malloc_unlock>
 2000fa8:	02 00 19 e4 
 2000fac:	8f a8 84 1c 	MOV        R5,R1         | LW         28(SP),R0
 2000fb0:	ac 20 b4 24 	LW         32(SP),R5     | LW         36(SP),R6
 2000fb4:	bc 28 c4 2c 	LW         40(SP),R7     | LW         44(SP),R8
 2000fb8:	cc 30 d4 34 	LW         48(SP),R9     | LW         52(SP),R10
 2000fbc:	dc 38 e4 3c 	LW         56(SP),R11    | LW         60(SP),R12
 2000fc0:	68 80 00 40 	ADD        $64,SP
 2000fc4:	7b 40 00 00 	RTN
 2000fc8:	8e 0c 8d e0 	LDI        $12,R1        | SW         R1,(R12)
 2000fcc:	ae 00 8e 00 	CLR        R5            | CLR        R1
 2000fd0:	84 1c ac 20 	LW         28(SP),R0     | LW         32(SP),R5
 2000fd4:	b4 24 bc 28 	LW         36(SP),R6     | LW         40(SP),R7
 2000fd8:	c4 2c cc 30 	LW         44(SP),R8     | LW         48(SP),R9
 2000fdc:	d4 34 dc 38 	LW         52(SP),R10    | LW         56(SP),R11
 2000fe0:	64 87 40 3c 	LW         60(SP),R12
 2000fe4:	68 80 00 40 	ADD        $64,SP
 2000fe8:	7b 40 00 00 	RTN
 2000fec:	2c 84 00 0c 	LW         12(R0),R5
 2000ff0:	92 02 83 a8 	ADD        $2,R2         | CMP        R5,R0
 2000ff4:	78 ab fd 3c 	BNZ        @0x02000d34    // 2000d34 <_malloc_r+0x54>
 2000ff8:	44 85 c0 10 	LW         16(R7),R8
 2000ffc:	0a 03 00 40 	LDI        0x0200f440,R1  // 200f440 <__malloc_av_+0x8>
 2001000:	0a 40 f4 40 
 2001004:	44 04 40 00 	CMP        R1,R8
 2001008:	78 ab fe 20 	BNZ        @0x02000e2c    // 2000e2c <_malloc_r+0x14c>
 200100c:	1c 85 c0 04 	LW         4(R7),R3
 2001010:	43 40 80 00 	MOV        R2,R8
 2001014:	41 c0 00 02 	ASR        $2,R8
 2001018:	2b 42 1f e0 	MOV        $-32+R8,R5
 200101c:	86 00 8e 00 	CLR        R0            | CLR        R1
 2001020:	2c 00 00 00 	CMP        $0,R5
 2001024:	78 b3 fe 8c 	BGE        @0x02000eb4    // 2000eb4 <_malloc_r+0x1d4>
 2001028:	2e 00 00 01 	LDI        $1,R5
 200102c:	29 86 00 00 	LSL        R8,R5
 2001030:	8f a8 cf 98 	MOV        R5,R1         | MOV        R3,R9
 2001034:	c6 00 c3 80 	CLR        R8            | CMP        R0,R8
 2001038:	78 98 00 08 	BC         @0x02001044    // 2001044 <_malloc_r+0x364>
 200103c:	4c 0c 40 00 	CMP.Z      R1,R9
 2001040:	78 bb fe 8c 	BNC        @0x02000ed0    // 2000ed0 <_malloc_r+0x1f0>
 2001044:	2c 85 c0 08 	LW         8(R7),R5
 2001048:	4c 85 40 04 	LW         4(R5),R9
 200104c:	c9 7c cb b0 	AND        $-4,R9        | CMP        R6,R9
 2001050:	78 98 00 20 	BC         @0x02001074    // 2001074 <_malloc_r+0x394>
 2001054:	87 c8 80 b0 	MOV        R9,R0         | SUB        R6,R0
 2001058:	85 04 86 00 	SW         R0,$4(SP)     | CLR        R0
 200105c:	85 00 84 00 	SW         R0,(SP)       | LW         (SP),R0
 2001060:	8c 04 83 00 	LW         4(SP),R1      | CMP        $0,R0
 2001064:	78 90 00 0c 	BLT        @0x02001074    // 2001074 <_malloc_r+0x394>
 2001068:	78 a8 01 b0 	BNZ        @0x0200121c    // 200121c <_malloc_r+0x53c>
 200106c:	0c 00 00 10 	CMP        $16,R1
 2001070:	78 b8 01 a8 	BNC        @0x0200121c    // 200121c <_malloc_r+0x53c>
 2001074:	a7 a8 a2 c8 	MOV        R5,R4         | ADD        R9,R4
 2001078:	02 03 20 40 	LDI        0x0204fe58,R0  // 204fe58 <__malloc_top_pad>
 200107c:	02 40 fe 58 
 2001080:	04 84 00 04 	LW         4(R0),R0
 2001084:	c7 b0 c2 80 	MOV        R6,R8         | ADD        R0,R8
 2001088:	1a 03 00 40 	LDI        0x0200f42c,R3  // 200f42c <__malloc_sbrk_base>
 200108c:	1a 40 f4 2c 
 2001090:	84 98 83 7f 	LW         (R3),R0       | CMP        $-1,R0
 2001094:	78 88 05 5c 	BZ         @0x020015f4    // 20015f4 <_malloc_r+0x914>
 2001098:	40 80 10 0f 	ADD        $4111,R8
 200109c:	40 43 f0 00 	AND        $-4096,R8
 20010a0:	9d 10 a5 08 	SW         R3,$16(SP)    | SW         R4,$8(SP)
 20010a4:	97 c0 8f e0 	MOV        R8,R2         | MOV        R12,R1
 20010a8:	87 fa fc f8 	JSR        0x0200ceb0     // 200ceb0 <_sbrk_r>
 20010ac:	02 00 ce b0 
 20010b0:	d7 88 8b 7f 	MOV        R1,R10        | CMP        $-1,R1
 20010b4:	a4 08 9c 10 	LW         8(SP),R4      | LW         16(SP),R3
 20010b8:	78 88 05 2c 	BZ         @0x020015e8    // 20015e8 <_malloc_r+0x908>
 20010bc:	ab b8 86 00 	CMP        R7,R5         | CLR        R0
 20010c0:	00 e8 00 01 	OR.NZ      $1,R0
 20010c4:	8b a0 8e 00 	CMP        R4,R1         | CLR        R1
 20010c8:	08 d8 00 01 	OR.C       $1,R1
 20010cc:	00 44 40 00 	AND        R1,R0
 20010d0:	78 a8 05 14 	BNZ        @0x020015e8    // 20015e8 <_malloc_r+0x908>
 20010d4:	5a 03 20 40 	LDI        0x0204fe20,R11 // 204fe20 <__malloc_current_mallinfo>
 20010d8:	5a 40 fe 20 
 20010dc:	84 d8 8f c0 	LW         (R11),R0      | MOV        R8,R1
 20010e0:	8a 80 8d d8 	ADD        R0,R1         | SW         R1,(R11)
 20010e4:	24 06 80 00 	CMP        R10,R4
 20010e8:	78 88 04 a0 	BZ         @0x0200158c    // 200158c <_malloc_r+0x8ac>
 20010ec:	84 98 83 7f 	LW         (R3),R0       | CMP        $-1,R0
 20010f0:	78 88 04 ec 	BZ         @0x020015e0    // 20015e0 <_malloc_r+0x900>
 20010f4:	87 d0 80 a0 	MOV        R10,R0        | SUB        R4,R0
 20010f8:	82 88 85 d8 	ADD        R1,R0         | SW         R0,(R11)
 20010fc:	a7 d0 a1 07 	MOV        R10,R4        | AND        $7,R4
 2001100:	78 88 04 f8 	BZ         @0x020015fc    // 20015fc <_malloc_r+0x91c>
 2001104:	50 05 00 00 	SUB        R4,R10
 2001108:	53 42 80 08 	MOV        $8+R10,R10
 200110c:	9f d0 9a c0 	MOV        R10,R3        | ADD        R8,R3
 2001110:	16 00 10 08 	LDI        $4104,R2
 2001114:	90 a0 a5 10 	SUB        R4,R2         | SW         R4,$16(SP)
 2001118:	90 98 9d 08 	SUB        R3,R2         | SW         R3,$8(SP)
 200111c:	10 40 0f ff 	AND        $4095,R2
 2001120:	95 18 8f e0 	SW         R2,$24(SP)    | MOV        R12,R1
 2001124:	87 fa fc f8 	JSR        0x0200ceb0     // 200ceb0 <_sbrk_r>
 2001128:	02 00 ce b0 
 200112c:	8b 7f 9c 08 	CMP        $-1,R1        | LW         8(SP),R3
 2001130:	24 87 40 10 	LW         16(SP),R4
 2001134:	78 88 06 10 	BZ         @0x02001748    // 2001748 <_malloc_r+0xa68>
 2001138:	88 d0 94 18 	SUB        R10,R1        | LW         24(SP),R2
 200113c:	8a 90 c7 88 	ADD        R2,R1         | MOV        R1,R8
 2001140:	84 d8 8f 90 	LW         (R11),R0      | MOV        R2,R1
 2001144:	8a 80 8d d8 	ADD        R0,R1         | SW         R1,(R11)
 2001148:	54 c5 c0 08 	SW         R10,$8(R7)
 200114c:	40 c0 00 01 	OR         $1,R8
 2001150:	44 c6 80 04 	SW         R8,$4(R10)
 2001154:	2c 05 c0 00 	CMP        R7,R5
 2001158:	78 88 05 44 	BZ         @0x020016a0    // 20016a0 <_malloc_r+0x9c0>
 200115c:	4c 00 00 10 	CMP        $16,R9
 2001160:	78 98 04 48 	BC         @0x020015ac    // 20015ac <_malloc_r+0x8cc>
 2001164:	ca 74 c9 78 	ADD        $-12,R9       | AND        $-8,R9
 2001168:	04 85 40 04 	LW         4(R5),R0
 200116c:	00 40 00 01 	AND        $1,R0
 2001170:	00 c6 40 00 	OR         R9,R0
 2001174:	04 c5 40 04 	SW         R0,$4(R5)
 2001178:	87 a8 82 c8 	MOV        R5,R0         | ADD        R9,R0
 200117c:	16 00 00 05 	LDI        $5,R2
 2001180:	14 c4 00 04 	SW         R2,$4(R0)
 2001184:	14 c4 00 08 	SW         R2,$8(R0)
 2001188:	4c 00 00 10 	CMP        $16,R9
 200118c:	78 b8 05 90 	BNC        @0x02001720    // 2001720 <_malloc_r+0xa40>
 2001190:	44 86 80 04 	LW         4(R10),R8
 2001194:	2b 42 80 00 	MOV        R10,R5
 2001198:	1b 40 40 00 	MOV        R1,R3
 200119c:	09 c0 00 1f 	ASR        $31,R1
 20011a0:	13 40 40 00 	MOV        R1,R2
 20011a4:	02 03 20 40 	LDI        0x0204fe50,R0  // 204fe50 <__malloc_max_sbrked_mem>
 20011a8:	02 40 fe 50 
 20011ac:	4c 84 00 00 	LW         (R0),R9
 20011b0:	54 84 00 04 	LW         4(R0),R10
 20011b4:	4c 04 80 00 	CMP        R2,R9
 20011b8:	78 98 00 08 	BC         @0x020011c4    // 20011c4 <_malloc_r+0x4e4>
 20011bc:	54 0c c0 00 	CMP.Z      R3,R10
 20011c0:	78 b8 00 08 	BNC        @0x020011cc    // 20011cc <_malloc_r+0x4ec>
 20011c4:	14 c4 00 00 	SW         R2,(R0)
 20011c8:	1c c4 00 04 	SW         R3,$4(R0)
 20011cc:	02 03 20 40 	LDI        0x0204fe48,R0  // 204fe48 <__malloc_max_total_mem>
 20011d0:	02 40 fe 48 
 20011d4:	4c 84 00 00 	LW         (R0),R9
 20011d8:	54 84 00 04 	LW         4(R0),R10
 20011dc:	4c 04 80 00 	CMP        R2,R9
 20011e0:	78 98 00 08 	BC         @0x020011ec    // 20011ec <_malloc_r+0x50c>
 20011e4:	54 0c c0 00 	CMP.Z      R3,R10
 20011e8:	78 b8 00 08 	BNC        @0x020011f4    // 20011f4 <_malloc_r+0x514>
 20011ec:	14 c4 00 00 	SW         R2,(R0)
 20011f0:	1c c4 00 04 	SW         R3,$4(R0)
 20011f4:	c1 7c c3 b0 	AND        $-4,R8        | CMP        R6,R8
 20011f8:	78 98 03 b8 	BC         @0x020015b4    // 20015b4 <_malloc_r+0x8d4>
 20011fc:	c0 b0 c5 04 	SUB        R6,R8         | SW         R8,$4(SP)
 2001200:	86 00 85 00 	CLR        R0            | SW         R0,(SP)
 2001204:	84 00 8c 04 	LW         (SP),R0       | LW         4(SP),R1
 2001208:	04 00 00 00 	CMP        $0,R0
 200120c:	78 90 03 a4 	BLT        @0x020015b4    // 20015b4 <_malloc_r+0x8d4>
 2001210:	78 a8 00 08 	BNZ        @0x0200121c    // 200121c <_malloc_r+0x53c>
 2001214:	0c 00 00 0e 	CMP        $14,R1
 2001218:	78 98 03 98 	BC         @0x020015b4    // 20015b4 <_malloc_r+0x8d4>
 200121c:	03 41 80 00 	MOV        R6,R0
 2001220:	00 c0 00 01 	OR         $1,R0
 2001224:	04 c5 40 04 	SW         R0,$4(R5)
 2001228:	87 a8 82 b0 	MOV        R5,R0         | ADD        R6,R0
 200122c:	04 c5 c0 08 	SW         R0,$8(R7)
 2001230:	0c 87 40 04 	LW         4(SP),R1
 2001234:	08 c0 00 01 	OR         $1,R1
 2001238:	0c c4 00 04 	SW         R1,$4(R0)
 200123c:	0b 43 00 00 	MOV        R12,R1
 2001240:	87 fa fc f8 	JSR        0x020019e4     // 20019e4 <__malloc_unlock>
 2001244:	02 00 19 e4 
 2001248:	aa 08 8f a8 	ADD        $8,R5         | MOV        R5,R1
 200124c:	84 1c ac 20 	LW         28(SP),R0     | LW         32(SP),R5
 2001250:	b4 24 bc 28 	LW         36(SP),R6     | LW         40(SP),R7
 2001254:	c4 2c cc 30 	LW         44(SP),R8     | LW         48(SP),R9
 2001258:	d4 34 dc 38 	LW         52(SP),R10    | LW         56(SP),R11
 200125c:	64 87 40 3c 	LW         60(SP),R12
 2001260:	68 80 00 40 	ADD        $64,SP
 2001264:	7b 40 00 00 	RTN
 2001268:	2c 85 40 0c 	LW         12(R5),R5
 200126c:	0c 05 40 00 	CMP        R5,R1
 2001270:	78 ab fb 8c 	BNZ        @0x02000e00    // 2000e00 <_malloc_r+0x120>
 2001274:	13 40 c0 00 	MOV        R3,R2
 2001278:	78 83 fb 9c 	BRA        @0x02000e18    // 2000e18 <_malloc_r+0x138>
 200127c:	97 80 90 b0 	MOV        R0,R2         | SUB        R6,R2
 2001280:	14 00 00 10 	CMP        $16,R2
 2001284:	78 b8 02 18 	BNC        @0x020014a0    // 20014a0 <_malloc_r+0x7c0>
 2001288:	0c c5 c0 14 	SW         R1,$20(R7)
 200128c:	0c c5 c0 10 	SW         R1,$16(R7)
 2001290:	8f c0 8a 80 	MOV        R8,R1         | ADD        R0,R1
 2001294:	04 84 40 04 	LW         4(R1),R0
 2001298:	00 c0 00 01 	OR         $1,R0
 200129c:	04 c4 40 04 	SW         R0,$4(R1)
 20012a0:	0b 43 00 00 	MOV        R12,R1
 20012a4:	87 fa fc f8 	JSR        0x020019e4     // 20019e4 <__malloc_unlock>
 20012a8:	02 00 19 e4 
 20012ac:	2b 42 00 08 	MOV        $8+R8,R5
 20012b0:	8f a8 84 1c 	MOV        R5,R1         | LW         28(SP),R0
 20012b4:	ac 20 b4 24 	LW         32(SP),R5     | LW         36(SP),R6
 20012b8:	bc 28 c4 2c 	LW         40(SP),R7     | LW         44(SP),R8
 20012bc:	cc 30 d4 34 	LW         48(SP),R9     | LW         52(SP),R10
 20012c0:	dc 38 e4 3c 	LW         56(SP),R11    | LW         60(SP),R12
 20012c4:	68 80 00 40 	ADD        $64,SP
 20012c8:	7b 40 00 00 	RTN
 20012cc:	0b 40 00 00 	MOV        R0,R1
 20012d0:	09 40 00 09 	LSR        $9,R1
 20012d4:	0c 00 00 05 	CMP        $5,R1
 20012d8:	78 98 02 1c 	BC         @0x020014f8    // 20014f8 <_malloc_r+0x818>
 20012dc:	0c 00 00 15 	CMP        $21,R1
 20012e0:	78 b8 03 4c 	BNC        @0x02001630    // 2001630 <_malloc_r+0x950>
 20012e4:	1b 40 40 5b 	MOV        $91+R1,R3
 20012e8:	08 80 00 5c 	ADD        $92,R1
 20012ec:	09 80 00 03 	LSL        $3,R1
 20012f0:	cf b8 ca 88 	MOV        R7,R9         | ADD        R1,R9
 20012f4:	2b 42 5f f8 	MOV        $-8+R9,R5
 20012f8:	8c c8 ab 88 	LW         (R9),R1       | CMP        R1,R5
 20012fc:	78 88 02 50 	BZ         @0x02001550    // 2001550 <_malloc_r+0x870>
 2001300:	1c 84 40 04 	LW         4(R1),R3
 2001304:	99 7c 83 98 	AND        $-4,R3        | CMP        R3,R0
 2001308:	78 b8 00 0c 	BNC        @0x02001318    // 2001318 <_malloc_r+0x638>
 200130c:	0c 84 40 08 	LW         8(R1),R1
 2001310:	2c 04 40 00 	CMP        R1,R5
 2001314:	78 ab ff e8 	BNZ        @0x02001300    // 2001300 <_malloc_r+0x620>
 2001318:	2c 84 40 0c 	LW         12(R1),R5
 200131c:	1c 85 c0 04 	LW         4(R7),R3
 2001320:	2c c6 00 0c 	SW         R5,$12(R8)
 2001324:	0c c6 00 08 	SW         R1,$8(R8)
 2001328:	44 c5 40 08 	SW         R8,$8(R5)
 200132c:	44 c4 40 0c 	SW         R8,$12(R1)
 2001330:	78 83 fb 68 	BRA        @0x02000e9c    // 2000e9c <_malloc_r+0x1bc>
 2001334:	04 00 00 15 	CMP        $21,R0
 2001338:	78 98 01 e4 	BC         @0x02001520    // 2001520 <_malloc_r+0x840>
 200133c:	04 00 00 55 	CMP        $85,R0
 2001340:	78 b8 03 1c 	BNC        @0x02001660    // 2001660 <_malloc_r+0x980>
 2001344:	03 41 80 00 	MOV        R6,R0
 2001348:	01 40 00 0c 	LSR        $12,R0
 200134c:	13 40 00 6e 	MOV        $110+R0,R2
 2001350:	1b 40 00 6f 	MOV        $111+R0,R3
 2001354:	0b 40 c0 00 	MOV        R3,R1
 2001358:	09 80 00 03 	LSL        $3,R1
 200135c:	3a 03 00 40 	LDI        0x0200f438,R7  // 200f438 <__malloc_av_>
 2001360:	3a 40 f4 38 
 2001364:	87 b8 82 88 	MOV        R7,R0         | ADD        R1,R0
 2001368:	0b 40 1f f8 	MOV        $-8+R0,R1
 200136c:	2c 84 00 04 	LW         4(R0),R5
 2001370:	0c 05 40 00 	CMP        R5,R1
 2001374:	78 ab fa 88 	BNZ        @0x02000e00    // 2000e00 <_malloc_r+0x120>
 2001378:	78 83 fe f8 	BRA        @0x02001274    // 2001274 <_malloc_r+0x594>
 200137c:	aa 08 d2 01 	ADD        $8,R5         | ADD        $1,R10
 2001380:	9f d0 99 03 	MOV        R10,R3        | AND        $3,R3
 2001384:	78 ab fb a8 	BNZ        @0x02000f30    // 2000f30 <_malloc_r+0x250>
 2001388:	9f 90 99 03 	MOV        R2,R3         | AND        $3,R3
 200138c:	78 88 04 14 	BZ         @0x020017a4    // 20017a4 <_malloc_r+0xac4>
 2001390:	92 7f 9c d8 	ADD        $-1,R2        | LW         (R11),R3
 2001394:	da 78 9b d8 	ADD        $-8,R11       | CMP        R11,R3
 2001398:	78 8b ff ec 	BZ         @0x02001388    // 2001388 <_malloc_r+0x6a8>
 200139c:	2c 85 c0 04 	LW         4(R7),R5
 20013a0:	08 84 40 00 	ADD        R1,R1
 20013a4:	00 98 00 01 	ADD.C      $1,R0
 20013a8:	82 80 85 10 	ADD        R0,R0         | SW         R0,$16(SP)
 20013ac:	8d 14 ad 0c 	SW         R1,$20(SP)    | SW         R5,$12(SP)
 20013b0:	96 00 95 08 	CLR        R2            | SW         R2,$8(SP)
 20013b4:	2b 40 00 00 	MOV        R0,R5
 20013b8:	28 c4 40 00 	OR         R1,R5
 20013bc:	ab 90 94 08 	CMP        R2,R5         | LW         8(SP),R2
 20013c0:	9c 0c af 90 	LW         12(SP),R3     | MOV        R2,R5
 20013c4:	28 e8 00 01 	OR.NZ      $1,R5
 20013c8:	c6 01 93 80 	LDI        $1,R8         | CMP        R0,R2
 20013cc:	78 98 00 08 	BC         @0x020013d8    // 20013d8 <_malloc_r+0x6f8>
 20013d0:	1c 0c 40 00 	CMP.Z      R1,R3
 20013d4:	78 b8 00 04 	BNC        @0x020013dc    // 20013dc <_malloc_r+0x6fc>
 20013d8:	43 41 00 00 	MOV        R4,R8
 20013dc:	28 46 00 00 	AND        R8,R5
 20013e0:	28 40 00 ff 	AND        $255,R5
 20013e4:	78 8b fc 5c 	BZ         @0x02001044    // 2001044 <_malloc_r+0x364>
 20013e8:	c4 08 cc 0c 	LW         8(SP),R8      | LW         12(SP),R9
 20013ec:	94 10 9c 14 	LW         16(SP),R2     | LW         20(SP),R3
 20013f0:	99 c8 91 c0 	AND        R9,R3         | AND        R8,R2
 20013f4:	14 00 00 00 	CMP        $0,R2
 20013f8:	1c 08 00 00 	CMP.Z      $0,R3
 20013fc:	78 a8 00 1c 	BNZ        @0x0200141c    // 200141c <_malloc_r+0x73c>
 2001400:	d2 04 8a 88 	ADD        $4,R10        | ADD        R1,R1
 2001404:	00 98 00 01 	ADD.C      $1,R0
 2001408:	82 80 97 c0 	ADD        R0,R0         | MOV        R8,R2
 200140c:	9f c8 99 88 	MOV        R9,R3         | AND        R1,R3
 2001410:	91 80 93 00 	AND        R0,R2         | CMP        $0,R2
 2001414:	1c 08 00 00 	CMP.Z      $0,R3
 2001418:	78 8b ff e4 	BZ         @0x02001400    // 2001400 <_malloc_r+0x720>
 200141c:	97 d0 9f 90 	MOV        R10,R2        | MOV        R2,R3
 2001420:	19 80 00 03 	LSL        $3,R3
 2001424:	df b8 da 98 	MOV        R7,R11        | ADD        R3,R11
 2001428:	af d8 d7 90 	MOV        R11,R5        | MOV        R2,R10
 200142c:	78 83 fb 00 	BRA        @0x02000f30    // 2000f30 <_malloc_r+0x250>
 2001430:	8f c8 8a c0 	MOV        R9,R1         | ADD        R8,R1
 2001434:	04 84 40 04 	LW         4(R1),R0
 2001438:	00 c0 00 01 	OR         $1,R0
 200143c:	04 c4 40 04 	SW         R0,$4(R1)
 2001440:	04 86 40 08 	LW         8(R9),R0
 2001444:	1c c4 00 0c 	SW         R3,$12(R0)
 2001448:	04 c4 c0 08 	SW         R0,$8(R3)
 200144c:	0b 43 00 00 	MOV        R12,R1
 2001450:	87 fa fc f8 	JSR        0x020019e4     // 20019e4 <__malloc_unlock>
 2001454:	02 00 19 e4 
 2001458:	2b 42 40 08 	MOV        $8+R9,R5
 200145c:	8f a8 84 1c 	MOV        R5,R1         | LW         28(SP),R0
 2001460:	ac 20 b4 24 	LW         32(SP),R5     | LW         36(SP),R6
 2001464:	bc 28 c4 2c 	LW         40(SP),R7     | LW         44(SP),R8
 2001468:	cc 30 d4 34 	LW         48(SP),R9     | LW         52(SP),R10
 200146c:	dc 38 e4 3c 	LW         56(SP),R11    | LW         60(SP),R12
 2001470:	68 80 00 40 	ADD        $64,SP
 2001474:	7b 40 00 00 	RTN
 2001478:	13 41 80 00 	MOV        R6,R2
 200147c:	11 40 00 03 	LSR        $3,R2
 2001480:	0b 41 80 08 	MOV        $8+R6,R1
 2001484:	3a 03 00 40 	LDI        0x0200f438,R7  // 200f438 <__malloc_av_>
 2001488:	3a 40 f4 38 
 200148c:	87 b8 82 88 	MOV        R7,R0         | ADD        R1,R0
 2001490:	2c 84 00 04 	LW         4(R0),R5
 2001494:	2c 04 3f f8 	CMP        $-8+R0,R5
 2001498:	78 ab f8 98 	BNZ        @0x02000d34    // 2000d34 <_malloc_r+0x54>
 200149c:	78 83 fb 4c 	BRA        @0x02000fec    // 2000fec <_malloc_r+0x30c>
 20014a0:	2b 42 00 08 	MOV        $8+R8,R5
 20014a4:	9f c0 9a b0 	MOV        R8,R3         | ADD        R6,R3
 20014a8:	30 c0 00 01 	OR         $1,R6
 20014ac:	34 c6 00 04 	SW         R6,$4(R8)
 20014b0:	1c c5 c0 14 	SW         R3,$20(R7)
 20014b4:	1c c5 c0 10 	SW         R3,$16(R7)
 20014b8:	0c c4 c0 0c 	SW         R1,$12(R3)
 20014bc:	0c c4 c0 08 	SW         R1,$8(R3)
 20014c0:	0b 40 80 00 	MOV        R2,R1
 20014c4:	08 c0 00 01 	OR         $1,R1
 20014c8:	0c c4 c0 04 	SW         R1,$4(R3)
 20014cc:	c2 80 95 c0 	ADD        R0,R8         | SW         R2,(R8)
 20014d0:	0b 43 00 00 	MOV        R12,R1
 20014d4:	87 fa fc f8 	JSR        0x020019e4     // 20019e4 <__malloc_unlock>
 20014d8:	02 00 19 e4 
 20014dc:	8f a8 84 1c 	MOV        R5,R1         | LW         28(SP),R0
 20014e0:	ac 20 b4 24 	LW         32(SP),R5     | LW         36(SP),R6
 20014e4:	bc 28 c4 2c 	LW         40(SP),R7     | LW         44(SP),R8
 20014e8:	cc 30 d4 34 	LW         48(SP),R9     | LW         52(SP),R10
 20014ec:	dc 38 e4 3c 	LW         56(SP),R11    | LW         60(SP),R12
 20014f0:	68 80 00 40 	ADD        $64,SP
 20014f4:	7b 40 00 00 	RTN
 20014f8:	0b 40 00 00 	MOV        R0,R1
 20014fc:	09 40 00 06 	LSR        $6,R1
 2001500:	1b 40 40 38 	MOV        $56+R1,R3
 2001504:	08 80 00 39 	ADD        $57,R1
 2001508:	09 80 00 03 	LSL        $3,R1
 200150c:	cf b8 ca 88 	MOV        R7,R9         | ADD        R1,R9
 2001510:	2b 42 5f f8 	MOV        $-8+R9,R5
 2001514:	8c c8 ab 88 	LW         (R9),R1       | CMP        R1,R5
 2001518:	78 ab fd e4 	BNZ        @0x02001300    // 2001300 <_malloc_r+0x620>
 200151c:	78 80 00 30 	BRA        @0x02001550    // 2001550 <_malloc_r+0x870>
 2001520:	13 40 00 5b 	MOV        $91+R0,R2
 2001524:	1b 40 00 5c 	MOV        $92+R0,R3
 2001528:	0b 40 c0 00 	MOV        R3,R1
 200152c:	09 80 00 03 	LSL        $3,R1
 2001530:	3a 03 00 40 	LDI        0x0200f438,R7  // 200f438 <__malloc_av_>
 2001534:	3a 40 f4 38 
 2001538:	87 b8 82 88 	MOV        R7,R0         | ADD        R1,R0
 200153c:	0b 40 1f f8 	MOV        $-8+R0,R1
 2001540:	2c 84 00 04 	LW         4(R0),R5
 2001544:	0c 05 40 00 	CMP        R5,R1
 2001548:	78 ab f8 b4 	BNZ        @0x02000e00    // 2000e00 <_malloc_r+0x120>
 200154c:	78 83 fd 24 	BRA        @0x02001274    // 2001274 <_malloc_r+0x594>
 2001550:	19 c0 00 02 	ASR        $2,R3
 2001554:	03 40 df e0 	MOV        $-32+R3,R0
 2001558:	04 00 00 00 	CMP        $0,R0
 200155c:	02 30 00 00 	CLR.GE     $0,R0
 2001560:	02 10 00 00 	LDI.LT     0x00000001,R0  // 1 <_rom+0x1>
 2001564:	02 50 00 01 
 2001568:	01 94 c0 00 	LSL.LT     R3,R0
 200156c:	1c 85 c0 04 	LW         4(R7),R3
 2001570:	18 c4 00 00 	OR         R0,R3
 2001574:	1c c5 c0 04 	SW         R3,$4(R7)
 2001578:	2c c6 00 0c 	SW         R5,$12(R8)
 200157c:	0c c6 00 08 	SW         R1,$8(R8)
 2001580:	44 c5 40 08 	SW         R8,$8(R5)
 2001584:	44 c4 40 0c 	SW         R8,$12(R1)
 2001588:	78 83 f9 10 	BRA        @0x02000e9c    // 2000e9c <_malloc_r+0x1bc>
 200158c:	03 41 00 00 	MOV        R4,R0
 2001590:	00 40 0f ff 	AND        $4095,R0
 2001594:	78 ab fb 54 	BNZ        @0x020010ec    // 20010ec <_malloc_r+0x40c>
 2001598:	2c 85 c0 08 	LW         8(R7),R5
 200159c:	ca c0 c7 c8 	ADD        R8,R9         | MOV        R9,R8
 20015a0:	40 c0 00 01 	OR         $1,R8
 20015a4:	44 c5 40 04 	SW         R8,$4(R5)
 20015a8:	78 83 fb ec 	BRA        @0x02001198    // 2001198 <_malloc_r+0x4b8>
 20015ac:	06 00 00 01 	LDI        $1,R0
 20015b0:	04 c6 80 04 	SW         R0,$4(R10)
 20015b4:	0b 43 00 00 	MOV        R12,R1
 20015b8:	87 fa fc f8 	JSR        0x020019e4     // 20019e4 <__malloc_unlock>
 20015bc:	02 00 19 e4 
 20015c0:	ae 00 8e 00 	CLR        R5            | CLR        R1
 20015c4:	84 1c ac 20 	LW         28(SP),R0     | LW         32(SP),R5
 20015c8:	b4 24 bc 28 	LW         36(SP),R6     | LW         40(SP),R7
 20015cc:	c4 2c cc 30 	LW         44(SP),R8     | LW         48(SP),R9
 20015d0:	d4 34 dc 38 	LW         52(SP),R10    | LW         56(SP),R11
 20015d4:	64 87 40 3c 	LW         60(SP),R12
 20015d8:	68 80 00 40 	ADD        $64,SP
 20015dc:	7b 40 00 00 	RTN
 20015e0:	54 c4 c0 00 	SW         R10,(R3)
 20015e4:	78 83 fb 14 	BRA        @0x020010fc    // 20010fc <_malloc_r+0x41c>
 20015e8:	2c 85 c0 08 	LW         8(R7),R5
 20015ec:	44 85 40 04 	LW         4(R5),R8
 20015f0:	78 83 fc 00 	BRA        @0x020011f4    // 20011f4 <_malloc_r+0x514>
 20015f4:	40 80 00 10 	ADD        $16,R8
 20015f8:	78 83 fa a4 	BRA        @0x020010a0    // 20010a0 <_malloc_r+0x3c0>
 20015fc:	a5 08 97 d0 	SW         R4,$8(SP)     | MOV        R10,R2
 2001600:	10 86 00 00 	ADD        R8,R2
 2001604:	13 40 9f ff 	MOV        $-1+R2,R2
 2001608:	11 03 ff ff 	XOR        $-1,R2
 200160c:	10 40 0f ff 	AND        $4095,R2
 2001610:	95 10 8f e0 	SW         R2,$16(SP)    | MOV        R12,R1
 2001614:	87 fa fc f8 	JSR        0x0200ceb0     // 200ceb0 <_sbrk_r>
 2001618:	02 00 ce b0 
 200161c:	8b 7f a4 08 	CMP        $-1,R1        | LW         8(SP),R4
 2001620:	78 88 01 1c 	BZ         @0x02001740    // 2001740 <_malloc_r+0xa60>
 2001624:	88 d0 94 10 	SUB        R10,R1        | LW         16(SP),R2
 2001628:	8a 90 c7 88 	ADD        R2,R1         | MOV        R1,R8
 200162c:	78 83 fb 10 	BRA        @0x02001140    // 2001140 <_malloc_r+0x460>
 2001630:	0c 00 00 55 	CMP        $85,R1
 2001634:	78 b8 00 70 	BNC        @0x020016a8    // 20016a8 <_malloc_r+0x9c8>
 2001638:	0b 40 00 00 	MOV        R0,R1
 200163c:	09 40 00 0c 	LSR        $12,R1
 2001640:	1b 40 40 6e 	MOV        $110+R1,R3
 2001644:	08 80 00 6f 	ADD        $111,R1
 2001648:	09 80 00 03 	LSL        $3,R1
 200164c:	cf b8 ca 88 	MOV        R7,R9         | ADD        R1,R9
 2001650:	2b 42 5f f8 	MOV        $-8+R9,R5
 2001654:	8c c8 ab 88 	LW         (R9),R1       | CMP        R1,R5
 2001658:	78 ab fc a4 	BNZ        @0x02001300    // 2001300 <_malloc_r+0x620>
 200165c:	78 83 fe f0 	BRA        @0x02001550    // 2001550 <_malloc_r+0x870>
 2001660:	04 00 01 55 	CMP        $341,R0
 2001664:	78 b8 00 70 	BNC        @0x020016d8    // 20016d8 <_malloc_r+0x9f8>
 2001668:	03 41 80 00 	MOV        R6,R0
 200166c:	01 40 00 0f 	LSR        $15,R0
 2001670:	13 40 00 77 	MOV        $119+R0,R2
 2001674:	1b 40 00 78 	MOV        $120+R0,R3
 2001678:	0b 40 c0 00 	MOV        R3,R1
 200167c:	09 80 00 03 	LSL        $3,R1
 2001680:	3a 03 00 40 	LDI        0x0200f438,R7  // 200f438 <__malloc_av_>
 2001684:	3a 40 f4 38 
 2001688:	87 b8 82 88 	MOV        R7,R0         | ADD        R1,R0
 200168c:	0b 40 1f f8 	MOV        $-8+R0,R1
 2001690:	2c 84 00 04 	LW         4(R0),R5
 2001694:	0c 05 40 00 	CMP        R5,R1
 2001698:	78 ab f7 64 	BNZ        @0x02000e00    // 2000e00 <_malloc_r+0x120>
 200169c:	78 83 fb d4 	BRA        @0x02001274    // 2001274 <_malloc_r+0x594>
 20016a0:	2b 42 80 00 	MOV        R10,R5
 20016a4:	78 83 fa f0 	BRA        @0x02001198    // 2001198 <_malloc_r+0x4b8>
 20016a8:	0c 00 01 55 	CMP        $341,R1
 20016ac:	78 b8 00 a8 	BNC        @0x02001758    // 2001758 <_malloc_r+0xa78>
 20016b0:	0b 40 00 00 	MOV        R0,R1
 20016b4:	09 40 00 0f 	LSR        $15,R1
 20016b8:	1b 40 40 77 	MOV        $119+R1,R3
 20016bc:	08 80 00 78 	ADD        $120,R1
 20016c0:	09 80 00 03 	LSL        $3,R1
 20016c4:	cf b8 ca 88 	MOV        R7,R9         | ADD        R1,R9
 20016c8:	2b 42 5f f8 	MOV        $-8+R9,R5
 20016cc:	8c c8 ab 88 	LW         (R9),R1       | CMP        R1,R5
 20016d0:	78 ab fc 2c 	BNZ        @0x02001300    // 2001300 <_malloc_r+0x620>
 20016d4:	78 83 fe 78 	BRA        @0x02001550    // 2001550 <_malloc_r+0x870>
 20016d8:	0e 00 03 f8 	LDI        $1016,R1
 20016dc:	9e 7f 96 7e 	LDI        $127,R3       | LDI        $126,R2
 20016e0:	04 00 05 55 	CMP        $1365,R0
 20016e4:	78 bb f6 fc 	BNC        @0x02000de4    // 2000de4 <_malloc_r+0x104>
 20016e8:	03 41 80 00 	MOV        R6,R0
 20016ec:	01 40 00 12 	LSR        $18,R0
 20016f0:	13 40 00 7c 	MOV        $124+R0,R2
 20016f4:	1b 40 00 7d 	MOV        $125+R0,R3
 20016f8:	0b 40 c0 00 	MOV        R3,R1
 20016fc:	09 80 00 03 	LSL        $3,R1
 2001700:	3a 03 00 40 	LDI        0x0200f438,R7  // 200f438 <__malloc_av_>
 2001704:	3a 40 f4 38 
 2001708:	87 b8 82 88 	MOV        R7,R0         | ADD        R1,R0
 200170c:	0b 40 1f f8 	MOV        $-8+R0,R1
 2001710:	2c 84 00 04 	LW         4(R0),R5
 2001714:	0c 05 40 00 	CMP        R5,R1
 2001718:	78 ab f6 e4 	BNZ        @0x02000e00    // 2000e00 <_malloc_r+0x120>
 200171c:	78 83 fb 54 	BRA        @0x02001274    // 2001274 <_malloc_r+0x594>
 2001720:	13 41 40 08 	MOV        $8+R5,R2
 2001724:	0b 43 00 00 	MOV        R12,R1
 2001728:	87 fa fc f8 	JSR        0x020066a8     // 20066a8 <_free_r>
 200172c:	02 00 66 a8 
 2001730:	0c 86 c0 00 	LW         (R11),R1
 2001734:	2c 85 c0 08 	LW         8(R7),R5
 2001738:	44 85 40 04 	LW         4(R5),R8
 200173c:	78 83 fa 58 	BRA        @0x02001198    // 2001198 <_malloc_r+0x4b8>
 2001740:	13 41 00 00 	MOV        R4,R2
 2001744:	78 83 f9 f8 	BRA        @0x02001140    // 2001140 <_malloc_r+0x460>
 2001748:	03 41 1f f8 	MOV        $-8+R4,R0
 200174c:	9a 80 98 d0 	ADD        R0,R3         | SUB        R10,R3
 2001750:	c7 98 96 00 	MOV        R3,R8         | CLR        R2
 2001754:	78 83 f9 e8 	BRA        @0x02001140    // 2001140 <_malloc_r+0x460>
 2001758:	0c 00 05 55 	CMP        $1365,R1
 200175c:	78 b8 00 28 	BNC        @0x02001788    // 2001788 <_malloc_r+0xaa8>
 2001760:	0b 40 00 00 	MOV        R0,R1
 2001764:	09 40 00 12 	LSR        $18,R1
 2001768:	1b 40 40 7c 	MOV        $124+R1,R3
 200176c:	08 80 00 7d 	ADD        $125,R1
 2001770:	09 80 00 03 	LSL        $3,R1
 2001774:	cf b8 ca 88 	MOV        R7,R9         | ADD        R1,R9
 2001778:	2b 42 5f f8 	MOV        $-8+R9,R5
 200177c:	8c c8 ab 88 	LW         (R9),R1       | CMP        R1,R5
 2001780:	78 ab fb 7c 	BNZ        @0x02001300    // 2001300 <_malloc_r+0x620>
 2001784:	78 83 fd c8 	BRA        @0x02001550    // 2001550 <_malloc_r+0x870>
 2001788:	0e 00 03 f8 	LDI        $1016,R1
 200178c:	9e 7e cf b8 	LDI        $126,R3       | MOV        R7,R9
 2001790:	48 84 40 00 	ADD        R1,R9
 2001794:	2b 42 5f f8 	MOV        $-8+R9,R5
 2001798:	8c c8 ab 88 	LW         (R9),R1       | CMP        R1,R5
 200179c:	78 ab fb 60 	BNZ        @0x02001300    // 2001300 <_malloc_r+0x620>
 20017a0:	78 83 fd ac 	BRA        @0x02001550    // 2001550 <_malloc_r+0x870>
 20017a4:	2b 40 40 00 	MOV        R1,R5
 20017a8:	29 03 ff ff 	XOR        $-1,R5
 20017ac:	14 85 c0 04 	LW         4(R7),R2
 20017b0:	28 44 80 00 	AND        R2,R5
 20017b4:	2c c5 c0 04 	SW         R5,$4(R7)
 20017b8:	78 83 fb e4 	BRA        @0x020013a0    // 20013a0 <_malloc_r+0x6c0>

020017bc <memset>:
 20017bc:	e8 1c ad 00 	SUB        $28,SP        | SW         R5,(SP)
 20017c0:	b5 04 bd 08 	SW         R6,$4(SP)     | SW         R7,$8(SP)
 20017c4:	c5 0c cd 10 	SW         R8,$12(SP)    | SW         R9,$16(SP)
 20017c8:	d5 14 dd 18 	SW         R10,$20(SP)   | SW         R11,$24(SP)
 20017cc:	a7 88 a1 07 	MOV        R1,R4         | AND        $7,R4
 20017d0:	78 88 00 40 	BZ         @0x02001814    // 2001814 <memset+0x58>
 20017d4:	af 9f 9b 00 	MOV        $-1+R3,R5     | CMP        $0,R3
 20017d8:	78 88 00 24 	BZ         @0x02001800    // 2001800 <memset+0x44>
 20017dc:	33 40 80 00 	MOV        R2,R6
 20017e0:	30 40 00 ff 	AND        $255,R6
 20017e4:	23 40 40 00 	MOV        R1,R4
 20017e8:	20 80 00 01 	ADD        $1,R4
 20017ec:	35 c5 3f ff 	SB         R6,$-1(R4)
 20017f0:	9f a0 99 07 	MOV        R4,R3         | AND        $7,R3
 20017f4:	78 88 00 20 	BZ         @0x02001818    // 2001818 <memset+0x5c>
 20017f8:	aa 7f ab 7f 	ADD        $-1,R5        | CMP        $-1,R5
 20017fc:	78 ab ff e8 	BNZ        @0x020017e8    // 20017e8 <memset+0x2c>
 2001800:	ac 00 b4 04 	LW         (SP),R5       | LW         4(SP),R6
 2001804:	bc 08 c4 0c 	LW         8(SP),R7      | LW         12(SP),R8
 2001808:	cc 10 d4 14 	LW         16(SP),R9     | LW         20(SP),R10
 200180c:	dc 18 ea 1c 	LW         24(SP),R11    | ADD        $28,SP
 2001810:	7b 40 00 00 	RTN
 2001814:	a7 88 af 98 	MOV        R1,R4         | MOV        R3,R5
 2001818:	2c 00 00 08 	CMP        $8,R5
 200181c:	78 98 00 c8 	BC         @0x020018e8    // 20018e8 <memset+0x12c>
 2001820:	1b 40 80 00 	MOV        R2,R3
 2001824:	18 40 00 ff 	AND        $255,R3
 2001828:	33 40 c0 00 	MOV        R3,R6
 200182c:	31 80 00 08 	LSL        $8,R6
 2001830:	30 c4 c0 00 	OR         R3,R6
 2001834:	df b0 d6 00 	MOV        R6,R11        | CLR        R10
 2001838:	1b 41 80 00 	MOV        R6,R3
 200183c:	19 40 00 10 	LSR        $16,R3
 2001840:	b7 98 9f d8 	MOV        R3,R6         | MOV        R11,R3
 2001844:	19 80 00 10 	LSL        $16,R3
 2001848:	3b 40 c0 00 	MOV        R3,R7
 200184c:	38 c6 c0 00 	OR         R11,R7
 2001850:	30 c6 80 00 	OR         R10,R6
 2001854:	c7 b8 ce 00 	MOV        R7,R8         | CLR        R9
 2001858:	38 c6 40 00 	OR         R9,R7
 200185c:	30 c6 00 00 	OR         R8,R6
 2001860:	c7 a8 ab 20 	MOV        R5,R8         | CMP        $32,R5
 2001864:	78 98 00 40 	BC         @0x020018a8    // 20018a8 <memset+0xec>
 2001868:	c2 60 c1 60 	ADD        $-32,R8       | AND        $-32,R8
 200186c:	43 42 00 20 	MOV        $32+R8,R8
 2001870:	9f a0 9a c0 	MOV        R4,R3         | ADD        R8,R3
 2001874:	34 c5 00 00 	SW         R6,(R4)
 2001878:	3c c5 00 04 	SW         R7,$4(R4)
 200187c:	34 c5 00 08 	SW         R6,$8(R4)
 2001880:	3c c5 00 0c 	SW         R7,$12(R4)
 2001884:	34 c5 00 10 	SW         R6,$16(R4)
 2001888:	3c c5 00 14 	SW         R7,$20(R4)
 200188c:	20 80 00 20 	ADD        $32,R4
 2001890:	34 c5 3f f8 	SW         R6,$-8(R4)
 2001894:	bd a4 9b a0 	SW         R7,$-4(R4)    | CMP        R4,R3
 2001898:	78 ab ff d8 	BNZ        @0x02001874    // 2001874 <memset+0xb8>
 200189c:	c7 a8 c1 1f 	MOV        R5,R8         | AND        $31,R8
 20018a0:	28 40 00 18 	AND        $24,R5
 20018a4:	78 88 01 28 	BZ         @0x020019d0    // 20019d0 <memset+0x214>
 20018a8:	34 c5 00 00 	SW         R6,(R4)
 20018ac:	3c c5 00 04 	SW         R7,$4(R4)
 20018b0:	1b 42 1f f8 	MOV        $-8+R8,R3
 20018b4:	1c 00 00 08 	CMP        $8,R3
 20018b8:	78 98 00 1c 	BC         @0x020018d8    // 20018d8 <memset+0x11c>
 20018bc:	34 c5 00 08 	SW         R6,$8(R4)
 20018c0:	3c c5 00 0c 	SW         R7,$12(R4)
 20018c4:	2b 42 1f f0 	MOV        $-16+R8,R5
 20018c8:	2c 00 00 08 	CMP        $8,R5
 20018cc:	78 98 00 08 	BC         @0x020018d8    // 20018d8 <memset+0x11c>
 20018d0:	34 c5 00 10 	SW         R6,$16(R4)
 20018d4:	3c c5 00 14 	SW         R7,$20(R4)
 20018d8:	18 43 ff f8 	AND        $-8,R3
 20018dc:	1b 40 c0 08 	MOV        $8+R3,R3
 20018e0:	a2 98 af c0 	ADD        R3,R4         | MOV        R8,R5
 20018e4:	28 40 00 07 	AND        $7,R5
 20018e8:	bf af ab 00 	MOV        $-1+R5,R7     | CMP        $0,R5
 20018ec:	78 8b ff 10 	BZ         @0x02001800    // 2001800 <memset+0x44>
 20018f0:	10 40 00 ff 	AND        $255,R2
 20018f4:	1b 41 1f ff 	MOV        $-1+R4,R3
 20018f8:	19 03 ff ff 	XOR        $-1,R3
 20018fc:	99 03 bb 06 	AND        $3,R3         | CMP        $6,R7
 2001900:	78 a8 00 7c 	BNZ        @0x02001980    // 2001980 <memset+0x1c4>
 2001904:	cf a0 9b 00 	MOV        R4,R9         | CMP        $0,R3
 2001908:	78 88 00 30 	BZ         @0x0200193c    // 200193c <memset+0x180>
 200190c:	48 80 00 01 	ADD        $1,R9
 2001910:	15 c5 00 00 	SB         R2,(R4)
 2001914:	be 05 9b 01 	LDI        $5,R7         | CMP        $1,R3
 2001918:	78 88 00 20 	BZ         @0x0200193c    // 200193c <memset+0x180>
 200191c:	4b 42 40 01 	MOV        $1+R9,R9
 2001920:	15 c5 00 01 	SB         R2,$1(R4)
 2001924:	1c 00 00 03 	CMP        $3,R3
 2001928:	48 88 00 01 	ADD.Z      $1,R9
 200192c:	15 cd 00 02 	SB.Z       R2,$2(R4)
 2001930:	3b 48 c0 00 	MOV.Z      R3,R7
 2001934:	3a 28 00 00 	LDI.NZ     0x00000004,R7  // 4 <_rom+0x4>
 2001938:	3a 68 00 04 
 200193c:	c6 07 c0 98 	LDI        $7,R8         | SUB        R3,R8
 2001940:	53 40 80 00 	MOV        R2,R10
 2001944:	51 80 00 10 	LSL        $16,R10
 2001948:	2b 40 80 00 	MOV        R2,R5
 200194c:	29 80 00 18 	LSL        $24,R5
 2001950:	33 40 80 00 	MOV        R2,R6
 2001954:	31 80 00 08 	LSL        $8,R6
 2001958:	28 c6 80 00 	OR         R10,R5
 200195c:	28 c5 80 00 	OR         R6,R5
 2001960:	28 c4 80 00 	OR         R2,R5
 2001964:	a2 98 9f a0 	ADD        R3,R4         | MOV        R4,R3
 2001968:	ad 98 b7 98 	SW         R5,(R3)       | MOV        R3,R6
 200196c:	9a 04 b3 a0 	ADD        $4,R3         | CMP        R4,R6
 2001970:	78 ab ff f4 	BNZ        @0x02001968    // 2001968 <memset+0x1ac>
 2001974:	23 42 40 04 	MOV        $4+R9,R4
 2001978:	ba 7c c3 04 	ADD        $-4,R7        | CMP        $4,R8
 200197c:	78 8b fe 80 	BZ         @0x02001800    // 2001800 <memset+0x44>
 2001980:	15 c5 00 00 	SB         R2,(R4)
 2001984:	3c 00 00 00 	CMP        $0,R7
 2001988:	78 8b fe 74 	BZ         @0x02001800    // 2001800 <memset+0x44>
 200198c:	15 c5 00 01 	SB         R2,$1(R4)
 2001990:	3c 00 00 01 	CMP        $1,R7
 2001994:	78 8b fe 68 	BZ         @0x02001800    // 2001800 <memset+0x44>
 2001998:	15 c5 00 02 	SB         R2,$2(R4)
 200199c:	3c 00 00 02 	CMP        $2,R7
 20019a0:	78 8b fe 5c 	BZ         @0x02001800    // 2001800 <memset+0x44>
 20019a4:	15 c5 00 03 	SB         R2,$3(R4)
 20019a8:	3c 00 00 03 	CMP        $3,R7
 20019ac:	78 8b fe 50 	BZ         @0x02001800    // 2001800 <memset+0x44>
 20019b0:	15 c5 00 04 	SB         R2,$4(R4)
 20019b4:	3c 00 00 04 	CMP        $4,R7
 20019b8:	15 ed 00 05 	SB.NZ      R2,$5(R4)
 20019bc:	ac 00 b4 04 	LW         (SP),R5       | LW         4(SP),R6
 20019c0:	bc 08 c4 0c 	LW         8(SP),R7      | LW         12(SP),R8
 20019c4:	cc 10 d4 14 	LW         16(SP),R9     | LW         20(SP),R10
 20019c8:	dc 18 ea 1c 	LW         24(SP),R11    | ADD        $28,SP
 20019cc:	7b 40 00 00 	RTN
 20019d0:	af c0 bf af 	MOV        R8,R5         | MOV        $-1+R5,R7
 20019d4:	2c 00 00 00 	CMP        $0,R5
 20019d8:	78 ab ff 14 	BNZ        @0x020018f0    // 20018f0 <memset+0x134>
 20019dc:	78 83 fe 20 	BRA        @0x02001800    // 2001800 <memset+0x44>

020019e0 <__malloc_lock>:
 20019e0:	7b 40 00 00 	RTN

020019e4 <__malloc_unlock>:
 20019e4:	7b 40 00 00 	RTN

020019e8 <_printf_r>:
 20019e8:	e8 04 85 00 	SUB        $4,SP         | SW         R0,(SP)
 20019ec:	23 43 40 08 	MOV        $8+SP,R4
 20019f0:	1c 87 40 04 	LW         4(SP),R3
 20019f4:	14 84 40 08 	LW         8(R1),R2
 20019f8:	87 fa fc f8 	JSR        0x02001ba8     // 2001ba8 <_vfprintf_r>
 20019fc:	02 00 1b a8 
 2001a00:	84 00 ea 04 	LW         (SP),R0       | ADD        $4,SP
 2001a04:	7b 40 00 00 	RTN

02001a08 <printf>:
 2001a08:	e8 04 85 00 	SUB        $4,SP         | SW         R0,(SP)
 2001a0c:	0a 03 00 40 	LDI        0x0200f840,R1  // 200f840 <_impure_ptr>
 2001a10:	0a 40 f8 40 
 2001a14:	0c 84 40 00 	LW         (R1),R1
 2001a18:	23 43 40 08 	MOV        $8+SP,R4
 2001a1c:	1c 87 40 04 	LW         4(SP),R3
 2001a20:	14 84 40 08 	LW         8(R1),R2
 2001a24:	87 fa fc f8 	JSR        0x02001ba8     // 2001ba8 <_vfprintf_r>
 2001a28:	02 00 1b a8 
 2001a2c:	84 00 ea 04 	LW         (SP),R0       | ADD        $4,SP
 2001a30:	7b 40 00 00 	RTN

02001a34 <_putchar_r>:
 2001a34:	e8 04 85 00 	SUB        $4,SP         | SW         R0,(SP)
 2001a38:	1c 84 40 08 	LW         8(R1),R3
 2001a3c:	84 00 ea 04 	LW         (SP),R0       | ADD        $4,SP
 2001a40:	7c 87 c0 00 	LJMP       @0x02001a6c    // 2001a6c <_putc_r>
 2001a44:	02 00 1a 6c 

02001a48 <putchar>:
 2001a48:	e8 04 85 00 	SUB        $4,SP         | SW         R0,(SP)
 2001a4c:	13 40 40 00 	MOV        R1,R2
 2001a50:	0a 03 00 40 	LDI        0x0200f840,R1  // 200f840 <_impure_ptr>
 2001a54:	0a 40 f8 40 
 2001a58:	0c 84 40 00 	LW         (R1),R1
 2001a5c:	1c 84 40 08 	LW         8(R1),R3
 2001a60:	84 00 ea 04 	LW         (SP),R0       | ADD        $4,SP
 2001a64:	7c 87 c0 00 	LJMP       @0x02001a6c    // 2001a6c <_putc_r>
 2001a68:	02 00 1a 6c 

02001a6c <_putc_r>:
 2001a6c:	e8 10 85 00 	SUB        $16,SP        | SW         R0,(SP)
 2001a70:	ad 04 b5 08 	SW         R5,$4(SP)     | SW         R6,$8(SP)
 2001a74:	bd 0c bf 88 	SW         R7,$12(SP)    | MOV        R1,R7
 2001a78:	b7 90 af 98 	MOV        R2,R6         | MOV        R3,R5
 2001a7c:	0c 00 00 00 	CMP        $0,R1
 2001a80:	78 88 00 0c 	BZ         @0x02001a90    // 2001a90 <_putc_r+0x24>
 2001a84:	14 84 40 38 	LW         56(R1),R2
 2001a88:	14 00 00 00 	CMP        $0,R2
 2001a8c:	78 88 00 50 	BZ         @0x02001ae0    // 2001ae0 <_putc_r+0x74>
 2001a90:	14 85 40 08 	LW         8(R5),R2
 2001a94:	10 83 ff ff 	ADD        $-1,R2
 2001a98:	14 c5 40 08 	SW         R2,$8(R5)
 2001a9c:	14 00 00 00 	CMP        $0,R2
 2001aa0:	78 b0 00 1c 	BGE        @0x02001ac0    // 2001ac0 <_putc_r+0x54>
 2001aa4:	0c 85 40 18 	LW         24(R5),R1
 2001aa8:	14 04 40 00 	CMP        R1,R2
 2001aac:	78 90 00 3c 	BLT        @0x02001aec    // 2001aec <_putc_r+0x80>
 2001ab0:	0b 41 80 00 	MOV        R6,R1
 2001ab4:	08 40 00 ff 	AND        $255,R1
 2001ab8:	0c 00 00 0a 	CMP        $10,R1
 2001abc:	78 88 00 2c 	BZ         @0x02001aec    // 2001aec <_putc_r+0x80>
 2001ac0:	8c a8 97 89 	LW         (R5),R1       | MOV        $1+R1,R2
 2001ac4:	14 c5 40 00 	SW         R2,(R5)
 2001ac8:	35 c4 40 00 	SB         R6,(R1)
 2001acc:	0b 41 80 00 	MOV        R6,R1
 2001ad0:	08 40 00 ff 	AND        $255,R1
 2001ad4:	84 00 ac 04 	LW         (SP),R0       | LW         4(SP),R5
 2001ad8:	b4 08 bc 0c 	LW         8(SP),R6      | LW         12(SP),R7
 2001adc:	ea 10 ff 80 	ADD        $16,SP        | RTN
 2001ae0:	87 fa fc f8 	JSR        0x02006348     // 2006348 <__sinit>
 2001ae4:	02 00 63 48 
 2001ae8:	78 83 ff a4 	BRA        @0x02001a90    // 2001a90 <_putc_r+0x24>
 2001aec:	9f a8 97 b0 	MOV        R5,R3         | MOV        R6,R2
 2001af0:	8f b8 84 00 	MOV        R7,R1         | LW         (SP),R0
 2001af4:	ac 04 b4 08 	LW         4(SP),R5      | LW         8(SP),R6
 2001af8:	bc 0c ea 10 	LW         12(SP),R7     | ADD        $16,SP
 2001afc:	7c 87 c0 00 	LJMP       @0x02003ddc    // 2003ddc <__swbuf_r>
 2001b00:	02 00 3d dc 

02001b04 <putc>:
 2001b04:	e8 10 85 00 	SUB        $16,SP        | SW         R0,(SP)
 2001b08:	ad 04 b5 08 	SW         R5,$4(SP)     | SW         R6,$8(SP)
 2001b0c:	bd 0c b7 88 	SW         R7,$12(SP)    | MOV        R1,R6
 2001b10:	2b 40 80 00 	MOV        R2,R5
 2001b14:	0a 03 00 40 	LDI        0x0200f840,R1  // 200f840 <_impure_ptr>
 2001b18:	0a 40 f8 40 
 2001b1c:	bc 88 bb 00 	LW         (R1),R7       | CMP        $0,R7
 2001b20:	78 88 00 0c 	BZ         @0x02001b30    // 2001b30 <putc+0x2c>
 2001b24:	0c 85 c0 38 	LW         56(R7),R1
 2001b28:	0c 00 00 00 	CMP        $0,R1
 2001b2c:	78 88 00 50 	BZ         @0x02001b80    // 2001b80 <putc+0x7c>
 2001b30:	14 85 40 08 	LW         8(R5),R2
 2001b34:	10 83 ff ff 	ADD        $-1,R2
 2001b38:	14 c5 40 08 	SW         R2,$8(R5)
 2001b3c:	14 00 00 00 	CMP        $0,R2
 2001b40:	78 b0 00 1c 	BGE        @0x02001b60    // 2001b60 <putc+0x5c>
 2001b44:	0c 85 40 18 	LW         24(R5),R1
 2001b48:	14 04 40 00 	CMP        R1,R2
 2001b4c:	78 90 00 40 	BLT        @0x02001b90    // 2001b90 <putc+0x8c>
 2001b50:	0b 41 80 00 	MOV        R6,R1
 2001b54:	08 40 00 ff 	AND        $255,R1
 2001b58:	0c 00 00 0a 	CMP        $10,R1
 2001b5c:	78 88 00 30 	BZ         @0x02001b90    // 2001b90 <putc+0x8c>
 2001b60:	8c a8 97 89 	LW         (R5),R1       | MOV        $1+R1,R2
 2001b64:	14 c5 40 00 	SW         R2,(R5)
 2001b68:	35 c4 40 00 	SB         R6,(R1)
 2001b6c:	0b 41 80 00 	MOV        R6,R1
 2001b70:	08 40 00 ff 	AND        $255,R1
 2001b74:	84 00 ac 04 	LW         (SP),R0       | LW         4(SP),R5
 2001b78:	b4 08 bc 0c 	LW         8(SP),R6      | LW         12(SP),R7
 2001b7c:	ea 10 ff 80 	ADD        $16,SP        | RTN
 2001b80:	0b 41 c0 00 	MOV        R7,R1
 2001b84:	87 fa fc f8 	JSR        0x02006348     // 2006348 <__sinit>
 2001b88:	02 00 63 48 
 2001b8c:	78 83 ff a0 	BRA        @0x02001b30    // 2001b30 <putc+0x2c>
 2001b90:	9f a8 97 b0 	MOV        R5,R3         | MOV        R6,R2
 2001b94:	8f b8 84 00 	MOV        R7,R1         | LW         (SP),R0
 2001b98:	ac 04 b4 08 	LW         4(SP),R5      | LW         8(SP),R6
 2001b9c:	bc 0c ea 10 	LW         12(SP),R7     | ADD        $16,SP
 2001ba0:	7c 87 c0 00 	LJMP       @0x02003ddc    // 2003ddc <__swbuf_r>
 2001ba4:	02 00 3d dc 

02001ba8 <_vfprintf_r>:
 2001ba8:	68 00 01 14 	SUB        $276,SP
 2001bac:	04 c7 40 f0 	SW         R0,$240(SP)
 2001bb0:	2c c7 40 f4 	SW         R5,$244(SP)
 2001bb4:	34 c7 40 f8 	SW         R6,$248(SP)
 2001bb8:	3c c7 40 fc 	SW         R7,$252(SP)
 2001bbc:	44 c7 41 00 	SW         R8,$256(SP)
 2001bc0:	4c c7 41 04 	SW         R9,$260(SP)
 2001bc4:	54 c7 41 08 	SW         R10,$264(SP)
 2001bc8:	5c c7 41 0c 	SW         R11,$268(SP)
 2001bcc:	64 c7 41 10 	SW         R12,$272(SP)
 2001bd0:	af 88 8d 20 	MOV        R1,R5         | SW         R1,$32(SP)
 2001bd4:	cf 90 df 98 	MOV        R2,R9         | MOV        R3,R11
 2001bd8:	24 c7 40 24 	SW         R4,$36(SP)
 2001bdc:	87 fa fc f8 	JSR        0x02006bd8     // 2006bd8 <_localeconv_r>
 2001be0:	02 00 6b d8 
 2001be4:	04 84 40 00 	LW         (R1),R0
 2001be8:	04 c7 40 4c 	SW         R0,$76(SP)
 2001bec:	0b 40 00 00 	MOV        R0,R1
 2001bf0:	87 fa fc f8 	JSR        0x0200900c     // 200900c <strlen>
 2001bf4:	02 00 90 0c 
 2001bf8:	0c c7 40 44 	SW         R1,$68(SP)
 2001bfc:	2c 00 00 00 	CMP        $0,R5
 2001c00:	78 88 00 0c 	BZ         @0x02001c10    // 2001c10 <_vfprintf_r+0x68>
 2001c04:	0c 85 40 38 	LW         56(R5),R1
 2001c08:	0c 00 00 00 	CMP        $0,R1
 2001c0c:	78 88 0d 28 	BZ         @0x02002938    // 2002938 <_vfprintf_r+0xd90>
 2001c10:	15 06 40 0c 	LH         12(R9),R2
 2001c14:	0b 40 80 00 	MOV        R2,R1
 2001c18:	08 40 ff ff 	AND        $65535,R1
 2001c1c:	1b 40 80 00 	MOV        R2,R3
 2001c20:	18 40 20 00 	AND        $8192,R3
 2001c24:	78 a8 00 20 	BNZ        @0x02001c48    // 2001c48 <_vfprintf_r+0xa0>
 2001c28:	0b 40 80 00 	MOV        R2,R1
 2001c2c:	08 c0 20 00 	OR         $8192,R1
 2001c30:	0d 46 40 0c 	SH         R1,$12(R9)
 2001c34:	7f 40 00 00 	LOCK
 2001c38:	14 86 40 68 	LW         104(R9),R2
 2001c3c:	10 43 df ff 	AND        $-8193,R2
 2001c40:	14 c6 40 68 	SW         R2,$104(R9)
 2001c44:	08 40 ff ff 	AND        $65535,R1
 2001c48:	97 88 91 08 	MOV        R1,R2         | AND        $8,R2
 2001c4c:	78 88 03 34 	BZ         @0x02001f84    // 2001f84 <_vfprintf_r+0x3dc>
 2001c50:	14 86 40 10 	LW         16(R9),R2
 2001c54:	14 00 00 00 	CMP        $0,R2
 2001c58:	78 88 03 28 	BZ         @0x02001f84    // 2001f84 <_vfprintf_r+0x3dc>
 2001c5c:	89 1a 8b 0a 	AND        $26,R1        | CMP        $10,R1
 2001c60:	78 88 07 4c 	BZ         @0x020023b0    // 20023b0 <_vfprintf_r+0x808>
 2001c64:	0b 43 40 b0 	MOV        $176+SP,R1
 2001c68:	0c c7 40 7c 	SW         R1,$124(SP)
 2001c6c:	0e 00 00 00 	CLR        R1
 2001c70:	0c c7 40 84 	SW         R1,$132(SP)
 2001c74:	0c c7 40 80 	SW         R1,$128(SP)
 2001c78:	0c c7 40 38 	SW         R1,$56(SP)
 2001c7c:	0c c7 40 40 	SW         R1,$64(SP)
 2001c80:	0c c7 40 3c 	SW         R1,$60(SP)
 2001c84:	53 43 40 b0 	MOV        $176+SP,R10
 2001c88:	0c c7 40 48 	SW         R1,$72(SP)
 2001c8c:	0c c7 40 50 	SW         R1,$80(SP)
 2001c90:	8d 18 e7 d8 	SW         R1,$24(SP)    | MOV        R11,R12
 2001c94:	1d 87 00 00 	LB         (R12),R3
 2001c98:	9b 25 8e 00 	CMP        $37,R3        | CLR        R1
 2001c9c:	08 e8 00 01 	OR.NZ      $1,R1
 2001ca0:	9b 00 96 00 	CMP        $0,R3         | CLR        R2
 2001ca4:	10 e8 00 01 	OR.NZ      $1,R2
 2001ca8:	89 90 af e0 	AND        R2,R1         | MOV        R12,R5
 2001cac:	0c 00 00 00 	CMP        $0,R1
 2001cb0:	78 88 00 5c 	BZ         @0x02001d10    // 2001d10 <_vfprintf_r+0x168>
 2001cb4:	b7 a8 aa 01 	MOV        R5,R6         | ADD        $1,R5
 2001cb8:	1d 85 40 00 	LB         (R5),R3
 2001cbc:	9b 00 8e 00 	CMP        $0,R3         | CLR        R1
 2001cc0:	08 e8 00 01 	OR.NZ      $1,R1
 2001cc4:	9b 25 96 00 	CMP        $37,R3        | CLR        R2
 2001cc8:	10 e8 00 01 	OR.NZ      $1,R2
 2001ccc:	08 44 80 00 	AND        R2,R1
 2001cd0:	78 ab ff e0 	BNZ        @0x02001cb4    // 2001cb4 <_vfprintf_r+0x10c>
 2001cd4:	bf a8 b8 e0 	MOV        R5,R7         | SUB        R12,R7
 2001cd8:	78 88 00 34 	BZ         @0x02001d10    // 2001d10 <_vfprintf_r+0x168>
 2001cdc:	64 c6 80 00 	SW         R12,(R10)
 2001ce0:	3c c6 80 04 	SW         R7,$4(R10)
 2001ce4:	0c 87 40 84 	LW         132(SP),R1
 2001ce8:	08 85 c0 00 	ADD        R7,R1
 2001cec:	0c c7 40 84 	SW         R1,$132(SP)
 2001cf0:	0c 87 40 80 	LW         128(SP),R1
 2001cf4:	08 80 00 01 	ADD        $1,R1
 2001cf8:	0c c7 40 80 	SW         R1,$128(SP)
 2001cfc:	d2 08 8b 08 	ADD        $8,R10        | CMP        $8,R1
 2001d00:	78 b0 02 54 	BGE        @0x02001f58    // 2001f58 <_vfprintf_r+0x3b0>
 2001d04:	8c 18 8a b8 	LW         24(SP),R1     | ADD        R7,R1
 2001d08:	0c c7 40 18 	SW         R1,$24(SP)
 2001d0c:	1d 85 80 01 	LB         1(R6),R3
 2001d10:	1c 00 00 00 	CMP        $0,R3
 2001d14:	78 88 19 ec 	BZ         @0x02003704    // 2003704 <_vfprintf_r+0x1b5c>
 2001d18:	8f a9 96 00 	MOV        $1+R5,R1      | CLR        R2
 2001d1c:	15 c7 40 61 	SB         R2,$97(SP)
 2001d20:	96 00 9e 00 	CLR        R2            | CLR        R3
 2001d24:	be ff 95 0c 	LDI        $-1,R7        | SW         R2,$12(SP)
 2001d28:	c6 00 a6 01 	CLR        R8            | LDI        $1,R4
 2001d2c:	ae 20 e7 89 	LDI        $32,R5        | MOV        $1+R1,R12
 2001d30:	35 84 40 00 	LB         (R1),R6
 2001d34:	34 00 00 55 	CMP        $85,R6
 2001d38:	78 88 10 cc 	BZ         @0x02002e08    // 2002e08 <_vfprintf_r+0x1260>
 2001d3c:	34 00 00 56 	CMP        $86,R6
 2001d40:	78 b0 03 50 	BGE        @0x02002094    // 2002094 <_vfprintf_r+0x4ec>
 2001d44:	34 00 00 2e 	CMP        $46,R6
 2001d48:	78 88 11 5c 	BZ         @0x02002ea8    // 2002ea8 <_vfprintf_r+0x1300>
 2001d4c:	34 00 00 2f 	CMP        $47,R6
 2001d50:	78 90 02 f4 	BLT        @0x02002048    // 2002048 <_vfprintf_r+0x4a0>
 2001d54:	34 00 00 44 	CMP        $68,R6
 2001d58:	78 88 10 e0 	BZ         @0x02002e3c    // 2002e3c <_vfprintf_r+0x1294>
 2001d5c:	34 00 00 45 	CMP        $69,R6
 2001d60:	78 90 02 7c 	BLT        @0x02001fe0    // 2001fe0 <_vfprintf_r+0x438>
 2001d64:	34 00 00 4c 	CMP        $76,R6
 2001d68:	78 88 11 a8 	BZ         @0x02002f14    // 2002f14 <_vfprintf_r+0x136c>
 2001d6c:	34 00 00 4d 	CMP        $77,R6
 2001d70:	78 90 02 34 	BLT        @0x02001fa8    // 2001fa8 <_vfprintf_r+0x400>
 2001d74:	34 00 00 4f 	CMP        $79,R6
 2001d78:	78 a8 02 38 	BNZ        @0x02001fb4    // 2001fb4 <_vfprintf_r+0x40c>
 2001d7c:	40 c0 00 10 	OR         $16,R8
 2001d80:	9c 24 8c 98 	LW         36(SP),R3     | LW         (R3),R1
 2001d84:	14 84 c0 04 	LW         4(R3),R2
 2001d88:	8d 28 95 2c 	SW         R1,$40(SP)    | SW         R2,$44(SP)
 2001d8c:	0b 40 c0 08 	MOV        $8+R3,R1
 2001d90:	8d 24 96 00 	SW         R1,$36(SP)    | CLR        R2
 2001d94:	0e 00 00 00 	CLR        R1
 2001d98:	0d c7 40 61 	SB         R1,$97(SP)
 2001d9c:	2e 00 00 00 	CLR        R5
 2001da0:	3c 03 ff ff 	CMP        $-1,R7
 2001da4:	78 88 0b a4 	BZ         @0x0200294c    // 200294c <_vfprintf_r+0xda4>
 2001da8:	0b 42 00 00 	MOV        R8,R1
 2001dac:	08 43 ff 7f 	AND        $-129,R1
 2001db0:	8d 14 9c 28 	SW         R1,$20(SP)    | LW         40(SP),R3
 2001db4:	a4 2c 8f 98 	LW         44(SP),R4     | MOV        R3,R1
 2001db8:	08 c5 00 00 	OR         R4,R1
 2001dbc:	1e 00 00 00 	CLR        R3
 2001dc0:	18 e8 00 01 	OR.NZ      $1,R3
 2001dc4:	bb 00 8e 00 	CMP        $0,R7         | CLR        R1
 2001dc8:	08 e8 00 01 	OR.NZ      $1,R1
 2001dcc:	18 c4 40 00 	OR         R1,R3
 2001dd0:	78 a8 0b 74 	BNZ        @0x02002948    // 2002948 <_vfprintf_r+0xda0>
 2001dd4:	14 00 00 00 	CMP        $0,R2
 2001dd8:	78 a8 0d b0 	BNZ        @0x02002b8c    // 2002b8c <_vfprintf_r+0xfe4>
 2001ddc:	c1 01 c5 1c 	AND        $1,R8         | SW         R8,$28(SP)
 2001de0:	44 00 00 00 	CMP        $0,R8
 2001de4:	78 88 0e f8 	BZ         @0x02002ce0    // 2002ce0 <_vfprintf_r+0x1138>
 2001de8:	0e 00 00 30 	LDI        $48,R1
 2001dec:	0d c7 40 af 	SB         R1,$175(SP)
 2001df0:	3e 00 00 00 	CLR        R7
 2001df4:	5b 43 40 af 	MOV        $175+SP,R11
 2001df8:	8f c0 8b b8 	MOV        R8,R1         | CMP        R7,R1
 2001dfc:	0b 51 c0 00 	MOV.LT     R7,R1
 2001e00:	8d 10 8e 00 	SW         R1,$16(SP)    | CLR        R1
 2001e04:	0c c7 40 34 	SW         R1,$52(SP)
 2001e08:	2c 00 00 00 	CMP        $0,R5
 2001e0c:	78 88 00 08 	BZ         @0x02001e18    // 2001e18 <_vfprintf_r+0x270>
 2001e10:	8c 10 8a 01 	LW         16(SP),R1     | ADD        $1,R1
 2001e14:	0c c7 40 10 	SW         R1,$16(SP)
 2001e18:	a4 14 a1 02 	LW         20(SP),R4     | AND        $2,R4
 2001e1c:	78 88 00 08 	BZ         @0x02001e28    // 2001e28 <_vfprintf_r+0x280>
 2001e20:	8c 10 8a 02 	LW         16(SP),R1     | ADD        $2,R1
 2001e24:	0c c7 40 10 	SW         R1,$16(SP)
 2001e28:	0c 87 40 14 	LW         20(SP),R1
 2001e2c:	08 40 00 84 	AND        $132,R1
 2001e30:	0c c7 40 30 	SW         R1,$48(SP)
 2001e34:	2c 87 40 84 	LW         132(SP),R5
 2001e38:	0c 00 00 00 	CMP        $0,R1
 2001e3c:	78 a8 00 0c 	BNZ        @0x02001e4c    // 2001e4c <_vfprintf_r+0x2a4>
 2001e40:	c4 0c 8c 10 	LW         12(SP),R8     | LW         16(SP),R1
 2001e44:	c0 88 c3 01 	SUB        R1,R8         | CMP        $1,R8
 2001e48:	78 b0 08 dc 	BGE        @0x02002728    // 2002728 <_vfprintf_r+0xb80>
 2001e4c:	0d 87 40 61 	LB         97(SP),R1
 2001e50:	0c 00 00 00 	CMP        $0,R1
 2001e54:	78 88 00 28 	BZ         @0x02001e80    // 2001e80 <_vfprintf_r+0x2d8>
 2001e58:	0b 43 40 61 	MOV        $97+SP,R1
 2001e5c:	8d d0 8e 01 	SW         R1,(R10)      | LDI        $1,R1
 2001e60:	0c c6 80 04 	SW         R1,$4(R10)
 2001e64:	28 84 40 00 	ADD        R1,R5
 2001e68:	2c c7 40 84 	SW         R5,$132(SP)
 2001e6c:	0c 87 40 80 	LW         128(SP),R1
 2001e70:	08 80 00 01 	ADD        $1,R1
 2001e74:	0c c7 40 80 	SW         R1,$128(SP)
 2001e78:	d2 08 8b 08 	ADD        $8,R10        | CMP        $8,R1
 2001e7c:	78 b0 09 8c 	BGE        @0x0200280c    // 200280c <_vfprintf_r+0xc64>
 2001e80:	24 00 00 00 	CMP        $0,R4
 2001e84:	78 88 00 28 	BZ         @0x02001eb0    // 2001eb0 <_vfprintf_r+0x308>
 2001e88:	0b 43 40 62 	MOV        $98+SP,R1
 2001e8c:	8d d0 8e 02 	SW         R1,(R10)      | LDI        $2,R1
 2001e90:	0c c6 80 04 	SW         R1,$4(R10)
 2001e94:	28 84 40 00 	ADD        R1,R5
 2001e98:	2c c7 40 84 	SW         R5,$132(SP)
 2001e9c:	0c 87 40 80 	LW         128(SP),R1
 2001ea0:	08 80 00 01 	ADD        $1,R1
 2001ea4:	0c c7 40 80 	SW         R1,$128(SP)
 2001ea8:	d2 08 8b 08 	ADD        $8,R10        | CMP        $8,R1
 2001eac:	78 b0 09 88 	BGE        @0x02002838    // 2002838 <_vfprintf_r+0xc90>
 2001eb0:	0c 87 40 30 	LW         48(SP),R1
 2001eb4:	0c 00 00 80 	CMP        $128,R1
 2001eb8:	78 88 05 78 	BZ         @0x02002434    // 2002434 <_vfprintf_r+0x88c>
 2001ebc:	8c 1c b8 88 	LW         28(SP),R1     | SUB        R1,R7
 2001ec0:	3c 00 00 01 	CMP        $1,R7
 2001ec4:	78 b0 06 54 	BGE        @0x0200251c    // 200251c <_vfprintf_r+0x974>
 2001ec8:	0c 87 40 14 	LW         20(SP),R1
 2001ecc:	08 40 01 00 	AND        $256,R1
 2001ed0:	78 a8 06 dc 	BNZ        @0x020025b0    // 20025b0 <_vfprintf_r+0xa08>
 2001ed4:	dd d0 8c 1c 	SW         R11,(R10)     | LW         28(SP),R1
 2001ed8:	0c c6 80 04 	SW         R1,$4(R10)
 2001edc:	28 84 40 00 	ADD        R1,R5
 2001ee0:	2c c7 40 84 	SW         R5,$132(SP)
 2001ee4:	0c 87 40 80 	LW         128(SP),R1
 2001ee8:	08 80 00 01 	ADD        $1,R1
 2001eec:	0c c7 40 80 	SW         R1,$128(SP)
 2001ef0:	0c 00 00 08 	CMP        $8,R1
 2001ef4:	78 b0 07 b4 	BGE        @0x020026ac    // 20026ac <_vfprintf_r+0xb04>
 2001ef8:	50 80 00 08 	ADD        $8,R10
 2001efc:	8c 14 89 04 	LW         20(SP),R1     | AND        $4,R1
 2001f00:	78 88 00 0c 	BZ         @0x02001f10    // 2001f10 <_vfprintf_r+0x368>
 2001f04:	b4 0c 8c 10 	LW         12(SP),R6     | LW         16(SP),R1
 2001f08:	b0 88 b3 01 	SUB        R1,R6         | CMP        $1,R6
 2001f0c:	78 b0 09 58 	BGE        @0x02002868    // 2002868 <_vfprintf_r+0xcc0>
 2001f10:	8c 0c 94 10 	LW         12(SP),R1     | LW         16(SP),R2
 2001f14:	0c 04 80 00 	CMP        R2,R1
 2001f18:	0b 50 80 00 	MOV.LT     R2,R1
 2001f1c:	94 18 92 88 	LW         24(SP),R2     | ADD        R1,R2
 2001f20:	95 18 ab 00 	SW         R2,$24(SP)    | CMP        $0,R5
 2001f24:	78 a8 07 d8 	BNZ        @0x02002700    // 2002700 <_vfprintf_r+0xb58>
 2001f28:	0e 00 00 00 	CLR        R1
 2001f2c:	0c c7 40 80 	SW         R1,$128(SP)
 2001f30:	53 43 40 b0 	MOV        $176+SP,R10
 2001f34:	1d 87 00 00 	LB         (R12),R3
 2001f38:	9b 25 8e 00 	CMP        $37,R3        | CLR        R1
 2001f3c:	08 e8 00 01 	OR.NZ      $1,R1
 2001f40:	9b 00 96 00 	CMP        $0,R3         | CLR        R2
 2001f44:	10 e8 00 01 	OR.NZ      $1,R2
 2001f48:	89 90 af e0 	AND        R2,R1         | MOV        R12,R5
 2001f4c:	0c 00 00 00 	CMP        $0,R1
 2001f50:	78 ab fd 60 	BNZ        @0x02001cb4    // 2001cb4 <_vfprintf_r+0x10c>
 2001f54:	78 83 fd b8 	BRA        @0x02001d10    // 2001d10 <_vfprintf_r+0x168>
 2001f58:	1b 43 40 7c 	MOV        $124+SP,R3
 2001f5c:	97 c8 8c 20 	MOV        R9,R2         | LW         32(SP),R1
 2001f60:	87 fa fc f8 	JSR        0x020090e4     // 20090e4 <__sprint_r>
 2001f64:	02 00 90 e4 
 2001f68:	0c 00 00 00 	CMP        $0,R1
 2001f6c:	78 a8 03 50 	BNZ        @0x020022c0    // 20022c0 <_vfprintf_r+0x718>
 2001f70:	53 43 40 b0 	MOV        $176+SP,R10
 2001f74:	8c 18 8a b8 	LW         24(SP),R1     | ADD        R7,R1
 2001f78:	0c c7 40 18 	SW         R1,$24(SP)
 2001f7c:	1d 85 80 01 	LB         1(R6),R3
 2001f80:	78 83 fd 8c 	BRA        @0x02001d10    // 2001d10 <_vfprintf_r+0x168>
 2001f84:	97 c8 8c 20 	MOV        R9,R2         | LW         32(SP),R1
 2001f88:	87 fa fc f8 	JSR        0x02004100     // 2004100 <__swsetup_r>
 2001f8c:	02 00 41 00 
 2001f90:	0c 00 00 00 	CMP        $0,R1
 2001f94:	78 a8 1a 78 	BNZ        @0x02003a10    // 2003a10 <_vfprintf_r+0x1e68>
 2001f98:	0d 06 40 0c 	LH         12(R9),R1
 2001f9c:	89 1a 8b 0a 	AND        $26,R1        | CMP        $10,R1
 2001fa0:	78 ab fc c0 	BNZ        @0x02001c64    // 2001c64 <_vfprintf_r+0xbc>
 2001fa4:	78 80 04 08 	BRA        @0x020023b0    // 20023b0 <_vfprintf_r+0x808>
 2001fa8:	8f b0 89 7d 	MOV        R6,R1         | AND        $-3,R1
 2001fac:	0c 00 00 45 	CMP        $69,R1
 2001fb0:	78 88 03 48 	BZ         @0x020022fc    // 20022fc <_vfprintf_r+0x754>
 2001fb4:	14 00 00 00 	CMP        $0,R2
 2001fb8:	78 a8 17 3c 	BNZ        @0x020036f8    // 20036f8 <_vfprintf_r+0x1b50>
 2001fbc:	35 c7 40 88 	SB         R6,$136(SP)
 2001fc0:	0e 00 00 00 	CLR        R1
 2001fc4:	0d c7 40 61 	SB         R1,$97(SP)
 2001fc8:	8e 01 8d 10 	LDI        $1,R1         | SW         R1,$16(SP)
 2001fcc:	0c c7 40 1c 	SW         R1,$28(SP)
 2001fd0:	5b 43 40 88 	MOV        $136+SP,R11
 2001fd4:	c5 14 be 00 	SW         R8,$20(SP)    | CLR        R7
 2001fd8:	3c c7 40 34 	SW         R7,$52(SP)
 2001fdc:	78 83 fe 38 	BRA        @0x02001e18    // 2001e18 <_vfprintf_r+0x270>
 2001fe0:	34 00 00 30 	CMP        $48,R6
 2001fe4:	78 88 0e 48 	BZ         @0x02002e30    // 2002e30 <_vfprintf_r+0x1288>
 2001fe8:	0b 41 9f cf 	MOV        $-49+R6,R1
 2001fec:	0c 00 00 09 	CMP        $9,R1
 2001ff0:	78 bb ff c0 	BNC        @0x02001fb4    // 2001fb4 <_vfprintf_r+0x40c>
 2001ff4:	8e 00 8d 0c 	CLR        R1            | SW         R1,$12(SP)
 2001ff8:	0b 41 9f d0 	MOV        $-48+R6,R1
 2001ffc:	dc 0c b7 d8 	LW         12(SP),R11    | MOV        R11,R6
 2002000:	31 80 00 02 	LSL        $2,R6
 2002004:	b2 d8 b2 b0 	ADD        R11,R6        | ADD        R6,R6
 2002008:	8a b0 8d 0c 	ADD        R6,R1         | SW         R1,$12(SP)
 200200c:	60 80 00 01 	ADD        $1,R12
 2002010:	35 87 3f ff 	LB         -1(R12),R6
 2002014:	0b 41 9f d0 	MOV        $-48+R6,R1
 2002018:	0c 00 00 0a 	CMP        $10,R1
 200201c:	78 bb fd 14 	BNC        @0x02001d34    // 2001d34 <_vfprintf_r+0x18c>
 2002020:	dc 0c b7 d8 	LW         12(SP),R11    | MOV        R11,R6
 2002024:	31 80 00 02 	LSL        $2,R6
 2002028:	b2 d8 b2 b0 	ADD        R11,R6        | ADD        R6,R6
 200202c:	8a b0 8d 0c 	ADD        R6,R1         | SW         R1,$12(SP)
 2002030:	60 80 00 01 	ADD        $1,R12
 2002034:	35 87 3f ff 	LB         -1(R12),R6
 2002038:	0b 41 9f d0 	MOV        $-48+R6,R1
 200203c:	0c 00 00 0a 	CMP        $10,R1
 2002040:	78 9b ff b8 	BC         @0x02001ffc    // 2001ffc <_vfprintf_r+0x454>
 2002044:	78 83 fc ec 	BRA        @0x02001d34    // 2001d34 <_vfprintf_r+0x18c>
 2002048:	34 00 00 2a 	CMP        $42,R6
 200204c:	78 88 0d 9c 	BZ         @0x02002dec    // 2002dec <_vfprintf_r+0x1244>
 2002050:	34 00 00 2b 	CMP        $43,R6
 2002054:	78 90 00 20 	BLT        @0x02002078    // 2002078 <_vfprintf_r+0x4d0>
 2002058:	78 88 02 54 	BZ         @0x020022b0    // 20022b0 <_vfprintf_r+0x708>
 200205c:	34 00 00 2d 	CMP        $45,R6
 2002060:	78 ab ff 50 	BNZ        @0x02001fb4    // 2001fb4 <_vfprintf_r+0x40c>
 2002064:	40 c0 00 04 	OR         $4,R8
 2002068:	0b 43 00 00 	MOV        R12,R1
 200206c:	63 40 40 01 	MOV        $1+R1,R12
 2002070:	35 84 40 00 	LB         (R1),R6
 2002074:	78 83 fc bc 	BRA        @0x02001d34    // 2001d34 <_vfprintf_r+0x18c>
 2002078:	34 00 00 20 	CMP        $32,R6
 200207c:	78 88 0d 14 	BZ         @0x02002d94    // 2002d94 <_vfprintf_r+0x11ec>
 2002080:	34 00 00 23 	CMP        $35,R6
 2002084:	78 a8 16 68 	BNZ        @0x020036f0    // 20036f0 <_vfprintf_r+0x1b48>
 2002088:	40 c0 00 01 	OR         $1,R8
 200208c:	0b 43 00 00 	MOV        R12,R1
 2002090:	78 83 ff d8 	BRA        @0x0200206c    // 200206c <_vfprintf_r+0x4c4>
 2002094:	34 00 00 6e 	CMP        $110,R6
 2002098:	78 88 0f 20 	BZ         @0x02002fbc    // 2002fbc <_vfprintf_r+0x1414>
 200209c:	34 00 00 6f 	CMP        $111,R6
 20020a0:	78 90 00 f4 	BLT        @0x02002198    // 2002198 <_vfprintf_r+0x5f0>
 20020a4:	34 00 00 73 	CMP        $115,R6
 20020a8:	78 88 0e b4 	BZ         @0x02002f60    // 2002f60 <_vfprintf_r+0x13b8>
 20020ac:	34 00 00 74 	CMP        $116,R6
 20020b0:	78 90 00 7c 	BLT        @0x02002130    // 2002130 <_vfprintf_r+0x588>
 20020b4:	34 00 00 75 	CMP        $117,R6
 20020b8:	78 88 0c ec 	BZ         @0x02002da8    // 2002da8 <_vfprintf_r+0x1200>
 20020bc:	34 00 00 78 	CMP        $120,R6
 20020c0:	78 ab fe f0 	BNZ        @0x02001fb4    // 2001fb4 <_vfprintf_r+0x40c>
 20020c4:	14 00 00 00 	CMP        $0,R2
 20020c8:	1d ef 40 61 	SB.NZ      R3,$97(SP)
 20020cc:	16 00 00 78 	LDI        $120,R2
 20020d0:	0a 03 00 40 	LDI        0x0200efa3,R1  // 200efa3 <__call_exitprocs+0x243>
 20020d4:	0a 40 ef a3 
 20020d8:	0c c7 40 48 	SW         R1,$72(SP)
 20020dc:	8f c0 89 10 	MOV        R8,R1         | AND        $16,R1
 20020e0:	78 88 03 14 	BZ         @0x020023f8    // 20023f8 <_vfprintf_r+0x850>
 20020e4:	8c 24 9c 88 	LW         36(SP),R1     | LW         (R1),R3
 20020e8:	24 84 40 04 	LW         4(R1),R4
 20020ec:	9d 28 a5 2c 	SW         R3,$40(SP)    | SW         R4,$44(SP)
 20020f0:	0b 40 40 08 	MOV        $8+R1,R1
 20020f4:	0c c7 40 24 	SW         R1,$36(SP)
 20020f8:	8f c0 89 01 	MOV        R8,R1         | AND        $1,R1
 20020fc:	78 88 03 24 	BZ         @0x02002424    // 2002424 <_vfprintf_r+0x87c>
 2002100:	9c 28 a4 2c 	LW         40(SP),R3     | LW         44(SP),R4
 2002104:	1c 00 00 00 	CMP        $0,R3
 2002108:	24 08 00 00 	CMP.Z      $0,R4
 200210c:	78 88 03 14 	BZ         @0x02002424    // 2002424 <_vfprintf_r+0x87c>
 2002110:	0e 00 00 30 	LDI        $48,R1
 2002114:	0d c7 40 62 	SB         R1,$98(SP)
 2002118:	15 c7 40 63 	SB         R2,$99(SP)
 200211c:	40 c0 00 02 	OR         $2,R8
 2002120:	96 02 8e 00 	LDI        $2,R2         | CLR        R1
 2002124:	0d c7 40 61 	SB         R1,$97(SP)
 2002128:	2e 00 00 00 	CLR        R5
 200212c:	78 83 fc 70 	BRA        @0x02001da0    // 2001da0 <_vfprintf_r+0x1f8>
 2002130:	34 00 00 70 	CMP        $112,R6
 2002134:	78 88 0d e8 	BZ         @0x02002f20    // 2002f20 <_vfprintf_r+0x1378>
 2002138:	34 00 00 71 	CMP        $113,R6
 200213c:	78 a8 00 0c 	BNZ        @0x0200214c    // 200214c <_vfprintf_r+0x5a4>
 2002140:	40 c0 00 10 	OR         $16,R8
 2002144:	0b 43 00 00 	MOV        R12,R1
 2002148:	78 83 ff 20 	BRA        @0x0200206c    // 200206c <_vfprintf_r+0x4c4>
 200214c:	34 00 00 6f 	CMP        $111,R6
 2002150:	78 ab fe 60 	BNZ        @0x02001fb4    // 2001fb4 <_vfprintf_r+0x40c>
 2002154:	14 00 00 00 	CMP        $0,R2
 2002158:	1d ef 40 61 	SB.NZ      R3,$97(SP)
 200215c:	97 c0 91 10 	MOV        R8,R2         | AND        $16,R2
 2002160:	78 ab fc 1c 	BNZ        @0x02001d80    // 2001d80 <_vfprintf_r+0x1d8>
 2002164:	24 87 40 24 	LW         36(SP),R4
 2002168:	1b 41 00 04 	MOV        $4+R4,R3
 200216c:	0b 42 00 00 	MOV        R8,R1
 2002170:	08 40 00 40 	AND        $64,R1
 2002174:	78 88 0f 40 	BZ         @0x020030b8    // 20030b8 <_vfprintf_r+0x1510>
 2002178:	0c 85 00 00 	LW         (R4),R1
 200217c:	08 40 ff ff 	AND        $65535,R1
 2002180:	8d 2c 95 28 	SW         R1,$44(SP)    | SW         R2,$40(SP)
 2002184:	9d 24 96 00 	SW         R3,$36(SP)    | CLR        R2
 2002188:	0e 00 00 00 	CLR        R1
 200218c:	0d c7 40 61 	SB         R1,$97(SP)
 2002190:	2e 00 00 00 	CLR        R5
 2002194:	78 83 fc 08 	BRA        @0x02001da0    // 2001da0 <_vfprintf_r+0x1f8>
 2002198:	34 00 00 68 	CMP        $104,R6
 200219c:	78 b0 00 ec 	BGE        @0x0200228c    // 200228c <_vfprintf_r+0x6e4>
 20021a0:	34 00 00 65 	CMP        $101,R6
 20021a4:	78 b0 01 54 	BGE        @0x020022fc    // 20022fc <_vfprintf_r+0x754>
 20021a8:	34 00 00 63 	CMP        $99,R6
 20021ac:	78 88 0b c0 	BZ         @0x02002d70    // 2002d70 <_vfprintf_r+0x11c8>
 20021b0:	34 00 00 64 	CMP        $100,R6
 20021b4:	78 a8 00 a8 	BNZ        @0x02002260    // 2002260 <_vfprintf_r+0x6b8>
 20021b8:	14 00 00 00 	CMP        $0,R2
 20021bc:	1d ef 40 61 	SB.NZ      R3,$97(SP)
 20021c0:	8f c0 89 10 	MOV        R8,R1         | AND        $16,R1
 20021c4:	78 a8 0c 80 	BNZ        @0x02002e48    // 2002e48 <_vfprintf_r+0x12a0>
 20021c8:	1c 87 40 24 	LW         36(SP),R3
 20021cc:	13 40 c0 04 	MOV        $4+R3,R2
 20021d0:	0b 42 00 00 	MOV        R8,R1
 20021d4:	08 40 00 40 	AND        $64,R1
 20021d8:	78 88 0f 6c 	BZ         @0x02003148    // 2003148 <_vfprintf_r+0x15a0>
 20021dc:	0c 84 c0 00 	LW         (R3),R1
 20021e0:	09 80 00 10 	LSL        $16,R1
 20021e4:	09 c0 00 10 	ASR        $16,R1
 20021e8:	8d 2c 9f 88 	SW         R1,$44(SP)    | MOV        R1,R3
 20021ec:	19 c0 00 1f 	ASR        $31,R3
 20021f0:	1c c7 40 28 	SW         R3,$40(SP)
 20021f4:	0c c7 40 58 	SW         R1,$88(SP)
 20021f8:	1c c7 40 54 	SW         R3,$84(SP)
 20021fc:	14 c7 40 24 	SW         R2,$36(SP)
 2002200:	0c 87 40 54 	LW         84(SP),R1
 2002204:	14 87 40 58 	LW         88(SP),R2
 2002208:	0c 00 00 00 	CMP        $0,R1
 200220c:	78 90 0c 70 	BLT        @0x02002e80    // 2002e80 <_vfprintf_r+0x12d8>
 2002210:	2d 87 40 61 	LB         97(SP),R5
 2002214:	3c 03 ff ff 	CMP        $-1,R7
 2002218:	78 88 09 8c 	BZ         @0x02002ba8    // 2002ba8 <_vfprintf_r+0x1000>
 200221c:	40 43 ff 7f 	AND        $-129,R8
 2002220:	c5 14 94 28 	SW         R8,$20(SP)    | LW         40(SP),R2
 2002224:	9c 2c 8f 90 	LW         44(SP),R3     | MOV        R2,R1
 2002228:	08 c4 c0 00 	OR         R3,R1
 200222c:	16 00 00 00 	CLR        R2
 2002230:	10 e8 00 01 	OR.NZ      $1,R2
 2002234:	bb 00 8e 00 	CMP        $0,R7         | CLR        R1
 2002238:	08 e8 00 01 	OR.NZ      $1,R1
 200223c:	10 c4 40 00 	OR         R1,R2
 2002240:	78 a8 09 64 	BNZ        @0x02002ba8    // 2002ba8 <_vfprintf_r+0x1000>
 2002244:	be 00 95 1c 	CLR        R7            | SW         R2,$28(SP)
 2002248:	5b 43 40 b0 	MOV        $176+SP,R11
 200224c:	8f 90 8b b8 	MOV        R2,R1         | CMP        R7,R1
 2002250:	0b 51 c0 00 	MOV.LT     R7,R1
 2002254:	8d 10 8e 00 	SW         R1,$16(SP)    | CLR        R1
 2002258:	0c c7 40 34 	SW         R1,$52(SP)
 200225c:	78 83 fb a8 	BRA        @0x02001e08    // 2001e08 <_vfprintf_r+0x260>
 2002260:	34 00 00 58 	CMP        $88,R6
 2002264:	78 ab fd 4c 	BNZ        @0x02001fb4    // 2001fb4 <_vfprintf_r+0x40c>
 2002268:	14 00 00 00 	CMP        $0,R2
 200226c:	1d ef 40 61 	SB.NZ      R3,$97(SP)
 2002270:	16 00 00 58 	LDI        $88,R2
 2002274:	0a 03 00 40 	LDI        0x0200efb4,R1  // 200efb4 <__call_exitprocs+0x254>
 2002278:	0a 40 ef b4 
 200227c:	0c c7 40 48 	SW         R1,$72(SP)
 2002280:	8f c0 89 10 	MOV        R8,R1         | AND        $16,R1
 2002284:	78 88 01 70 	BZ         @0x020023f8    // 20023f8 <_vfprintf_r+0x850>
 2002288:	78 83 fe 58 	BRA        @0x020020e4    // 20020e4 <_vfprintf_r+0x53c>
 200228c:	34 00 00 69 	CMP        $105,R6
 2002290:	78 8b ff 24 	BZ         @0x020021b8    // 20021b8 <_vfprintf_r+0x610>
 2002294:	34 00 00 6c 	CMP        $108,R6
 2002298:	78 8b fe a4 	BZ         @0x02002140    // 2002140 <_vfprintf_r+0x598>
 200229c:	34 00 00 68 	CMP        $104,R6
 20022a0:	78 ab fd 10 	BNZ        @0x02001fb4    // 2001fb4 <_vfprintf_r+0x40c>
 20022a4:	40 c0 00 40 	OR         $64,R8
 20022a8:	0b 43 00 00 	MOV        R12,R1
 20022ac:	78 83 fd bc 	BRA        @0x0200206c    // 200206c <_vfprintf_r+0x4c4>
 20022b0:	97 a0 9f b0 	MOV        R4,R2         | MOV        R6,R3
 20022b4:	0b 43 00 00 	MOV        R12,R1
 20022b8:	78 83 fd b0 	BRA        @0x0200206c    // 200206c <_vfprintf_r+0x4c4>
 20022bc:	4b 41 80 00 	MOV        R6,R9
 20022c0:	0d 06 40 0c 	LH         12(R9),R1
 20022c4:	08 40 00 40 	AND        $64,R1
 20022c8:	78 a8 17 44 	BNZ        @0x02003a10    // 2003a10 <_vfprintf_r+0x1e68>
 20022cc:	0c 87 40 18 	LW         24(SP),R1
 20022d0:	04 87 40 f0 	LW         240(SP),R0
 20022d4:	2c 87 40 f4 	LW         244(SP),R5
 20022d8:	34 87 40 f8 	LW         248(SP),R6
 20022dc:	3c 87 40 fc 	LW         252(SP),R7
 20022e0:	44 87 41 00 	LW         256(SP),R8
 20022e4:	4c 87 41 04 	LW         260(SP),R9
 20022e8:	54 87 41 08 	LW         264(SP),R10
 20022ec:	5c 87 41 0c 	LW         268(SP),R11
 20022f0:	64 87 41 10 	LW         272(SP),R12
 20022f4:	68 80 01 14 	ADD        $276,SP
 20022f8:	7b 40 00 00 	RTN
 20022fc:	14 00 00 00 	CMP        $0,R2
 2002300:	1d ef 40 61 	SB.NZ      R3,$97(SP)
 2002304:	04 87 40 24 	LW         36(SP),R0
 2002308:	0b 40 00 08 	MOV        $8+R0,R1
 200230c:	8d 30 8c 80 	SW         R1,$48(SP)    | LW         (R0),R1
 2002310:	0c c7 40 40 	SW         R1,$64(SP)
 2002314:	04 84 00 04 	LW         4(R0),R0
 2002318:	85 3c df 88 	SW         R0,$60(SP)    | MOV        R1,R11
 200231c:	13 40 00 00 	MOV        R0,R2
 2002320:	0a 03 ff fe 	BREV       $-2,R1
 2002324:	58 44 40 00 	AND        R1,R11
 2002328:	1a 03 f7 fe 	BREV       $-2050,R3
 200232c:	a6 ff 8f d8 	LDI        $-1,R4        | MOV        R11,R1
 2002330:	87 fa fc f8 	JSR        0x0200e36c     // 200e36c <__unorddf2>
 2002334:	02 00 e3 6c 
 2002338:	af 88 8b 00 	MOV        R1,R5         | CMP        $0,R1
 200233c:	78 a8 0e 34 	BNZ        @0x02003174    // 2003174 <_vfprintf_r+0x15cc>
 2002340:	1a 03 f7 fe 	BREV       $-2050,R3
 2002344:	a6 ff 8f d8 	LDI        $-1,R4        | MOV        R11,R1
 2002348:	dc 3c 97 d8 	LW         60(SP),R11    | MOV        R11,R2
 200234c:	87 fa fc f8 	JSR        0x0200e310     // 200e310 <__ledf2>
 2002350:	02 00 e3 10 
 2002354:	0c 00 00 01 	CMP        $1,R1
 2002358:	78 90 0e 18 	BLT        @0x02003174    // 2003174 <_vfprintf_r+0x15cc>
 200235c:	9e 00 a7 a8 	CLR        R3            | MOV        R5,R4
 2002360:	0c 87 40 40 	LW         64(SP),R1
 2002364:	13 42 c0 00 	MOV        R11,R2
 2002368:	87 fa fc f8 	JSR        0x0200e2b4     // 200e2b4 <__ltdf2>
 200236c:	02 00 e2 b4 
 2002370:	0c 00 00 00 	CMP        $0,R1
 2002374:	78 90 15 04 	BLT        @0x0200387c    // 200387c <_vfprintf_r+0x1cd4>
 2002378:	2d 87 40 61 	LB         97(SP),R5
 200237c:	34 00 00 48 	CMP        $72,R6
 2002380:	5a 33 00 40 	LDI.GE     0x0200ef97,R11 // 200ef97 <__call_exitprocs+0x237>
 2002384:	5a 70 ef 97 
 2002388:	5a 13 00 40 	LDI.LT     0x0200ef93,R11 // 200ef93 <__call_exitprocs+0x233>
 200238c:	5a 50 ef 93 
 2002390:	40 43 ff 7f 	AND        $-129,R8
 2002394:	c5 14 8c 30 	SW         R8,$20(SP)    | LW         48(SP),R1
 2002398:	8d 24 8e 03 	SW         R1,$36(SP)    | LDI        $3,R1
 200239c:	8d 10 8d 1c 	SW         R1,$16(SP)    | SW         R1,$28(SP)
 20023a0:	be 00 bd 34 	CLR        R7            | SW         R7,$52(SP)
 20023a4:	2c 00 00 00 	CMP        $0,R5
 20023a8:	78 ab fa 64 	BNZ        @0x02001e10    // 2001e10 <_vfprintf_r+0x268>
 20023ac:	78 83 fa 68 	BRA        @0x02001e18    // 2001e18 <_vfprintf_r+0x270>
 20023b0:	0d 06 40 0e 	LH         14(R9),R1
 20023b4:	09 80 00 10 	LSL        $16,R1
 20023b8:	09 c0 00 10 	ASR        $16,R1
 20023bc:	0c 00 00 00 	CMP        $0,R1
 20023c0:	78 93 f8 a0 	BLT        @0x02001c64    // 2001c64 <_vfprintf_r+0xbc>
 20023c4:	a4 24 9f d8 	LW         36(SP),R4     | MOV        R11,R3
 20023c8:	97 c8 8c 20 	MOV        R9,R2         | LW         32(SP),R1
 20023cc:	04 87 40 f0 	LW         240(SP),R0
 20023d0:	2c 87 40 f4 	LW         244(SP),R5
 20023d4:	34 87 40 f8 	LW         248(SP),R6
 20023d8:	3c 87 40 fc 	LW         252(SP),R7
 20023dc:	44 87 41 00 	LW         256(SP),R8
 20023e0:	4c 87 41 04 	LW         260(SP),R9
 20023e4:	54 87 41 08 	LW         264(SP),R10
 20023e8:	5c 87 41 0c 	LW         268(SP),R11
 20023ec:	64 87 41 10 	LW         272(SP),R12
 20023f0:	68 80 01 14 	ADD        $276,SP
 20023f4:	78 80 19 2c 	BRA        @0x02003d24    // 2003d24 <__sbprintf>
 20023f8:	2c 87 40 24 	LW         36(SP),R5
 20023fc:	23 41 40 04 	MOV        $4+R5,R4
 2002400:	1b 42 00 00 	MOV        R8,R3
 2002404:	18 40 00 40 	AND        $64,R3
 2002408:	78 88 0d 5c 	BZ         @0x02003168    // 2003168 <_vfprintf_r+0x15c0>
 200240c:	1c 85 40 00 	LW         (R5),R3
 2002410:	18 40 ff ff 	AND        $65535,R3
 2002414:	9d 2c 8d 28 	SW         R3,$44(SP)    | SW         R1,$40(SP)
 2002418:	a5 24 8f c0 	SW         R4,$36(SP)    | MOV        R8,R1
 200241c:	08 40 00 01 	AND        $1,R1
 2002420:	78 ab fc dc 	BNZ        @0x02002100    // 2002100 <_vfprintf_r+0x558>
 2002424:	96 02 8e 00 	LDI        $2,R2         | CLR        R1
 2002428:	0d c7 40 61 	SB         R1,$97(SP)
 200242c:	2e 00 00 00 	CLR        R5
 2002430:	78 83 f9 6c 	BRA        @0x02001da0    // 2001da0 <_vfprintf_r+0x1f8>
 2002434:	c4 0c 8c 10 	LW         12(SP),R8     | LW         16(SP),R1
 2002438:	c0 88 c3 01 	SUB        R1,R8         | CMP        $1,R8
 200243c:	78 93 fa 7c 	BLT        @0x02001ebc    // 2001ebc <_vfprintf_r+0x314>
 2002440:	0c 87 40 80 	LW         128(SP),R1
 2002444:	44 00 00 11 	CMP        $17,R8
 2002448:	78 90 00 48 	BLT        @0x02002494    // 2002494 <_vfprintf_r+0x8ec>
 200244c:	b5 30 b4 20 	SW         R6,$48(SP)    | LW         32(SP),R6
 2002450:	97 c8 cf c0 	MOV        R9,R2         | MOV        R8,R9
 2002454:	c7 b8 bf 90 	MOV        R7,R8         | MOV        R2,R7
 2002458:	12 03 00 40 	LDI        0x0200efce,R2  // 200efce <zeroes.0>
 200245c:	12 40 ef ce 
 2002460:	95 d0 96 10 	SW         R2,(R10)      | LDI        $16,R2
 2002464:	14 c6 80 04 	SW         R2,$4(R10)
 2002468:	28 84 80 00 	ADD        R2,R5
 200246c:	2c c7 40 84 	SW         R5,$132(SP)
 2002470:	08 80 00 01 	ADD        $1,R1
 2002474:	0c c7 40 80 	SW         R1,$128(SP)
 2002478:	d2 08 8b 08 	ADD        $8,R10        | CMP        $8,R1
 200247c:	78 b0 00 6c 	BGE        @0x020024ec    // 20024ec <_vfprintf_r+0x944>
 2002480:	ca 70 cb 11 	ADD        $-16,R9       | CMP        $17,R9
 2002484:	78 b3 ff d0 	BGE        @0x02002458    // 2002458 <_vfprintf_r+0x8b0>
 2002488:	b4 30 97 b8 	LW         48(SP),R6     | MOV        R7,R2
 200248c:	bf c0 c7 c8 	MOV        R8,R7         | MOV        R9,R8
 2002490:	4b 40 80 00 	MOV        R2,R9
 2002494:	12 03 00 40 	LDI        0x0200efce,R2  // 200efce <zeroes.0>
 2002498:	12 40 ef ce 
 200249c:	14 c6 80 00 	SW         R2,(R10)
 20024a0:	44 c6 80 04 	SW         R8,$4(R10)
 20024a4:	28 86 00 00 	ADD        R8,R5
 20024a8:	2c c7 40 84 	SW         R5,$132(SP)
 20024ac:	08 80 00 01 	ADD        $1,R1
 20024b0:	0c c7 40 80 	SW         R1,$128(SP)
 20024b4:	d2 08 8b 08 	ADD        $8,R10        | CMP        $8,R1
 20024b8:	78 93 fa 00 	BLT        @0x02001ebc    // 2001ebc <_vfprintf_r+0x314>
 20024bc:	1b 43 40 7c 	MOV        $124+SP,R3
 20024c0:	97 c8 8c 20 	MOV        R9,R2         | LW         32(SP),R1
 20024c4:	87 fa fc f8 	JSR        0x020090e4     // 20090e4 <__sprint_r>
 20024c8:	02 00 90 e4 
 20024cc:	0c 00 00 00 	CMP        $0,R1
 20024d0:	78 ab fd ec 	BNZ        @0x020022c0    // 20022c0 <_vfprintf_r+0x718>
 20024d4:	2c 87 40 84 	LW         132(SP),R5
 20024d8:	53 43 40 b0 	MOV        $176+SP,R10
 20024dc:	8c 1c b8 88 	LW         28(SP),R1     | SUB        R1,R7
 20024e0:	3c 00 00 01 	CMP        $1,R7
 20024e4:	78 93 f9 e0 	BLT        @0x02001ec8    // 2001ec8 <_vfprintf_r+0x320>
 20024e8:	78 80 00 30 	BRA        @0x0200251c    // 200251c <_vfprintf_r+0x974>
 20024ec:	1b 43 40 7c 	MOV        $124+SP,R3
 20024f0:	97 b8 8f b0 	MOV        R7,R2         | MOV        R6,R1
 20024f4:	87 fa fc f8 	JSR        0x020090e4     // 20090e4 <__sprint_r>
 20024f8:	02 00 90 e4 
 20024fc:	0c 00 00 00 	CMP        $0,R1
 2002500:	78 a8 11 d8 	BNZ        @0x020036dc    // 20036dc <_vfprintf_r+0x1b34>
 2002504:	2c 87 40 84 	LW         132(SP),R5
 2002508:	0c 87 40 80 	LW         128(SP),R1
 200250c:	53 43 40 b0 	MOV        $176+SP,R10
 2002510:	ca 70 cb 11 	ADD        $-16,R9       | CMP        $17,R9
 2002514:	78 b3 ff 40 	BGE        @0x02002458    // 2002458 <_vfprintf_r+0x8b0>
 2002518:	78 83 ff 6c 	BRA        @0x02002488    // 2002488 <_vfprintf_r+0x8e0>
 200251c:	0c 87 40 80 	LW         128(SP),R1
 2002520:	3c 00 00 11 	CMP        $17,R7
 2002524:	78 90 00 34 	BLT        @0x0200255c    // 200255c <_vfprintf_r+0x9b4>
 2002528:	44 87 40 20 	LW         32(SP),R8
 200252c:	12 03 00 40 	LDI        0x0200efce,R2  // 200efce <zeroes.0>
 2002530:	12 40 ef ce 
 2002534:	95 d0 96 10 	SW         R2,(R10)      | LDI        $16,R2
 2002538:	14 c6 80 04 	SW         R2,$4(R10)
 200253c:	28 84 80 00 	ADD        R2,R5
 2002540:	2c c7 40 84 	SW         R5,$132(SP)
 2002544:	08 80 00 01 	ADD        $1,R1
 2002548:	0c c7 40 80 	SW         R1,$128(SP)
 200254c:	d2 08 8b 08 	ADD        $8,R10        | CMP        $8,R1
 2002550:	78 b0 01 7c 	BGE        @0x020026d0    // 20026d0 <_vfprintf_r+0xb28>
 2002554:	ba 70 bb 11 	ADD        $-16,R7       | CMP        $17,R7
 2002558:	78 b3 ff d0 	BGE        @0x0200252c    // 200252c <_vfprintf_r+0x984>
 200255c:	12 03 00 40 	LDI        0x0200efce,R2  // 200efce <zeroes.0>
 2002560:	12 40 ef ce 
 2002564:	14 c6 80 00 	SW         R2,(R10)
 2002568:	3c c6 80 04 	SW         R7,$4(R10)
 200256c:	28 85 c0 00 	ADD        R7,R5
 2002570:	2c c7 40 84 	SW         R5,$132(SP)
 2002574:	08 80 00 01 	ADD        $1,R1
 2002578:	0c c7 40 80 	SW         R1,$128(SP)
 200257c:	d2 08 8b 08 	ADD        $8,R10        | CMP        $8,R1
 2002580:	78 93 f9 44 	BLT        @0x02001ec8    // 2001ec8 <_vfprintf_r+0x320>
 2002584:	1b 43 40 7c 	MOV        $124+SP,R3
 2002588:	97 c8 8c 20 	MOV        R9,R2         | LW         32(SP),R1
 200258c:	87 fa fc f8 	JSR        0x020090e4     // 20090e4 <__sprint_r>
 2002590:	02 00 90 e4 
 2002594:	0c 00 00 00 	CMP        $0,R1
 2002598:	78 ab fd 24 	BNZ        @0x020022c0    // 20022c0 <_vfprintf_r+0x718>
 200259c:	2c 87 40 84 	LW         132(SP),R5
 20025a0:	53 43 40 b0 	MOV        $176+SP,R10
 20025a4:	0c 87 40 14 	LW         20(SP),R1
 20025a8:	08 40 01 00 	AND        $256,R1
 20025ac:	78 8b f9 24 	BZ         @0x02001ed4    // 2001ed4 <_vfprintf_r+0x32c>
 20025b0:	34 00 00 66 	CMP        $102,R6
 20025b4:	78 90 04 24 	BLT        @0x020029dc    // 20029dc <_vfprintf_r+0xe34>
 20025b8:	9e 00 a6 00 	CLR        R3            | CLR        R4
 20025bc:	0c 87 40 40 	LW         64(SP),R1
 20025c0:	14 87 40 3c 	LW         60(SP),R2
 20025c4:	87 fa fc f8 	JSR        0x0200e1a0     // 200e1a0 <__eqdf2>
 20025c8:	02 00 e1 a0 
 20025cc:	0c 00 00 00 	CMP        $0,R1
 20025d0:	78 a8 06 10 	BNZ        @0x02002be4    // 2002be4 <_vfprintf_r+0x103c>
 20025d4:	0a 03 00 40 	LDI        0x0200efcc,R1  // 200efcc <__call_exitprocs+0x26c>
 20025d8:	0a 40 ef cc 
 20025dc:	8d d0 8e 01 	SW         R1,(R10)      | LDI        $1,R1
 20025e0:	0c c6 80 04 	SW         R1,$4(R10)
 20025e4:	28 84 40 00 	ADD        R1,R5
 20025e8:	2c c7 40 84 	SW         R5,$132(SP)
 20025ec:	0c 87 40 80 	LW         128(SP),R1
 20025f0:	08 80 00 01 	ADD        $1,R1
 20025f4:	0c c7 40 80 	SW         R1,$128(SP)
 20025f8:	d2 08 8b 08 	ADD        $8,R10        | CMP        $8,R1
 20025fc:	78 b0 0d 2c 	BGE        @0x0200332c    // 200332c <_vfprintf_r+0x1784>
 2002600:	0c 87 40 64 	LW         100(SP),R1
 2002604:	94 38 8b 90 	LW         56(SP),R2     | CMP        R2,R1
 2002608:	78 b0 0a 74 	BGE        @0x02003080    // 2003080 <_vfprintf_r+0x14d8>
 200260c:	0c 87 40 4c 	LW         76(SP),R1
 2002610:	0c c6 80 00 	SW         R1,(R10)
 2002614:	0c 87 40 44 	LW         68(SP),R1
 2002618:	0c c6 80 04 	SW         R1,$4(R10)
 200261c:	28 84 40 00 	ADD        R1,R5
 2002620:	2c c7 40 84 	SW         R5,$132(SP)
 2002624:	0c 87 40 80 	LW         128(SP),R1
 2002628:	08 80 00 01 	ADD        $1,R1
 200262c:	0c c7 40 80 	SW         R1,$128(SP)
 2002630:	d2 08 8b 08 	ADD        $8,R10        | CMP        $8,R1
 2002634:	78 b0 0e 30 	BGE        @0x02003468    // 2003468 <_vfprintf_r+0x18c0>
 2002638:	b4 38 b2 7f 	LW         56(SP),R6     | ADD        $-1,R6
 200263c:	34 00 00 01 	CMP        $1,R6
 2002640:	78 93 f8 b8 	BLT        @0x02001efc    // 2001efc <_vfprintf_r+0x354>
 2002644:	0c 87 40 80 	LW         128(SP),R1
 2002648:	34 00 00 11 	CMP        $17,R6
 200264c:	78 90 00 34 	BLT        @0x02002684    // 2002684 <_vfprintf_r+0xadc>
 2002650:	3c 87 40 20 	LW         32(SP),R7
 2002654:	12 03 00 40 	LDI        0x0200efce,R2  // 200efce <zeroes.0>
 2002658:	12 40 ef ce 
 200265c:	95 d0 96 10 	SW         R2,(R10)      | LDI        $16,R2
 2002660:	14 c6 80 04 	SW         R2,$4(R10)
 2002664:	28 84 80 00 	ADD        R2,R5
 2002668:	2c c7 40 84 	SW         R5,$132(SP)
 200266c:	08 80 00 01 	ADD        $1,R1
 2002670:	0c c7 40 80 	SW         R1,$128(SP)
 2002674:	d2 08 8b 08 	ADD        $8,R10        | CMP        $8,R1
 2002678:	78 b0 0d bc 	BGE        @0x02003438    // 2003438 <_vfprintf_r+0x1890>
 200267c:	b2 70 b3 11 	ADD        $-16,R6       | CMP        $17,R6
 2002680:	78 b3 ff d0 	BGE        @0x02002654    // 2002654 <_vfprintf_r+0xaac>
 2002684:	12 03 00 40 	LDI        0x0200efce,R2  // 200efce <zeroes.0>
 2002688:	12 40 ef ce 
 200268c:	14 c6 80 00 	SW         R2,(R10)
 2002690:	34 c6 80 04 	SW         R6,$4(R10)
 2002694:	28 85 80 00 	ADD        R6,R5
 2002698:	2c c7 40 84 	SW         R5,$132(SP)
 200269c:	08 80 00 01 	ADD        $1,R1
 20026a0:	0c c7 40 80 	SW         R1,$128(SP)
 20026a4:	0c 00 00 08 	CMP        $8,R1
 20026a8:	78 93 f8 4c 	BLT        @0x02001ef8    // 2001ef8 <_vfprintf_r+0x350>
 20026ac:	1b 43 40 7c 	MOV        $124+SP,R3
 20026b0:	97 c8 8c 20 	MOV        R9,R2         | LW         32(SP),R1
 20026b4:	87 fa fc f8 	JSR        0x020090e4     // 20090e4 <__sprint_r>
 20026b8:	02 00 90 e4 
 20026bc:	0c 00 00 00 	CMP        $0,R1
 20026c0:	78 ab fb fc 	BNZ        @0x020022c0    // 20022c0 <_vfprintf_r+0x718>
 20026c4:	2c 87 40 84 	LW         132(SP),R5
 20026c8:	53 43 40 b0 	MOV        $176+SP,R10
 20026cc:	78 83 f8 2c 	BRA        @0x02001efc    // 2001efc <_vfprintf_r+0x354>
 20026d0:	1b 43 40 7c 	MOV        $124+SP,R3
 20026d4:	97 c8 8f c0 	MOV        R9,R2         | MOV        R8,R1
 20026d8:	87 fa fc f8 	JSR        0x020090e4     // 20090e4 <__sprint_r>
 20026dc:	02 00 90 e4 
 20026e0:	0c 00 00 00 	CMP        $0,R1
 20026e4:	78 ab fb d8 	BNZ        @0x020022c0    // 20022c0 <_vfprintf_r+0x718>
 20026e8:	2c 87 40 84 	LW         132(SP),R5
 20026ec:	0c 87 40 80 	LW         128(SP),R1
 20026f0:	53 43 40 b0 	MOV        $176+SP,R10
 20026f4:	ba 70 bb 11 	ADD        $-16,R7       | CMP        $17,R7
 20026f8:	78 b3 fe 30 	BGE        @0x0200252c    // 200252c <_vfprintf_r+0x984>
 20026fc:	78 83 fe 5c 	BRA        @0x0200255c    // 200255c <_vfprintf_r+0x9b4>
 2002700:	1b 43 40 7c 	MOV        $124+SP,R3
 2002704:	97 c8 8c 20 	MOV        R9,R2         | LW         32(SP),R1
 2002708:	87 fa fc f8 	JSR        0x020090e4     // 20090e4 <__sprint_r>
 200270c:	02 00 90 e4 
 2002710:	0c 00 00 00 	CMP        $0,R1
 2002714:	78 ab fb a8 	BNZ        @0x020022c0    // 20022c0 <_vfprintf_r+0x718>
 2002718:	0e 00 00 00 	CLR        R1
 200271c:	0c c7 40 80 	SW         R1,$128(SP)
 2002720:	53 43 40 b0 	MOV        $176+SP,R10
 2002724:	78 83 f8 0c 	BRA        @0x02001f34    // 2001f34 <_vfprintf_r+0x38c>
 2002728:	0c 87 40 80 	LW         128(SP),R1
 200272c:	44 00 00 11 	CMP        $17,R8
 2002730:	78 90 00 54 	BLT        @0x02002788    // 2002788 <_vfprintf_r+0xbe0>
 2002734:	24 c7 40 5c 	SW         R4,$92(SP)
 2002738:	9f a8 ac 20 	MOV        R5,R3         | LW         32(SP),R5
 200273c:	97 c8 cf c0 	MOV        R9,R2         | MOV        R8,R9
 2002740:	c7 b8 bf b0 	MOV        R7,R8         | MOV        R6,R7
 2002744:	33 40 80 00 	MOV        R2,R6
 2002748:	12 03 00 40 	LDI        0x0200efde,R2  // 200efde <blanks.1>
 200274c:	12 40 ef de 
 2002750:	95 d0 96 10 	SW         R2,(R10)      | LDI        $16,R2
 2002754:	14 c6 80 04 	SW         R2,$4(R10)
 2002758:	18 84 80 00 	ADD        R2,R3
 200275c:	1c c7 40 84 	SW         R3,$132(SP)
 2002760:	08 80 00 01 	ADD        $1,R1
 2002764:	0c c7 40 80 	SW         R1,$128(SP)
 2002768:	d2 08 8b 08 	ADD        $8,R10        | CMP        $8,R1
 200276c:	78 b0 00 6c 	BGE        @0x020027dc    // 20027dc <_vfprintf_r+0xc34>
 2002770:	ca 70 cb 11 	ADD        $-16,R9       | CMP        $17,R9
 2002774:	78 b3 ff d0 	BGE        @0x02002748    // 2002748 <_vfprintf_r+0xba0>
 2002778:	24 87 40 5c 	LW         92(SP),R4
 200277c:	af 98 97 b0 	MOV        R3,R5         | MOV        R6,R2
 2002780:	b7 b8 bf c0 	MOV        R7,R6         | MOV        R8,R7
 2002784:	c7 c8 cf 90 	MOV        R9,R8         | MOV        R2,R9
 2002788:	12 03 00 40 	LDI        0x0200efde,R2  // 200efde <blanks.1>
 200278c:	12 40 ef de 
 2002790:	14 c6 80 00 	SW         R2,(R10)
 2002794:	44 c6 80 04 	SW         R8,$4(R10)
 2002798:	28 86 00 00 	ADD        R8,R5
 200279c:	2c c7 40 84 	SW         R5,$132(SP)
 20027a0:	08 80 00 01 	ADD        $1,R1
 20027a4:	0c c7 40 80 	SW         R1,$128(SP)
 20027a8:	d2 08 8b 08 	ADD        $8,R10        | CMP        $8,R1
 20027ac:	78 93 f6 9c 	BLT        @0x02001e4c    // 2001e4c <_vfprintf_r+0x2a4>
 20027b0:	24 c7 40 5c 	SW         R4,$92(SP)
 20027b4:	1b 43 40 7c 	MOV        $124+SP,R3
 20027b8:	97 c8 8c 20 	MOV        R9,R2         | LW         32(SP),R1
 20027bc:	87 fa fc f8 	JSR        0x020090e4     // 20090e4 <__sprint_r>
 20027c0:	02 00 90 e4 
 20027c4:	0c 00 00 00 	CMP        $0,R1
 20027c8:	78 ab fa f4 	BNZ        @0x020022c0    // 20022c0 <_vfprintf_r+0x718>
 20027cc:	2c 87 40 84 	LW         132(SP),R5
 20027d0:	53 43 40 b0 	MOV        $176+SP,R10
 20027d4:	24 87 40 5c 	LW         92(SP),R4
 20027d8:	78 83 f6 70 	BRA        @0x02001e4c    // 2001e4c <_vfprintf_r+0x2a4>
 20027dc:	1b 43 40 7c 	MOV        $124+SP,R3
 20027e0:	97 b0 8f a8 	MOV        R6,R2         | MOV        R5,R1
 20027e4:	87 fa fc f8 	JSR        0x020090e4     // 20090e4 <__sprint_r>
 20027e8:	02 00 90 e4 
 20027ec:	0c 00 00 00 	CMP        $0,R1
 20027f0:	78 ab fa c8 	BNZ        @0x020022bc    // 20022bc <_vfprintf_r+0x714>
 20027f4:	1c 87 40 84 	LW         132(SP),R3
 20027f8:	0c 87 40 80 	LW         128(SP),R1
 20027fc:	53 43 40 b0 	MOV        $176+SP,R10
 2002800:	ca 70 cb 11 	ADD        $-16,R9       | CMP        $17,R9
 2002804:	78 b3 ff 40 	BGE        @0x02002748    // 2002748 <_vfprintf_r+0xba0>
 2002808:	78 83 ff 6c 	BRA        @0x02002778    // 2002778 <_vfprintf_r+0xbd0>
 200280c:	24 c7 40 5c 	SW         R4,$92(SP)
 2002810:	1b 43 40 7c 	MOV        $124+SP,R3
 2002814:	97 c8 8c 20 	MOV        R9,R2         | LW         32(SP),R1
 2002818:	87 fa fc f8 	JSR        0x020090e4     // 20090e4 <__sprint_r>
 200281c:	02 00 90 e4 
 2002820:	0c 00 00 00 	CMP        $0,R1
 2002824:	78 ab fa 98 	BNZ        @0x020022c0    // 20022c0 <_vfprintf_r+0x718>
 2002828:	2c 87 40 84 	LW         132(SP),R5
 200282c:	53 43 40 b0 	MOV        $176+SP,R10
 2002830:	24 87 40 5c 	LW         92(SP),R4
 2002834:	78 83 f6 48 	BRA        @0x02001e80    // 2001e80 <_vfprintf_r+0x2d8>
 2002838:	1b 43 40 7c 	MOV        $124+SP,R3
 200283c:	97 c8 8c 20 	MOV        R9,R2         | LW         32(SP),R1
 2002840:	87 fa fc f8 	JSR        0x020090e4     // 20090e4 <__sprint_r>
 2002844:	02 00 90 e4 
 2002848:	0c 00 00 00 	CMP        $0,R1
 200284c:	78 ab fa 70 	BNZ        @0x020022c0    // 20022c0 <_vfprintf_r+0x718>
 2002850:	2c 87 40 84 	LW         132(SP),R5
 2002854:	53 43 40 b0 	MOV        $176+SP,R10
 2002858:	0c 87 40 30 	LW         48(SP),R1
 200285c:	0c 00 00 80 	CMP        $128,R1
 2002860:	78 ab f6 58 	BNZ        @0x02001ebc    // 2001ebc <_vfprintf_r+0x314>
 2002864:	78 83 fb cc 	BRA        @0x02002434    // 2002434 <_vfprintf_r+0x88c>
 2002868:	0c 87 40 80 	LW         128(SP),R1
 200286c:	34 00 00 11 	CMP        $17,R6
 2002870:	78 90 00 34 	BLT        @0x020028a8    // 20028a8 <_vfprintf_r+0xd00>
 2002874:	3c 87 40 20 	LW         32(SP),R7
 2002878:	12 03 00 40 	LDI        0x0200efde,R2  // 200efde <blanks.1>
 200287c:	12 40 ef de 
 2002880:	95 d0 96 10 	SW         R2,(R10)      | LDI        $16,R2
 2002884:	14 c6 80 04 	SW         R2,$4(R10)
 2002888:	28 84 80 00 	ADD        R2,R5
 200288c:	2c c7 40 84 	SW         R5,$132(SP)
 2002890:	08 80 00 01 	ADD        $1,R1
 2002894:	0c c7 40 80 	SW         R1,$128(SP)
 2002898:	d2 08 8b 08 	ADD        $8,R10        | CMP        $8,R1
 200289c:	78 b0 00 68 	BGE        @0x02002908    // 2002908 <_vfprintf_r+0xd60>
 20028a0:	b2 70 b3 11 	ADD        $-16,R6       | CMP        $17,R6
 20028a4:	78 b3 ff d0 	BGE        @0x02002878    // 2002878 <_vfprintf_r+0xcd0>
 20028a8:	12 03 00 40 	LDI        0x0200efde,R2  // 200efde <blanks.1>
 20028ac:	12 40 ef de 
 20028b0:	14 c6 80 00 	SW         R2,(R10)
 20028b4:	34 c6 80 04 	SW         R6,$4(R10)
 20028b8:	28 85 80 00 	ADD        R6,R5
 20028bc:	2c c7 40 84 	SW         R5,$132(SP)
 20028c0:	08 80 00 01 	ADD        $1,R1
 20028c4:	0c c7 40 80 	SW         R1,$128(SP)
 20028c8:	0c 00 00 08 	CMP        $8,R1
 20028cc:	78 93 f6 40 	BLT        @0x02001f10    // 2001f10 <_vfprintf_r+0x368>
 20028d0:	1b 43 40 7c 	MOV        $124+SP,R3
 20028d4:	97 c8 8c 20 	MOV        R9,R2         | LW         32(SP),R1
 20028d8:	87 fa fc f8 	JSR        0x020090e4     // 20090e4 <__sprint_r>
 20028dc:	02 00 90 e4 
 20028e0:	0c 00 00 00 	CMP        $0,R1
 20028e4:	78 ab f9 d8 	BNZ        @0x020022c0    // 20022c0 <_vfprintf_r+0x718>
 20028e8:	2c 87 40 84 	LW         132(SP),R5
 20028ec:	8c 0c 94 10 	LW         12(SP),R1     | LW         16(SP),R2
 20028f0:	0c 04 80 00 	CMP        R2,R1
 20028f4:	0b 50 80 00 	MOV.LT     R2,R1
 20028f8:	94 18 92 88 	LW         24(SP),R2     | ADD        R1,R2
 20028fc:	95 18 ab 00 	SW         R2,$24(SP)    | CMP        $0,R5
 2002900:	78 8b f6 24 	BZ         @0x02001f28    // 2001f28 <_vfprintf_r+0x380>
 2002904:	78 83 fd f8 	BRA        @0x02002700    // 2002700 <_vfprintf_r+0xb58>
 2002908:	1b 43 40 7c 	MOV        $124+SP,R3
 200290c:	97 c8 8f b8 	MOV        R9,R2         | MOV        R7,R1
 2002910:	87 fa fc f8 	JSR        0x020090e4     // 20090e4 <__sprint_r>
 2002914:	02 00 90 e4 
 2002918:	0c 00 00 00 	CMP        $0,R1
 200291c:	78 ab f9 a0 	BNZ        @0x020022c0    // 20022c0 <_vfprintf_r+0x718>
 2002920:	2c 87 40 84 	LW         132(SP),R5
 2002924:	0c 87 40 80 	LW         128(SP),R1
 2002928:	53 43 40 b0 	MOV        $176+SP,R10
 200292c:	b2 70 b3 11 	ADD        $-16,R6       | CMP        $17,R6
 2002930:	78 b3 ff 44 	BGE        @0x02002878    // 2002878 <_vfprintf_r+0xcd0>
 2002934:	78 83 ff 70 	BRA        @0x020028a8    // 20028a8 <_vfprintf_r+0xd00>
 2002938:	0c 87 40 20 	LW         32(SP),R1
 200293c:	87 fa fc f8 	JSR        0x02006348     // 2006348 <__sinit>
 2002940:	02 00 63 48 
 2002944:	78 83 f2 c8 	BRA        @0x02001c10    // 2001c10 <_vfprintf_r+0x68>
 2002948:	44 87 40 14 	LW         20(SP),R8
 200294c:	14 00 00 01 	CMP        $1,R2
 2002950:	78 88 02 54 	BZ         @0x02002ba8    // 2002ba8 <_vfprintf_r+0x1000>
 2002954:	5b 43 40 b0 	MOV        $176+SP,R11
 2002958:	b5 10 93 02 	SW         R6,$16(SP)    | CMP        $2,R2
 200295c:	78 88 01 bc 	BZ         @0x02002b1c    // 2002b1c <_vfprintf_r+0xf74>
 2002960:	c5 14 bd 1c 	SW         R8,$20(SP)    | SW         R7,$28(SP)
 2002964:	94 28 9c 2c 	LW         40(SP),R2     | LW         44(SP),R3
 2002968:	c7 d8 da 7f 	MOV        R11,R8        | ADD        $-1,R11
 200296c:	8f 98 89 07 	MOV        R3,R1         | AND        $7,R1
 2002970:	08 80 00 30 	ADD        $48,R1
 2002974:	0d c6 c0 00 	SB         R1,(R11)
 2002978:	33 40 80 00 	MOV        R2,R6
 200297c:	31 80 00 1d 	LSL        $29,R6
 2002980:	23 40 c0 00 	MOV        R3,R4
 2002984:	21 40 00 03 	LSR        $3,R4
 2002988:	3b 40 80 00 	MOV        R2,R7
 200298c:	39 40 00 03 	LSR        $3,R7
 2002990:	13 41 c0 00 	MOV        R7,R2
 2002994:	30 c5 00 00 	OR         R4,R6
 2002998:	9f b0 93 00 	MOV        R6,R3         | CMP        $0,R2
 200299c:	1c 08 00 00 	CMP.Z      $0,R3
 20029a0:	78 ab ff c4 	BNZ        @0x02002968    // 2002968 <_vfprintf_r+0xdc0>
 20029a4:	b4 10 bc 1c 	LW         16(SP),R6     | LW         28(SP),R7
 20029a8:	95 28 9d 2c 	SW         R2,$40(SP)    | SW         R3,$44(SP)
 20029ac:	9f c0 c4 14 	MOV        R8,R3         | LW         20(SP),R8
 20029b0:	8b 30 8e 00 	CMP        $48,R1        | CLR        R1
 20029b4:	08 e8 00 01 	OR.NZ      $1,R1
 20029b8:	97 c0 91 88 	MOV        R8,R2         | AND        R1,R2
 20029bc:	78 a8 07 28 	BNZ        @0x020030e8    // 20030e8 <_vfprintf_r+0x1540>
 20029c0:	0b 43 40 b0 	MOV        $176+SP,R1
 20029c4:	88 d8 8d 1c 	SUB        R11,R1        | SW         R1,$28(SP)
 20029c8:	0c 05 c0 00 	CMP        R7,R1
 20029cc:	0b 51 c0 00 	MOV.LT     R7,R1
 20029d0:	8d 10 8e 00 	SW         R1,$16(SP)    | CLR        R1
 20029d4:	0c c7 40 34 	SW         R1,$52(SP)
 20029d8:	78 83 f4 2c 	BRA        @0x02001e08    // 2001e08 <_vfprintf_r+0x260>
 20029dc:	43 41 40 01 	MOV        $1+R5,R8
 20029e0:	34 87 40 80 	LW         128(SP),R6
 20029e4:	30 80 00 01 	ADD        $1,R6
 20029e8:	3b 42 80 08 	MOV        $8+R10,R7
 20029ec:	8c 38 8b 02 	LW         56(SP),R1     | CMP        $2,R1
 20029f0:	78 90 00 b4 	BLT        @0x02002aa8    // 2002aa8 <_vfprintf_r+0xf00>
 20029f4:	dd d0 86 01 	SW         R11,(R10)     | LDI        $1,R0
 20029f8:	04 c6 80 04 	SW         R0,$4(R10)
 20029fc:	44 c7 40 84 	SW         R8,$132(SP)
 2002a00:	34 c7 40 80 	SW         R6,$128(SP)
 2002a04:	34 00 00 08 	CMP        $8,R6
 2002a08:	78 b0 06 24 	BGE        @0x02003030    // 2003030 <_vfprintf_r+0x1488>
 2002a0c:	04 87 40 4c 	LW         76(SP),R0
 2002a10:	04 c5 c0 00 	SW         R0,(R7)
 2002a14:	04 87 40 44 	LW         68(SP),R0
 2002a18:	04 c5 c0 04 	SW         R0,$4(R7)
 2002a1c:	40 84 00 00 	ADD        R0,R8
 2002a20:	44 c7 40 84 	SW         R8,$132(SP)
 2002a24:	30 80 00 01 	ADD        $1,R6
 2002a28:	34 c7 40 80 	SW         R6,$128(SP)
 2002a2c:	ba 08 b3 08 	ADD        $8,R7         | CMP        $8,R6
 2002a30:	78 b0 05 d4 	BGE        @0x02003008    // 2003008 <_vfprintf_r+0x1460>
 2002a34:	ac 38 aa 7f 	LW         56(SP),R5     | ADD        $-1,R5
 2002a38:	9e 00 a6 00 	CLR        R3            | CLR        R4
 2002a3c:	0c 87 40 40 	LW         64(SP),R1
 2002a40:	14 87 40 3c 	LW         60(SP),R2
 2002a44:	87 fa fc f8 	JSR        0x0200e1fc     // 200e1fc <__nedf2>
 2002a48:	02 00 e1 fc 
 2002a4c:	0c 00 00 00 	CMP        $0,R1
 2002a50:	78 88 02 a8 	BZ         @0x02002cfc    // 2002cfc <_vfprintf_r+0x1154>
 2002a54:	b2 01 da 01 	ADD        $1,R6         | ADD        $1,R11
 2002a58:	5c c5 c0 00 	SW         R11,(R7)
 2002a5c:	2c c5 c0 04 	SW         R5,$4(R7)
 2002a60:	40 85 40 00 	ADD        R5,R8
 2002a64:	44 c7 40 84 	SW         R8,$132(SP)
 2002a68:	34 c7 40 80 	SW         R6,$128(SP)
 2002a6c:	34 00 00 08 	CMP        $8,R6
 2002a70:	78 b0 00 54 	BGE        @0x02002ac8    // 2002ac8 <_vfprintf_r+0xf20>
 2002a74:	38 80 00 08 	ADD        $8,R7
 2002a78:	0b 43 40 6d 	MOV        $109+SP,R1
 2002a7c:	0c c5 c0 00 	SW         R1,(R7)
 2002a80:	0c 87 40 50 	LW         80(SP),R1
 2002a84:	0c c5 c0 04 	SW         R1,$4(R7)
 2002a88:	af 88 aa c0 	MOV        R1,R5         | ADD        R8,R5
 2002a8c:	2c c7 40 84 	SW         R5,$132(SP)
 2002a90:	30 80 00 01 	ADD        $1,R6
 2002a94:	34 c7 40 80 	SW         R6,$128(SP)
 2002a98:	53 41 c0 08 	MOV        $8+R7,R10
 2002a9c:	34 00 00 08 	CMP        $8,R6
 2002aa0:	78 93 f4 58 	BLT        @0x02001efc    // 2001efc <_vfprintf_r+0x354>
 2002aa4:	78 83 fc 04 	BRA        @0x020026ac    // 20026ac <_vfprintf_r+0xb04>
 2002aa8:	8c 14 89 01 	LW         20(SP),R1     | AND        $1,R1
 2002aac:	78 ab ff 44 	BNZ        @0x020029f4    // 20029f4 <_vfprintf_r+0xe4c>
 2002ab0:	dd d0 8e 01 	SW         R11,(R10)     | LDI        $1,R1
 2002ab4:	0c c6 80 04 	SW         R1,$4(R10)
 2002ab8:	44 c7 40 84 	SW         R8,$132(SP)
 2002abc:	34 c7 40 80 	SW         R6,$128(SP)
 2002ac0:	34 00 00 08 	CMP        $8,R6
 2002ac4:	78 93 ff b0 	BLT        @0x02002a78    // 2002a78 <_vfprintf_r+0xed0>
 2002ac8:	1b 43 40 7c 	MOV        $124+SP,R3
 2002acc:	97 c8 8c 20 	MOV        R9,R2         | LW         32(SP),R1
 2002ad0:	87 fa fc f8 	JSR        0x020090e4     // 20090e4 <__sprint_r>
 2002ad4:	02 00 90 e4 
 2002ad8:	0c 00 00 00 	CMP        $0,R1
 2002adc:	78 ab f7 e0 	BNZ        @0x020022c0    // 20022c0 <_vfprintf_r+0x718>
 2002ae0:	44 87 40 84 	LW         132(SP),R8
 2002ae4:	34 87 40 80 	LW         128(SP),R6
 2002ae8:	3b 43 40 b0 	MOV        $176+SP,R7
 2002aec:	0b 43 40 6d 	MOV        $109+SP,R1
 2002af0:	0c c5 c0 00 	SW         R1,(R7)
 2002af4:	0c 87 40 50 	LW         80(SP),R1
 2002af8:	0c c5 c0 04 	SW         R1,$4(R7)
 2002afc:	af 88 aa c0 	MOV        R1,R5         | ADD        R8,R5
 2002b00:	2c c7 40 84 	SW         R5,$132(SP)
 2002b04:	30 80 00 01 	ADD        $1,R6
 2002b08:	34 c7 40 80 	SW         R6,$128(SP)
 2002b0c:	53 41 c0 08 	MOV        $8+R7,R10
 2002b10:	34 00 00 08 	CMP        $8,R6
 2002b14:	78 93 f3 e4 	BLT        @0x02001efc    // 2001efc <_vfprintf_r+0x354>
 2002b18:	78 83 fb 90 	BRA        @0x020026ac    // 20026ac <_vfprintf_r+0xb04>
 2002b1c:	94 28 9c 2c 	LW         40(SP),R2     | LW         44(SP),R3
 2002b20:	2c c7 40 14 	SW         R5,$20(SP)
 2002b24:	2c 87 40 48 	LW         72(SP),R5
 2002b28:	da 7f a7 98 	ADD        $-1,R11       | MOV        R3,R4
 2002b2c:	a1 0f 8f a8 	AND        $15,R4        | MOV        R5,R1
 2002b30:	08 85 00 00 	ADD        R4,R1
 2002b34:	0d 84 40 00 	LB         (R1),R1
 2002b38:	0d c6 c0 00 	SB         R1,(R11)
 2002b3c:	23 40 80 00 	MOV        R2,R4
 2002b40:	21 80 00 1c 	LSL        $28,R4
 2002b44:	0b 40 c0 00 	MOV        R3,R1
 2002b48:	09 40 00 04 	LSR        $4,R1
 2002b4c:	33 40 80 00 	MOV        R2,R6
 2002b50:	31 40 00 04 	LSR        $4,R6
 2002b54:	13 41 80 00 	MOV        R6,R2
 2002b58:	20 c4 40 00 	OR         R1,R4
 2002b5c:	9f a0 93 00 	MOV        R4,R3         | CMP        $0,R2
 2002b60:	1c 08 00 00 	CMP.Z      $0,R3
 2002b64:	78 ab ff c0 	BNZ        @0x02002b28    // 2002b28 <_vfprintf_r+0xf80>
 2002b68:	b4 10 95 28 	LW         16(SP),R6     | SW         R2,$40(SP)
 2002b6c:	9d 2c ac 14 	SW         R3,$44(SP)    | LW         20(SP),R5
 2002b70:	0b 43 40 b0 	MOV        $176+SP,R1
 2002b74:	88 d8 8d 1c 	SUB        R11,R1        | SW         R1,$28(SP)
 2002b78:	c5 14 8b b8 	SW         R8,$20(SP)    | CMP        R7,R1
 2002b7c:	0b 51 c0 00 	MOV.LT     R7,R1
 2002b80:	8d 10 8e 00 	SW         R1,$16(SP)    | CLR        R1
 2002b84:	0c c7 40 34 	SW         R1,$52(SP)
 2002b88:	78 83 f2 7c 	BRA        @0x02001e08    // 2001e08 <_vfprintf_r+0x260>
 2002b8c:	be 00 9d 1c 	CLR        R7            | SW         R3,$28(SP)
 2002b90:	5b 43 40 b0 	MOV        $176+SP,R11
 2002b94:	8f 98 8b b8 	MOV        R3,R1         | CMP        R7,R1
 2002b98:	0b 51 c0 00 	MOV.LT     R7,R1
 2002b9c:	8d 10 8e 00 	SW         R1,$16(SP)    | CLR        R1
 2002ba0:	0c c7 40 34 	SW         R1,$52(SP)
 2002ba4:	78 83 f2 60 	BRA        @0x02001e08    // 2001e08 <_vfprintf_r+0x260>
 2002ba8:	8c 28 94 2c 	LW         40(SP),R1     | LW         44(SP),R2
 2002bac:	0c 00 00 00 	CMP        $0,R1
 2002bb0:	78 a8 0a b8 	BNZ        @0x0200366c    // 200366c <_vfprintf_r+0x1ac4>
 2002bb4:	14 00 00 0a 	CMP        $10,R2
 2002bb8:	78 b8 0a b0 	BNC        @0x0200366c    // 200366c <_vfprintf_r+0x1ac4>
 2002bbc:	0b 40 80 30 	MOV        $48+R2,R1
 2002bc0:	0d c7 40 af 	SB         R1,$175(SP)
 2002bc4:	c5 14 8e 01 	SW         R8,$20(SP)    | LDI        $1,R1
 2002bc8:	0c c7 40 1c 	SW         R1,$28(SP)
 2002bcc:	5b 43 40 af 	MOV        $175+SP,R11
 2002bd0:	0c 05 c0 00 	CMP        R7,R1
 2002bd4:	0b 51 c0 00 	MOV.LT     R7,R1
 2002bd8:	8d 10 8e 00 	SW         R1,$16(SP)    | CLR        R1
 2002bdc:	0c c7 40 34 	SW         R1,$52(SP)
 2002be0:	78 83 f2 24 	BRA        @0x02001e08    // 2001e08 <_vfprintf_r+0x260>
 2002be4:	1c 87 40 64 	LW         100(SP),R3
 2002be8:	1c 00 00 01 	CMP        $1,R3
 2002bec:	78 90 09 c4 	BLT        @0x020035b4    // 20035b4 <_vfprintf_r+0x1a0c>
 2002bf0:	b4 34 8c 38 	LW         52(SP),R6     | LW         56(SP),R1
 2002bf4:	34 04 40 00 	CMP        R1,R6
 2002bf8:	33 70 40 00 	MOV.GE     R1,R6
 2002bfc:	34 00 00 01 	CMP        $1,R6
 2002c00:	78 90 00 24 	BLT        @0x02002c28    // 2002c28 <_vfprintf_r+0x1080>
 2002c04:	5c c6 80 00 	SW         R11,(R10)
 2002c08:	34 c6 80 04 	SW         R6,$4(R10)
 2002c0c:	28 85 80 00 	ADD        R6,R5
 2002c10:	2c c7 40 84 	SW         R5,$132(SP)
 2002c14:	0c 87 40 80 	LW         128(SP),R1
 2002c18:	08 80 00 01 	ADD        $1,R1
 2002c1c:	0c c7 40 80 	SW         R1,$128(SP)
 2002c20:	d2 08 8b 08 	ADD        $8,R10        | CMP        $8,R1
 2002c24:	78 b0 0c a0 	BGE        @0x020038c8    // 20038c8 <_vfprintf_r+0x1d20>
 2002c28:	8e 00 8b b0 	CLR        R1            | CMP        R6,R1
 2002c2c:	0b 51 80 00 	MOV.LT     R6,R1
 2002c30:	b4 34 b0 88 	LW         52(SP),R6     | SUB        R1,R6
 2002c34:	34 00 00 01 	CMP        $1,R6
 2002c38:	78 b0 08 b0 	BGE        @0x020034ec    // 20034ec <_vfprintf_r+0x1944>
 2002c3c:	14 87 40 64 	LW         100(SP),R2
 2002c40:	8c 38 93 88 	LW         56(SP),R1     | CMP        R1,R2
 2002c44:	78 90 07 58 	BLT        @0x020033a0    // 20033a0 <_vfprintf_r+0x17f8>
 2002c48:	8c 14 89 01 	LW         20(SP),R1     | AND        $1,R1
 2002c4c:	78 a8 07 50 	BNZ        @0x020033a0    // 20033a0 <_vfprintf_r+0x17f8>
 2002c50:	8c 38 bf 88 	LW         56(SP),R1     | MOV        R1,R7
 2002c54:	9c 34 b8 98 	LW         52(SP),R3     | SUB        R3,R7
 2002c58:	88 90 b7 88 	SUB        R2,R1         | MOV        R1,R6
 2002c5c:	3c 04 40 00 	CMP        R1,R7
 2002c60:	3b 70 40 00 	MOV.GE     R1,R7
 2002c64:	8e 00 bb 88 	CLR        R1            | CMP        R1,R7
 2002c68:	3b 50 40 00 	MOV.LT     R1,R7
 2002c6c:	b0 b8 b3 01 	SUB        R7,R6         | CMP        $1,R6
 2002c70:	78 93 f2 88 	BLT        @0x02001efc    // 2001efc <_vfprintf_r+0x354>
 2002c74:	0c 87 40 80 	LW         128(SP),R1
 2002c78:	34 00 00 11 	CMP        $17,R6
 2002c7c:	78 93 fa 04 	BLT        @0x02002684    // 2002684 <_vfprintf_r+0xadc>
 2002c80:	3c 87 40 20 	LW         32(SP),R7
 2002c84:	12 03 00 40 	LDI        0x0200efce,R2  // 200efce <zeroes.0>
 2002c88:	12 40 ef ce 
 2002c8c:	95 d0 96 10 	SW         R2,(R10)      | LDI        $16,R2
 2002c90:	14 c6 80 04 	SW         R2,$4(R10)
 2002c94:	28 84 80 00 	ADD        R2,R5
 2002c98:	2c c7 40 84 	SW         R5,$132(SP)
 2002c9c:	08 80 00 01 	ADD        $1,R1
 2002ca0:	0c c7 40 80 	SW         R1,$128(SP)
 2002ca4:	d2 08 8b 08 	ADD        $8,R10        | CMP        $8,R1
 2002ca8:	78 b0 08 10 	BGE        @0x020034bc    // 20034bc <_vfprintf_r+0x1914>
 2002cac:	b2 70 b3 11 	ADD        $-16,R6       | CMP        $17,R6
 2002cb0:	78 93 f9 d0 	BLT        @0x02002684    // 2002684 <_vfprintf_r+0xadc>
 2002cb4:	12 03 00 40 	LDI        0x0200efce,R2  // 200efce <zeroes.0>
 2002cb8:	12 40 ef ce 
 2002cbc:	95 d0 96 10 	SW         R2,(R10)      | LDI        $16,R2
 2002cc0:	14 c6 80 04 	SW         R2,$4(R10)
 2002cc4:	28 84 80 00 	ADD        R2,R5
 2002cc8:	2c c7 40 84 	SW         R5,$132(SP)
 2002ccc:	08 80 00 01 	ADD        $1,R1
 2002cd0:	0c c7 40 80 	SW         R1,$128(SP)
 2002cd4:	d2 08 8b 08 	ADD        $8,R10        | CMP        $8,R1
 2002cd8:	78 93 ff d0 	BLT        @0x02002cac    // 2002cac <_vfprintf_r+0x1104>
 2002cdc:	78 80 07 dc 	BRA        @0x020034bc    // 20034bc <_vfprintf_r+0x1914>
 2002ce0:	3e 00 00 00 	CLR        R7
 2002ce4:	5b 43 40 b0 	MOV        $176+SP,R11
 2002ce8:	8f c0 8b b8 	MOV        R8,R1         | CMP        R7,R1
 2002cec:	0b 51 c0 00 	MOV.LT     R7,R1
 2002cf0:	8d 10 8e 00 	SW         R1,$16(SP)    | CLR        R1
 2002cf4:	0c c7 40 34 	SW         R1,$52(SP)
 2002cf8:	78 83 f1 0c 	BRA        @0x02001e08    // 2001e08 <_vfprintf_r+0x260>
 2002cfc:	2c 00 00 01 	CMP        $1,R5
 2002d00:	78 93 fd 74 	BLT        @0x02002a78    // 2002a78 <_vfprintf_r+0xed0>
 2002d04:	2c 00 00 11 	CMP        $17,R5
 2002d08:	78 90 00 34 	BLT        @0x02002d40    // 2002d40 <_vfprintf_r+0x1198>
 2002d0c:	54 87 40 20 	LW         32(SP),R10
 2002d10:	0a 03 00 40 	LDI        0x0200efce,R1  // 200efce <zeroes.0>
 2002d14:	0a 40 ef ce 
 2002d18:	8d b8 8e 10 	SW         R1,(R7)       | LDI        $16,R1
 2002d1c:	0c c5 c0 04 	SW         R1,$4(R7)
 2002d20:	40 84 40 00 	ADD        R1,R8
 2002d24:	44 c7 40 84 	SW         R8,$132(SP)
 2002d28:	30 80 00 01 	ADD        $1,R6
 2002d2c:	34 c7 40 80 	SW         R6,$128(SP)
 2002d30:	ba 08 b3 08 	ADD        $8,R7         | CMP        $8,R6
 2002d34:	78 b0 06 38 	BGE        @0x02003370    // 2003370 <_vfprintf_r+0x17c8>
 2002d38:	aa 70 ab 11 	ADD        $-16,R5       | CMP        $17,R5
 2002d3c:	78 b3 ff d0 	BGE        @0x02002d10    // 2002d10 <_vfprintf_r+0x1168>
 2002d40:	0a 03 00 40 	LDI        0x0200efce,R1  // 200efce <zeroes.0>
 2002d44:	0a 40 ef ce 
 2002d48:	0c c5 c0 00 	SW         R1,(R7)
 2002d4c:	2c c5 c0 04 	SW         R5,$4(R7)
 2002d50:	40 85 40 00 	ADD        R5,R8
 2002d54:	44 c7 40 84 	SW         R8,$132(SP)
 2002d58:	30 80 00 01 	ADD        $1,R6
 2002d5c:	34 c7 40 80 	SW         R6,$128(SP)
 2002d60:	34 00 00 08 	CMP        $8,R6
 2002d64:	78 b3 fd 60 	BGE        @0x02002ac8    // 2002ac8 <_vfprintf_r+0xf20>
 2002d68:	38 80 00 08 	ADD        $8,R7
 2002d6c:	78 83 fd 08 	BRA        @0x02002a78    // 2002a78 <_vfprintf_r+0xed0>
 2002d70:	94 24 8c 90 	LW         36(SP),R2     | LW         (R2),R1
 2002d74:	0d c7 40 88 	SB         R1,$136(SP)
 2002d78:	0e 00 00 00 	CLR        R1
 2002d7c:	0d c7 40 61 	SB         R1,$97(SP)
 2002d80:	0b 40 80 04 	MOV        $4+R2,R1
 2002d84:	8d 24 8e 01 	SW         R1,$36(SP)    | LDI        $1,R1
 2002d88:	8d 10 8d 1c 	SW         R1,$16(SP)    | SW         R1,$28(SP)
 2002d8c:	5b 43 40 88 	MOV        $136+SP,R11
 2002d90:	78 83 f2 40 	BRA        @0x02001fd4    // 2001fd4 <_vfprintf_r+0x42c>
 2002d94:	1c 00 00 00 	CMP        $0,R3
 2002d98:	78 ab f2 cc 	BNZ        @0x02002068    // 2002068 <_vfprintf_r+0x4c0>
 2002d9c:	97 a0 9f a8 	MOV        R4,R2         | MOV        R5,R3
 2002da0:	0b 43 00 00 	MOV        R12,R1
 2002da4:	78 83 f2 c4 	BRA        @0x0200206c    // 200206c <_vfprintf_r+0x4c4>
 2002da8:	14 00 00 00 	CMP        $0,R2
 2002dac:	1d ef 40 61 	SB.NZ      R3,$97(SP)
 2002db0:	97 c0 91 10 	MOV        R8,R2         | AND        $16,R2
 2002db4:	78 a8 00 54 	BNZ        @0x02002e0c    // 2002e0c <_vfprintf_r+0x1264>
 2002db8:	24 87 40 24 	LW         36(SP),R4
 2002dbc:	1b 41 00 04 	MOV        $4+R4,R3
 2002dc0:	0b 42 00 00 	MOV        R8,R1
 2002dc4:	08 40 00 40 	AND        $64,R1
 2002dc8:	78 88 03 04 	BZ         @0x020030d0    // 20030d0 <_vfprintf_r+0x1528>
 2002dcc:	0c 85 00 00 	LW         (R4),R1
 2002dd0:	08 40 ff ff 	AND        $65535,R1
 2002dd4:	8d 2c 95 28 	SW         R1,$44(SP)    | SW         R2,$40(SP)
 2002dd8:	9d 24 96 01 	SW         R3,$36(SP)    | LDI        $1,R2
 2002ddc:	0e 00 00 00 	CLR        R1
 2002de0:	0d c7 40 61 	SB         R1,$97(SP)
 2002de4:	2e 00 00 00 	CLR        R5
 2002de8:	78 83 ef b4 	BRA        @0x02001da0    // 2001da0 <_vfprintf_r+0x1f8>
 2002dec:	34 87 40 24 	LW         36(SP),R6
 2002df0:	0b 41 80 04 	MOV        $4+R6,R1
 2002df4:	b4 b0 b5 0c 	LW         (R6),R6       | SW         R6,$12(SP)
 2002df8:	34 00 00 00 	CMP        $0,R6
 2002dfc:	78 90 05 5c 	BLT        @0x0200335c    // 200335c <_vfprintf_r+0x17b4>
 2002e00:	8d 24 8f e0 	SW         R1,$36(SP)    | MOV        R12,R1
 2002e04:	78 83 f2 64 	BRA        @0x0200206c    // 200206c <_vfprintf_r+0x4c4>
 2002e08:	40 c0 00 10 	OR         $16,R8
 2002e0c:	9c 24 8c 98 	LW         36(SP),R3     | LW         (R3),R1
 2002e10:	14 84 c0 04 	LW         4(R3),R2
 2002e14:	8d 28 95 2c 	SW         R1,$40(SP)    | SW         R2,$44(SP)
 2002e18:	0b 40 c0 08 	MOV        $8+R3,R1
 2002e1c:	8d 24 96 01 	SW         R1,$36(SP)    | LDI        $1,R2
 2002e20:	0e 00 00 00 	CLR        R1
 2002e24:	0d c7 40 61 	SB         R1,$97(SP)
 2002e28:	2e 00 00 00 	CLR        R5
 2002e2c:	78 83 ef 70 	BRA        @0x02001da0    // 2001da0 <_vfprintf_r+0x1f8>
 2002e30:	40 c0 00 80 	OR         $128,R8
 2002e34:	0b 43 00 00 	MOV        R12,R1
 2002e38:	78 83 f2 30 	BRA        @0x0200206c    // 200206c <_vfprintf_r+0x4c4>
 2002e3c:	14 00 00 00 	CMP        $0,R2
 2002e40:	1d ef 40 61 	SB.NZ      R3,$97(SP)
 2002e44:	40 c0 00 10 	OR         $16,R8
 2002e48:	9c 24 8c 98 	LW         36(SP),R3     | LW         (R3),R1
 2002e4c:	14 84 c0 04 	LW         4(R3),R2
 2002e50:	0c c7 40 54 	SW         R1,$84(SP)
 2002e54:	14 c7 40 58 	SW         R2,$88(SP)
 2002e58:	8d 28 95 2c 	SW         R1,$40(SP)    | SW         R2,$44(SP)
 2002e5c:	0b 40 c0 08 	MOV        $8+R3,R1
 2002e60:	0c c7 40 24 	SW         R1,$36(SP)
 2002e64:	0c 87 40 54 	LW         84(SP),R1
 2002e68:	14 87 40 58 	LW         88(SP),R2
 2002e6c:	0c 00 00 00 	CMP        $0,R1
 2002e70:	78 90 00 0c 	BLT        @0x02002e80    // 2002e80 <_vfprintf_r+0x12d8>
 2002e74:	78 ab f3 98 	BNZ        @0x02002210    // 2002210 <_vfprintf_r+0x668>
 2002e78:	14 00 00 00 	CMP        $0,R2
 2002e7c:	78 bb f3 90 	BNC        @0x02002210    // 2002210 <_vfprintf_r+0x668>
 2002e80:	8c 28 94 2c 	LW         40(SP),R1     | LW         44(SP),R2
 2002e84:	11 03 ff ff 	XOR        $-1,R2
 2002e88:	09 03 ff ff 	XOR        $-1,R1
 2002e8c:	10 80 00 01 	ADD        $1,R2
 2002e90:	08 98 00 01 	ADD.C      $1,R1
 2002e94:	8d 28 95 2c 	SW         R1,$40(SP)    | SW         R2,$44(SP)
 2002e98:	0e 00 00 2d 	LDI        $45,R1
 2002e9c:	0d c7 40 61 	SB         R1,$97(SP)
 2002ea0:	ae 2d 96 01 	LDI        $45,R5        | LDI        $1,R2
 2002ea4:	78 83 ee f8 	BRA        @0x02001da0    // 2001da0 <_vfprintf_r+0x1f8>
 2002ea8:	3b 43 00 01 	MOV        $1+R12,R7
 2002eac:	35 87 00 00 	LB         (R12),R6
 2002eb0:	34 00 00 2a 	CMP        $42,R6
 2002eb4:	78 88 0d d4 	BZ         @0x02003c8c    // 2003c8c <_vfprintf_r+0x20e4>
 2002eb8:	0b 41 9f d0 	MOV        $-48+R6,R1
 2002ebc:	e7 b8 be 00 	MOV        R7,R12        | CLR        R7
 2002ec0:	0c 00 00 0a 	CMP        $10,R1
 2002ec4:	78 bb ee 6c 	BNC        @0x02001d34    // 2001d34 <_vfprintf_r+0x18c>
 2002ec8:	33 41 c0 00 	MOV        R7,R6
 2002ecc:	31 80 00 02 	LSL        $2,R6
 2002ed0:	b2 b8 b2 b0 	ADD        R7,R6         | ADD        R6,R6
 2002ed4:	b2 88 bf b0 	ADD        R1,R6         | MOV        R6,R7
 2002ed8:	60 80 00 01 	ADD        $1,R12
 2002edc:	35 87 3f ff 	LB         -1(R12),R6
 2002ee0:	0b 41 9f d0 	MOV        $-48+R6,R1
 2002ee4:	0c 00 00 0a 	CMP        $10,R1
 2002ee8:	78 bb ee 48 	BNC        @0x02001d34    // 2001d34 <_vfprintf_r+0x18c>
 2002eec:	33 41 c0 00 	MOV        R7,R6
 2002ef0:	31 80 00 02 	LSL        $2,R6
 2002ef4:	b2 b8 b2 b0 	ADD        R7,R6         | ADD        R6,R6
 2002ef8:	b2 88 bf b0 	ADD        R1,R6         | MOV        R6,R7
 2002efc:	60 80 00 01 	ADD        $1,R12
 2002f00:	35 87 3f ff 	LB         -1(R12),R6
 2002f04:	0b 41 9f d0 	MOV        $-48+R6,R1
 2002f08:	0c 00 00 0a 	CMP        $10,R1
 2002f0c:	78 9b ff b8 	BC         @0x02002ec8    // 2002ec8 <_vfprintf_r+0x1320>
 2002f10:	78 83 ee 20 	BRA        @0x02001d34    // 2001d34 <_vfprintf_r+0x18c>
 2002f14:	40 c0 00 08 	OR         $8,R8
 2002f18:	0b 43 00 00 	MOV        R12,R1
 2002f1c:	78 83 f1 4c 	BRA        @0x0200206c    // 200206c <_vfprintf_r+0x4c4>
 2002f20:	8c 24 94 88 	LW         36(SP),R1     | LW         (R1),R2
 2002f24:	95 2c 96 00 	SW         R2,$44(SP)    | CLR        R2
 2002f28:	14 c7 40 28 	SW         R2,$40(SP)
 2002f2c:	40 c0 00 02 	OR         $2,R8
 2002f30:	16 00 30 78 	LDI        $12408,R2
 2002f34:	15 47 40 62 	SH         R2,$98(SP)
 2002f38:	0b 40 40 04 	MOV        $4+R1,R1
 2002f3c:	0c c7 40 24 	SW         R1,$36(SP)
 2002f40:	0a 03 00 40 	LDI        0x0200efa3,R1  // 200efa3 <__call_exitprocs+0x243>
 2002f44:	0a 40 ef a3 
 2002f48:	0c c7 40 48 	SW         R1,$72(SP)
 2002f4c:	96 02 b6 78 	LDI        $2,R2         | LDI        $120,R6
 2002f50:	0e 00 00 00 	CLR        R1
 2002f54:	0d c7 40 61 	SB         R1,$97(SP)
 2002f58:	2e 00 00 00 	CLR        R5
 2002f5c:	78 83 ee 40 	BRA        @0x02001da0    // 2001da0 <_vfprintf_r+0x1f8>
 2002f60:	0c 87 40 24 	LW         36(SP),R1
 2002f64:	23 40 40 04 	MOV        $4+R1,R4
 2002f68:	dc 88 8e 00 	LW         (R1),R11      | CLR        R1
 2002f6c:	0d c7 40 61 	SB         R1,$97(SP)
 2002f70:	5c 00 00 00 	CMP        $0,R11
 2002f74:	78 88 05 20 	BZ         @0x02003498    // 2003498 <_vfprintf_r+0x18f0>
 2002f78:	3c 03 ff ff 	CMP        $-1,R7
 2002f7c:	78 88 07 b0 	BZ         @0x02003730    // 2003730 <_vfprintf_r+0x1b88>
 2002f80:	a5 10 9f b8 	SW         R4,$16(SP)    | MOV        R7,R3
 2002f84:	96 00 8f d8 	CLR        R2            | MOV        R11,R1
 2002f88:	87 fa fc f8 	JSR        0x02007044     // 2007044 <memchr>
 2002f8c:	02 00 70 44 
 2002f90:	8b 00 a4 10 	CMP        $0,R1         | LW         16(SP),R4
 2002f94:	78 88 0b a4 	BZ         @0x02003b3c    // 2003b3c <_vfprintf_r+0x1f94>
 2002f98:	88 d8 8d 1c 	SUB        R11,R1        | SW         R1,$28(SP)
 2002f9c:	2d 87 40 61 	LB         97(SP),R5
 2002fa0:	96 00 93 88 	CLR        R2            | CMP        R1,R2
 2002fa4:	13 50 40 00 	MOV.LT     R1,R2
 2002fa8:	95 10 a5 24 	SW         R2,$16(SP)    | SW         R4,$36(SP)
 2002fac:	c5 14 be 00 	SW         R8,$20(SP)    | CLR        R7
 2002fb0:	bd 34 ab 00 	SW         R7,$52(SP)    | CMP        $0,R5
 2002fb4:	78 ab ee 58 	BNZ        @0x02001e10    // 2001e10 <_vfprintf_r+0x268>
 2002fb8:	78 83 ee 5c 	BRA        @0x02001e18    // 2001e18 <_vfprintf_r+0x270>
 2002fbc:	14 00 00 00 	CMP        $0,R2
 2002fc0:	1d ef 40 61 	SB.NZ      R3,$97(SP)
 2002fc4:	94 24 8c 90 	LW         36(SP),R2     | LW         (R2),R1
 2002fc8:	92 04 95 24 	ADD        $4,R2         | SW         R2,$36(SP)
 2002fcc:	97 c0 91 10 	MOV        R8,R2         | AND        $16,R2
 2002fd0:	78 88 01 3c 	BZ         @0x02003110    // 2003110 <_vfprintf_r+0x1568>
 2002fd4:	14 87 40 18 	LW         24(SP),R2
 2002fd8:	14 c4 40 04 	SW         R2,$4(R1)
 2002fdc:	11 c0 00 1f 	ASR        $31,R2
 2002fe0:	14 c4 40 00 	SW         R2,(R1)
 2002fe4:	1d 87 00 00 	LB         (R12),R3
 2002fe8:	9b 25 8e 00 	CMP        $37,R3        | CLR        R1
 2002fec:	08 e8 00 01 	OR.NZ      $1,R1
 2002ff0:	9b 00 96 00 	CMP        $0,R3         | CLR        R2
 2002ff4:	10 e8 00 01 	OR.NZ      $1,R2
 2002ff8:	89 90 af e0 	AND        R2,R1         | MOV        R12,R5
 2002ffc:	0c 00 00 00 	CMP        $0,R1
 2003000:	78 ab ec b0 	BNZ        @0x02001cb4    // 2001cb4 <_vfprintf_r+0x10c>
 2003004:	78 83 ed 08 	BRA        @0x02001d10    // 2001d10 <_vfprintf_r+0x168>
 2003008:	1b 43 40 7c 	MOV        $124+SP,R3
 200300c:	97 c8 8c 20 	MOV        R9,R2         | LW         32(SP),R1
 2003010:	87 fa fc f8 	JSR        0x020090e4     // 20090e4 <__sprint_r>
 2003014:	02 00 90 e4 
 2003018:	0c 00 00 00 	CMP        $0,R1
 200301c:	78 ab f2 a0 	BNZ        @0x020022c0    // 20022c0 <_vfprintf_r+0x718>
 2003020:	44 87 40 84 	LW         132(SP),R8
 2003024:	34 87 40 80 	LW         128(SP),R6
 2003028:	3b 43 40 b0 	MOV        $176+SP,R7
 200302c:	78 83 fa 04 	BRA        @0x02002a34    // 2002a34 <_vfprintf_r+0xe8c>
 2003030:	1b 43 40 7c 	MOV        $124+SP,R3
 2003034:	97 c8 8c 20 	MOV        R9,R2         | LW         32(SP),R1
 2003038:	87 fa fc f8 	JSR        0x020090e4     // 20090e4 <__sprint_r>
 200303c:	02 00 90 e4 
 2003040:	0c 00 00 00 	CMP        $0,R1
 2003044:	78 ab f2 78 	BNZ        @0x020022c0    // 20022c0 <_vfprintf_r+0x718>
 2003048:	44 87 40 84 	LW         132(SP),R8
 200304c:	34 87 40 80 	LW         128(SP),R6
 2003050:	3b 43 40 b0 	MOV        $176+SP,R7
 2003054:	04 87 40 4c 	LW         76(SP),R0
 2003058:	04 c5 c0 00 	SW         R0,(R7)
 200305c:	04 87 40 44 	LW         68(SP),R0
 2003060:	04 c5 c0 04 	SW         R0,$4(R7)
 2003064:	40 84 00 00 	ADD        R0,R8
 2003068:	44 c7 40 84 	SW         R8,$132(SP)
 200306c:	30 80 00 01 	ADD        $1,R6
 2003070:	34 c7 40 80 	SW         R6,$128(SP)
 2003074:	ba 08 b3 08 	ADD        $8,R7         | CMP        $8,R6
 2003078:	78 93 f9 b8 	BLT        @0x02002a34    // 2002a34 <_vfprintf_r+0xe8c>
 200307c:	78 83 ff 88 	BRA        @0x02003008    // 2003008 <_vfprintf_r+0x1460>
 2003080:	8c 14 89 01 	LW         20(SP),R1     | AND        $1,R1
 2003084:	78 8b ee 74 	BZ         @0x02001efc    // 2001efc <_vfprintf_r+0x354>
 2003088:	0c 87 40 4c 	LW         76(SP),R1
 200308c:	0c c6 80 00 	SW         R1,(R10)
 2003090:	0c 87 40 44 	LW         68(SP),R1
 2003094:	0c c6 80 04 	SW         R1,$4(R10)
 2003098:	28 84 40 00 	ADD        R1,R5
 200309c:	2c c7 40 84 	SW         R5,$132(SP)
 20030a0:	0c 87 40 80 	LW         128(SP),R1
 20030a4:	08 80 00 01 	ADD        $1,R1
 20030a8:	0c c7 40 80 	SW         R1,$128(SP)
 20030ac:	d2 08 8b 08 	ADD        $8,R10        | CMP        $8,R1
 20030b0:	78 93 f5 84 	BLT        @0x02002638    // 2002638 <_vfprintf_r+0xa90>
 20030b4:	78 80 03 b0 	BRA        @0x02003468    // 2003468 <_vfprintf_r+0x18c0>
 20030b8:	94 a0 95 2c 	LW         (R4),R2       | SW         R2,$44(SP)
 20030bc:	8d 28 9d 24 	SW         R1,$40(SP)    | SW         R3,$36(SP)
 20030c0:	96 00 8e 00 	CLR        R2            | CLR        R1
 20030c4:	0d c7 40 61 	SB         R1,$97(SP)
 20030c8:	2e 00 00 00 	CLR        R5
 20030cc:	78 83 ec d0 	BRA        @0x02001da0    // 2001da0 <_vfprintf_r+0x1f8>
 20030d0:	94 a0 95 2c 	LW         (R4),R2       | SW         R2,$44(SP)
 20030d4:	8d 28 9d 24 	SW         R1,$40(SP)    | SW         R3,$36(SP)
 20030d8:	96 01 8e 00 	LDI        $1,R2         | CLR        R1
 20030dc:	0d c7 40 61 	SB         R1,$97(SP)
 20030e0:	2e 00 00 00 	CLR        R5
 20030e4:	78 83 ec b8 	BRA        @0x02001da0    // 2001da0 <_vfprintf_r+0x1f8>
 20030e8:	8f 9e 96 30 	MOV        $-2+R3,R1     | LDI        $48,R2
 20030ec:	15 c6 ff ff 	SB         R2,$-1(R11)
 20030f0:	13 43 40 b0 	MOV        $176+SP,R2
 20030f4:	90 88 95 1c 	SUB        R1,R2         | SW         R2,$28(SP)
 20030f8:	c5 14 df 88 	SW         R8,$20(SP)    | MOV        R1,R11
 20030fc:	8f 90 8b b8 	MOV        R2,R1         | CMP        R7,R1
 2003100:	0b 51 c0 00 	MOV.LT     R7,R1
 2003104:	8d 10 8e 00 	SW         R1,$16(SP)    | CLR        R1
 2003108:	0c c7 40 34 	SW         R1,$52(SP)
 200310c:	78 83 ec f8 	BRA        @0x02001e08    // 2001e08 <_vfprintf_r+0x260>
 2003110:	13 42 00 00 	MOV        R8,R2
 2003114:	10 40 00 40 	AND        $64,R2
 2003118:	14 87 40 18 	LW         24(SP),R2
 200311c:	15 6c 40 00 	SH.NZ      R2,(R1)
 2003120:	14 cc 40 00 	SW.Z       R2,(R1)
 2003124:	1d 87 00 00 	LB         (R12),R3
 2003128:	9b 25 8e 00 	CMP        $37,R3        | CLR        R1
 200312c:	08 e8 00 01 	OR.NZ      $1,R1
 2003130:	9b 00 96 00 	CMP        $0,R3         | CLR        R2
 2003134:	10 e8 00 01 	OR.NZ      $1,R2
 2003138:	89 90 af e0 	AND        R2,R1         | MOV        R12,R5
 200313c:	0c 00 00 00 	CMP        $0,R1
 2003140:	78 ab eb 70 	BNZ        @0x02001cb4    // 2001cb4 <_vfprintf_r+0x10c>
 2003144:	78 83 eb c8 	BRA        @0x02001d10    // 2001d10 <_vfprintf_r+0x168>
 2003148:	8c 98 8d 2c 	LW         (R3),R1       | SW         R1,$44(SP)
 200314c:	1b 40 40 00 	MOV        R1,R3
 2003150:	19 c0 00 1f 	ASR        $31,R3
 2003154:	1c c7 40 28 	SW         R3,$40(SP)
 2003158:	0c c7 40 58 	SW         R1,$88(SP)
 200315c:	1c c7 40 54 	SW         R3,$84(SP)
 2003160:	14 c7 40 24 	SW         R2,$36(SP)
 2003164:	78 83 f0 98 	BRA        @0x02002200    // 2002200 <_vfprintf_r+0x658>
 2003168:	8c a8 8d 2c 	LW         (R5),R1       | SW         R1,$44(SP)
 200316c:	9d 28 a5 24 	SW         R3,$40(SP)    | SW         R4,$36(SP)
 2003170:	78 83 ef 84 	BRA        @0x020020f8    // 20020f8 <_vfprintf_r+0x550>
 2003174:	0c 87 40 40 	LW         64(SP),R1
 2003178:	9f 88 94 3c 	MOV        R1,R3         | LW         60(SP),R2
 200317c:	23 40 80 00 	MOV        R2,R4
 2003180:	87 fa fc f8 	JSR        0x0200e36c     // 200e36c <__unorddf2>
 2003184:	02 00 e3 6c 
 2003188:	0c 00 00 00 	CMP        $0,R1
 200318c:	78 a8 0a 90 	BNZ        @0x02003c20    // 2003c20 <_vfprintf_r+0x2078>
 2003190:	87 b0 81 5f 	MOV        R6,R0         | AND        $-33,R0
 2003194:	85 10 bb 7f 	SW         R0,$16(SP)    | CMP        $-1,R7
 2003198:	78 88 05 c8 	BZ         @0x02003764    // 2003764 <_vfprintf_r+0x1bbc>
 200319c:	bb 00 97 88 	CMP        $0,R7         | MOV        R1,R2
 20031a0:	10 c8 00 01 	OR.Z       $1,R2
 20031a4:	04 00 00 47 	CMP        $71,R0
 20031a8:	08 c8 00 01 	OR.Z       $1,R1
 20031ac:	91 88 8f 90 	AND        R1,R2         | MOV        R2,R1
 20031b0:	08 40 00 ff 	AND        $255,R1
 20031b4:	78 88 05 b0 	BZ         @0x02003768    // 2003768 <_vfprintf_r+0x1bc0>
 20031b8:	03 42 00 00 	MOV        R8,R0
 20031bc:	00 c0 01 00 	OR         $256,R0
 20031c0:	04 c7 40 14 	SW         R0,$20(SP)
 20031c4:	04 87 40 40 	LW         64(SP),R0
 20031c8:	04 00 00 00 	CMP        $0,R0
 20031cc:	78 90 06 94 	BLT        @0x02003864    // 2003864 <_vfprintf_r+0x1cbc>
 20031d0:	3b 40 00 00 	MOV        R0,R7
 20031d4:	0b 43 40 74 	MOV        $116+SP,R1
 20031d8:	0c c7 40 08 	SW         R1,$8(SP)
 20031dc:	0b 43 40 68 	MOV        $104+SP,R1
 20031e0:	0c c7 40 04 	SW         R1,$4(SP)
 20031e4:	0b 43 40 64 	MOV        $100+SP,R1
 20031e8:	8d 00 ae 01 	SW         R1,(SP)       | LDI        $1,R5
 20031ec:	a6 02 97 80 	LDI        $2,R4         | MOV        R0,R2
 20031f0:	9c 3c 8c 20 	LW         60(SP),R3     | LW         32(SP),R1
 20031f4:	87 fa fc f8 	JSR        0x02004478     // 2004478 <_dtoa_r>
 20031f8:	02 00 44 78 
 20031fc:	df 88 bd 1c 	MOV        R1,R11        | SW         R7,$28(SP)
 2003200:	bf a8 8e 00 	MOV        R5,R7         | CLR        R1
 2003204:	0c c7 40 24 	SW         R1,$36(SP)
 2003208:	8f b8 97 c0 	MOV        R7,R1         | MOV        R8,R2
 200320c:	10 40 00 01 	AND        $1,R2
 2003210:	78 a8 05 e0 	BNZ        @0x020037f4    // 20037f4 <_vfprintf_r+0x1c4c>
 2003214:	0c 87 40 74 	LW         116(SP),R1
 2003218:	88 d8 8d 38 	SUB        R11,R1        | SW         R1,$56(SP)
 200321c:	0c 87 40 64 	LW         100(SP),R1
 2003220:	0c c7 40 34 	SW         R1,$52(SP)
 2003224:	8c 34 bb 88 	LW         52(SP),R1     | CMP        R1,R7
 2003228:	16 00 00 00 	CLR        R2
 200322c:	10 d0 00 01 	OR.LT      $1,R2
 2003230:	8b 7d 8e 00 	CMP        $-3,R1        | CLR        R1
 2003234:	08 d0 00 01 	OR.LT      $1,R1
 2003238:	10 c4 40 00 	OR         R1,R2
 200323c:	78 88 08 d4 	BZ         @0x02003b14    // 2003b14 <_vfprintf_r+0x1f6c>
 2003240:	30 83 ff fe 	ADD        $-2,R6
 2003244:	94 34 8f 97 	LW         52(SP),R2     | MOV        $-1+R2,R1
 2003248:	0c c7 40 64 	SW         R1,$100(SP)
 200324c:	35 c7 40 6d 	SB         R6,$109(SP)
 2003250:	0c 00 00 00 	CMP        $0,R1
 2003254:	78 90 09 bc 	BLT        @0x02003c14    // 2003c14 <_vfprintf_r+0x206c>
 2003258:	16 00 00 2b 	LDI        $43,R2
 200325c:	15 c7 40 6e 	SB         R2,$110(SP)
 2003260:	0c 00 00 0a 	CMP        $10,R1
 2003264:	78 90 09 64 	BLT        @0x02003bcc    // 2003bcc <_vfprintf_r+0x2024>
 2003268:	3b 43 40 7b 	MOV        $123+SP,R7
 200326c:	af b8 bf bf 	MOV        R7,R5         | MOV        $-1+R7,R7
 2003270:	1b 40 40 00 	MOV        R1,R3
 2003274:	1b c0 00 0a 	DIVS       $10,R3
 2003278:	13 40 c0 00 	MOV        R3,R2
 200327c:	11 80 00 02 	LSL        $2,R2
 2003280:	92 98 92 90 	ADD        R3,R2         | ADD        R2,R2
 2003284:	a7 88 a0 90 	MOV        R1,R4         | SUB        R2,R4
 2003288:	13 41 00 30 	MOV        $48+R4,R2
 200328c:	15 c5 7f ff 	SB         R2,$-1(R5)
 2003290:	97 88 8f 98 	MOV        R1,R2         | MOV        R3,R1
 2003294:	14 00 00 64 	CMP        $100,R2
 2003298:	78 b3 ff d0 	BGE        @0x0200326c    // 200326c <_vfprintf_r+0x16c4>
 200329c:	97 ae 8a 30 	MOV        $-2+R5,R2     | ADD        $48,R1
 20032a0:	0d c5 ff ff 	SB         R1,$-1(R7)
 20032a4:	14 07 40 7b 	CMP        $123+SP,R2
 20032a8:	78 b8 09 fc 	BNC        @0x02003ca8    // 2003ca8 <_vfprintf_r+0x2100>
 20032ac:	0b 43 40 6f 	MOV        $111+SP,R1
 20032b0:	92 01 8a 01 	ADD        $1,R2         | ADD        $1,R1
 20032b4:	1d 84 bf ff 	LB         -1(R2),R3
 20032b8:	1d c4 7f ff 	SB         R3,$-1(R1)
 20032bc:	14 07 40 7b 	CMP        $123+SP,R2
 20032c0:	78 ab ff ec 	BNZ        @0x020032b0    // 20032b0 <_vfprintf_r+0x1708>
 20032c4:	13 43 40 7d 	MOV        $125+SP,R2
 20032c8:	10 05 40 00 	SUB        R5,R2
 20032cc:	0b 43 40 6f 	MOV        $111+SP,R1
 20032d0:	08 84 80 00 	ADD        R2,R1
 20032d4:	13 43 40 6d 	MOV        $109+SP,R2
 20032d8:	08 04 80 00 	SUB        R2,R1
 20032dc:	0c c7 40 50 	SW         R1,$80(SP)
 20032e0:	9f 88 94 38 	MOV        R1,R3         | LW         56(SP),R2
 20032e4:	8f 90 8a 98 	MOV        R2,R1         | ADD        R3,R1
 20032e8:	8d 1c 93 02 	SW         R1,$28(SP)    | CMP        $2,R2
 20032ec:	78 90 07 54 	BLT        @0x02003a44    // 2003a44 <_vfprintf_r+0x1e9c>
 20032f0:	0c 87 40 1c 	LW         28(SP),R1
 20032f4:	14 87 40 44 	LW         68(SP),R2
 20032f8:	8a 90 8d 1c 	ADD        R2,R1         | SW         R1,$28(SP)
 20032fc:	96 00 93 88 	CLR        R2            | CMP        R1,R2
 2003300:	13 50 40 00 	MOV.LT     R1,R2
 2003304:	95 10 8e 00 	SW         R2,$16(SP)    | CLR        R1
 2003308:	0c c7 40 34 	SW         R1,$52(SP)
 200330c:	8c 24 8b 00 	LW         36(SP),R1     | CMP        $0,R1
 2003310:	78 88 07 ec 	BZ         @0x02003b00    // 2003b00 <_vfprintf_r+0x1f58>
 2003314:	0e 00 00 2d 	LDI        $45,R1
 2003318:	0d c7 40 61 	SB         R1,$97(SP)
 200331c:	8c 30 8d 24 	LW         48(SP),R1     | SW         R1,$36(SP)
 2003320:	be 00 8c 10 	CLR        R7            | LW         16(SP),R1
 2003324:	8a 01 8d 10 	ADD        $1,R1         | SW         R1,$16(SP)
 2003328:	78 83 ea ec 	BRA        @0x02001e18    // 2001e18 <_vfprintf_r+0x270>
 200332c:	1b 43 40 7c 	MOV        $124+SP,R3
 2003330:	97 c8 8c 20 	MOV        R9,R2         | LW         32(SP),R1
 2003334:	87 fa fc f8 	JSR        0x020090e4     // 20090e4 <__sprint_r>
 2003338:	02 00 90 e4 
 200333c:	0c 00 00 00 	CMP        $0,R1
 2003340:	78 ab ef 7c 	BNZ        @0x020022c0    // 20022c0 <_vfprintf_r+0x718>
 2003344:	2c 87 40 84 	LW         132(SP),R5
 2003348:	53 43 40 b0 	MOV        $176+SP,R10
 200334c:	0c 87 40 64 	LW         100(SP),R1
 2003350:	94 38 8b 90 	LW         56(SP),R2     | CMP        R2,R1
 2003354:	78 93 f2 b4 	BLT        @0x0200260c    // 200260c <_vfprintf_r+0xa64>
 2003358:	78 83 fd 24 	BRA        @0x02003080    // 2003080 <_vfprintf_r+0x14d8>
 200335c:	33 41 9f ff 	MOV        $-1+R6,R6
 2003360:	31 03 ff ff 	XOR        $-1,R6
 2003364:	b5 0c 8d 24 	SW         R6,$12(SP)    | SW         R1,$36(SP)
 2003368:	40 c0 00 04 	OR         $4,R8
 200336c:	78 83 ec f8 	BRA        @0x02002068    // 2002068 <_vfprintf_r+0x4c0>
 2003370:	1b 43 40 7c 	MOV        $124+SP,R3
 2003374:	97 c8 8f d0 	MOV        R9,R2         | MOV        R10,R1
 2003378:	87 fa fc f8 	JSR        0x020090e4     // 20090e4 <__sprint_r>
 200337c:	02 00 90 e4 
 2003380:	0c 00 00 00 	CMP        $0,R1
 2003384:	78 ab ef 38 	BNZ        @0x020022c0    // 20022c0 <_vfprintf_r+0x718>
 2003388:	44 87 40 84 	LW         132(SP),R8
 200338c:	34 87 40 80 	LW         128(SP),R6
 2003390:	3b 43 40 b0 	MOV        $176+SP,R7
 2003394:	aa 70 ab 11 	ADD        $-16,R5       | CMP        $17,R5
 2003398:	78 b3 f9 74 	BGE        @0x02002d10    // 2002d10 <_vfprintf_r+0x1168>
 200339c:	78 83 f9 a0 	BRA        @0x02002d40    // 2002d40 <_vfprintf_r+0x1198>
 20033a0:	0c 87 40 4c 	LW         76(SP),R1
 20033a4:	0c c6 80 00 	SW         R1,(R10)
 20033a8:	0c 87 40 44 	LW         68(SP),R1
 20033ac:	0c c6 80 04 	SW         R1,$4(R10)
 20033b0:	28 84 40 00 	ADD        R1,R5
 20033b4:	2c c7 40 84 	SW         R5,$132(SP)
 20033b8:	0c 87 40 80 	LW         128(SP),R1
 20033bc:	08 80 00 01 	ADD        $1,R1
 20033c0:	0c c7 40 80 	SW         R1,$128(SP)
 20033c4:	d2 08 8b 08 	ADD        $8,R10        | CMP        $8,R1
 20033c8:	78 b0 04 d4 	BGE        @0x020038a0    // 20038a0 <_vfprintf_r+0x1cf8>
 20033cc:	8c 38 bf 88 	LW         56(SP),R1     | MOV        R1,R7
 20033d0:	9c 34 b8 98 	LW         52(SP),R3     | SUB        R3,R7
 20033d4:	88 90 b7 88 	SUB        R2,R1         | MOV        R1,R6
 20033d8:	3c 04 40 00 	CMP        R1,R7
 20033dc:	3b 70 40 00 	MOV.GE     R1,R7
 20033e0:	3c 00 00 01 	CMP        $1,R7
 20033e4:	78 93 f8 7c 	BLT        @0x02002c64    // 2002c64 <_vfprintf_r+0x10bc>
 20033e8:	da 98 dd d0 	ADD        R3,R11        | SW         R11,(R10)
 20033ec:	3c c6 80 04 	SW         R7,$4(R10)
 20033f0:	28 85 c0 00 	ADD        R7,R5
 20033f4:	2c c7 40 84 	SW         R5,$132(SP)
 20033f8:	0c 87 40 80 	LW         128(SP),R1
 20033fc:	08 80 00 01 	ADD        $1,R1
 2003400:	0c c7 40 80 	SW         R1,$128(SP)
 2003404:	d2 08 8b 08 	ADD        $8,R10        | CMP        $8,R1
 2003408:	78 93 f8 58 	BLT        @0x02002c64    // 2002c64 <_vfprintf_r+0x10bc>
 200340c:	1b 43 40 7c 	MOV        $124+SP,R3
 2003410:	97 c8 8c 20 	MOV        R9,R2         | LW         32(SP),R1
 2003414:	87 fa fc f8 	JSR        0x020090e4     // 20090e4 <__sprint_r>
 2003418:	02 00 90 e4 
 200341c:	0c 00 00 00 	CMP        $0,R1
 2003420:	78 ab ee 9c 	BNZ        @0x020022c0    // 20022c0 <_vfprintf_r+0x718>
 2003424:	0c 87 40 64 	LW         100(SP),R1
 2003428:	b4 38 b0 88 	LW         56(SP),R6     | SUB        R1,R6
 200342c:	2c 87 40 84 	LW         132(SP),R5
 2003430:	53 43 40 b0 	MOV        $176+SP,R10
 2003434:	78 83 f8 2c 	BRA        @0x02002c64    // 2002c64 <_vfprintf_r+0x10bc>
 2003438:	1b 43 40 7c 	MOV        $124+SP,R3
 200343c:	97 c8 8f b8 	MOV        R9,R2         | MOV        R7,R1
 2003440:	87 fa fc f8 	JSR        0x020090e4     // 20090e4 <__sprint_r>
 2003444:	02 00 90 e4 
 2003448:	0c 00 00 00 	CMP        $0,R1
 200344c:	78 ab ee 70 	BNZ        @0x020022c0    // 20022c0 <_vfprintf_r+0x718>
 2003450:	2c 87 40 84 	LW         132(SP),R5
 2003454:	0c 87 40 80 	LW         128(SP),R1
 2003458:	53 43 40 b0 	MOV        $176+SP,R10
 200345c:	b2 70 b3 11 	ADD        $-16,R6       | CMP        $17,R6
 2003460:	78 b3 f1 f0 	BGE        @0x02002654    // 2002654 <_vfprintf_r+0xaac>
 2003464:	78 83 f2 1c 	BRA        @0x02002684    // 2002684 <_vfprintf_r+0xadc>
 2003468:	1b 43 40 7c 	MOV        $124+SP,R3
 200346c:	97 c8 8c 20 	MOV        R9,R2         | LW         32(SP),R1
 2003470:	87 fa fc f8 	JSR        0x020090e4     // 20090e4 <__sprint_r>
 2003474:	02 00 90 e4 
 2003478:	0c 00 00 00 	CMP        $0,R1
 200347c:	78 ab ee 40 	BNZ        @0x020022c0    // 20022c0 <_vfprintf_r+0x718>
 2003480:	2c 87 40 84 	LW         132(SP),R5
 2003484:	53 43 40 b0 	MOV        $176+SP,R10
 2003488:	b4 38 b2 7f 	LW         56(SP),R6     | ADD        $-1,R6
 200348c:	34 00 00 01 	CMP        $1,R6
 2003490:	78 93 ea 68 	BLT        @0x02001efc    // 2001efc <_vfprintf_r+0x354>
 2003494:	78 83 f1 ac 	BRA        @0x02002644    // 2002644 <_vfprintf_r+0xa9c>
 2003498:	8e 06 8b b8 	LDI        $6,R1         | CMP        R7,R1
 200349c:	3b 58 40 00 	MOV.C      R1,R7
 20034a0:	bd 1c bd 10 	SW         R7,$28(SP)    | SW         R7,$16(SP)
 20034a4:	24 c7 40 24 	SW         R4,$36(SP)
 20034a8:	5a 03 00 40 	LDI        0x0200efc5,R11 // 200efc5 <__call_exitprocs+0x265>
 20034ac:	5a 40 ef c5 
 20034b0:	c5 14 be 00 	SW         R8,$20(SP)    | CLR        R7
 20034b4:	3c c7 40 34 	SW         R7,$52(SP)
 20034b8:	78 83 e9 5c 	BRA        @0x02001e18    // 2001e18 <_vfprintf_r+0x270>
 20034bc:	1b 43 40 7c 	MOV        $124+SP,R3
 20034c0:	97 c8 8f b8 	MOV        R9,R2         | MOV        R7,R1
 20034c4:	87 fa fc f8 	JSR        0x020090e4     // 20090e4 <__sprint_r>
 20034c8:	02 00 90 e4 
 20034cc:	0c 00 00 00 	CMP        $0,R1
 20034d0:	78 ab ed ec 	BNZ        @0x020022c0    // 20022c0 <_vfprintf_r+0x718>
 20034d4:	2c 87 40 84 	LW         132(SP),R5
 20034d8:	0c 87 40 80 	LW         128(SP),R1
 20034dc:	53 43 40 b0 	MOV        $176+SP,R10
 20034e0:	b2 70 b3 11 	ADD        $-16,R6       | CMP        $17,R6
 20034e4:	78 b3 f7 cc 	BGE        @0x02002cb4    // 2002cb4 <_vfprintf_r+0x110c>
 20034e8:	78 83 f1 98 	BRA        @0x02002684    // 2002684 <_vfprintf_r+0xadc>
 20034ec:	0c 87 40 80 	LW         128(SP),R1
 20034f0:	34 00 00 11 	CMP        $17,R6
 20034f4:	78 90 00 34 	BLT        @0x0200352c    // 200352c <_vfprintf_r+0x1984>
 20034f8:	3c 87 40 20 	LW         32(SP),R7
 20034fc:	12 03 00 40 	LDI        0x0200efce,R2  // 200efce <zeroes.0>
 2003500:	12 40 ef ce 
 2003504:	95 d0 96 10 	SW         R2,(R10)      | LDI        $16,R2
 2003508:	14 c6 80 04 	SW         R2,$4(R10)
 200350c:	28 84 80 00 	ADD        R2,R5
 2003510:	2c c7 40 84 	SW         R5,$132(SP)
 2003514:	08 80 00 01 	ADD        $1,R1
 2003518:	0c c7 40 80 	SW         R1,$128(SP)
 200351c:	d2 08 8b 08 	ADD        $8,R10        | CMP        $8,R1
 2003520:	78 b0 00 60 	BGE        @0x02003584    // 2003584 <_vfprintf_r+0x19dc>
 2003524:	b2 70 b3 11 	ADD        $-16,R6       | CMP        $17,R6
 2003528:	78 b3 ff d0 	BGE        @0x020034fc    // 20034fc <_vfprintf_r+0x1954>
 200352c:	12 03 00 40 	LDI        0x0200efce,R2  // 200efce <zeroes.0>
 2003530:	12 40 ef ce 
 2003534:	14 c6 80 00 	SW         R2,(R10)
 2003538:	34 c6 80 04 	SW         R6,$4(R10)
 200353c:	28 85 80 00 	ADD        R6,R5
 2003540:	2c c7 40 84 	SW         R5,$132(SP)
 2003544:	08 80 00 01 	ADD        $1,R1
 2003548:	0c c7 40 80 	SW         R1,$128(SP)
 200354c:	d2 08 8b 08 	ADD        $8,R10        | CMP        $8,R1
 2003550:	78 93 f6 e8 	BLT        @0x02002c3c    // 2002c3c <_vfprintf_r+0x1094>
 2003554:	1b 43 40 7c 	MOV        $124+SP,R3
 2003558:	97 c8 8c 20 	MOV        R9,R2         | LW         32(SP),R1
 200355c:	87 fa fc f8 	JSR        0x020090e4     // 20090e4 <__sprint_r>
 2003560:	02 00 90 e4 
 2003564:	0c 00 00 00 	CMP        $0,R1
 2003568:	78 ab ed 54 	BNZ        @0x020022c0    // 20022c0 <_vfprintf_r+0x718>
 200356c:	2c 87 40 84 	LW         132(SP),R5
 2003570:	53 43 40 b0 	MOV        $176+SP,R10
 2003574:	14 87 40 64 	LW         100(SP),R2
 2003578:	8c 38 93 88 	LW         56(SP),R1     | CMP        R1,R2
 200357c:	78 93 fe 20 	BLT        @0x020033a0    // 20033a0 <_vfprintf_r+0x17f8>
 2003580:	78 83 f6 c4 	BRA        @0x02002c48    // 2002c48 <_vfprintf_r+0x10a0>
 2003584:	1b 43 40 7c 	MOV        $124+SP,R3
 2003588:	97 c8 8f b8 	MOV        R9,R2         | MOV        R7,R1
 200358c:	87 fa fc f8 	JSR        0x020090e4     // 20090e4 <__sprint_r>
 2003590:	02 00 90 e4 
 2003594:	0c 00 00 00 	CMP        $0,R1
 2003598:	78 ab ed 24 	BNZ        @0x020022c0    // 20022c0 <_vfprintf_r+0x718>
 200359c:	2c 87 40 84 	LW         132(SP),R5
 20035a0:	0c 87 40 80 	LW         128(SP),R1
 20035a4:	53 43 40 b0 	MOV        $176+SP,R10
 20035a8:	b2 70 b3 11 	ADD        $-16,R6       | CMP        $17,R6
 20035ac:	78 b3 ff 4c 	BGE        @0x020034fc    // 20034fc <_vfprintf_r+0x1954>
 20035b0:	78 83 ff 78 	BRA        @0x0200352c    // 200352c <_vfprintf_r+0x1984>
 20035b4:	0a 03 00 40 	LDI        0x0200efcc,R1  // 200efcc <__call_exitprocs+0x26c>
 20035b8:	0a 40 ef cc 
 20035bc:	8d d0 8e 01 	SW         R1,(R10)      | LDI        $1,R1
 20035c0:	0c c6 80 04 	SW         R1,$4(R10)
 20035c4:	28 84 40 00 	ADD        R1,R5
 20035c8:	2c c7 40 84 	SW         R5,$132(SP)
 20035cc:	0c 87 40 80 	LW         128(SP),R1
 20035d0:	08 80 00 01 	ADD        $1,R1
 20035d4:	0c c7 40 80 	SW         R1,$128(SP)
 20035d8:	d2 08 8b 08 	ADD        $8,R10        | CMP        $8,R1
 20035dc:	78 b0 00 64 	BGE        @0x02003644    // 2003644 <_vfprintf_r+0x1a9c>
 20035e0:	0c 87 40 38 	LW         56(SP),R1
 20035e4:	08 c4 c0 00 	OR         R3,R1
 20035e8:	78 88 03 14 	BZ         @0x02003900    // 2003900 <_vfprintf_r+0x1d58>
 20035ec:	0c 87 40 4c 	LW         76(SP),R1
 20035f0:	0c c6 80 00 	SW         R1,(R10)
 20035f4:	0c 87 40 44 	LW         68(SP),R1
 20035f8:	0c c6 80 04 	SW         R1,$4(R10)
 20035fc:	97 88 92 a8 	MOV        R1,R2         | ADD        R5,R2
 2003600:	14 c7 40 84 	SW         R2,$132(SP)
 2003604:	0c 87 40 80 	LW         128(SP),R1
 2003608:	08 80 00 01 	ADD        $1,R1
 200360c:	0c c7 40 80 	SW         R1,$128(SP)
 2003610:	d2 08 8b 08 	ADD        $8,R10        | CMP        $8,R1
 2003614:	78 b0 03 1c 	BGE        @0x02003934    // 2003934 <_vfprintf_r+0x1d8c>
 2003618:	1c 00 00 00 	CMP        $0,R3
 200361c:	78 90 03 44 	BLT        @0x02003964    // 2003964 <_vfprintf_r+0x1dbc>
 2003620:	dd d0 9c 38 	SW         R11,(R10)     | LW         56(SP),R3
 2003624:	1c c6 80 04 	SW         R3,$4(R10)
 2003628:	af 98 aa 90 	MOV        R3,R5         | ADD        R2,R5
 200362c:	2c c7 40 84 	SW         R5,$132(SP)
 2003630:	08 80 00 01 	ADD        $1,R1
 2003634:	0c c7 40 80 	SW         R1,$128(SP)
 2003638:	0c 00 00 08 	CMP        $8,R1
 200363c:	78 93 e8 b8 	BLT        @0x02001ef8    // 2001ef8 <_vfprintf_r+0x350>
 2003640:	78 83 f0 68 	BRA        @0x020026ac    // 20026ac <_vfprintf_r+0xb04>
 2003644:	1b 43 40 7c 	MOV        $124+SP,R3
 2003648:	97 c8 8c 20 	MOV        R9,R2         | LW         32(SP),R1
 200364c:	87 fa fc f8 	JSR        0x020090e4     // 20090e4 <__sprint_r>
 2003650:	02 00 90 e4 
 2003654:	0c 00 00 00 	CMP        $0,R1
 2003658:	78 ab ec 64 	BNZ        @0x020022c0    // 20022c0 <_vfprintf_r+0x718>
 200365c:	1c 87 40 64 	LW         100(SP),R3
 2003660:	2c 87 40 84 	LW         132(SP),R5
 2003664:	53 43 40 b0 	MOV        $176+SP,R10
 2003668:	78 83 ff 74 	BRA        @0x020035e0    // 20035e0 <_vfprintf_r+0x1a38>
 200366c:	5b 43 40 b0 	MOV        $176+SP,R11
 2003670:	b5 10 c5 14 	SW         R6,$16(SP)    | SW         R8,$20(SP)
 2003674:	bd 1c b4 28 	SW         R7,$28(SP)    | LW         40(SP),R6
 2003678:	bc 2c d5 30 	LW         44(SP),R7     | SW         R10,$48(SP)
 200367c:	53 42 40 00 	MOV        R9,R10
 2003680:	da 7f 9e 00 	ADD        $-1,R11       | CLR        R3
 2003684:	a6 0a 8f b0 	LDI        $10,R4        | MOV        R6,R1
 2003688:	13 41 c0 00 	MOV        R7,R2
 200368c:	87 fa fc f8 	JSR        0x0200ca30     // 200ca30 <__umoddi3>
 2003690:	02 00 ca 30 
 2003694:	10 80 00 30 	ADD        $48,R2
 2003698:	15 c6 c0 00 	SB         R2,(R11)
 200369c:	c7 b0 cf b8 	MOV        R6,R8         | MOV        R7,R9
 20036a0:	9e 00 a6 0a 	CLR        R3            | LDI        $10,R4
 20036a4:	8f b0 97 b8 	MOV        R6,R1         | MOV        R7,R2
 20036a8:	87 fa fc f8 	JSR        0x0200c4f4     // 200c4f4 <__udivdi3>
 20036ac:	02 00 c4 f4 
 20036b0:	b7 88 bf 90 	MOV        R1,R6         | MOV        R2,R7
 20036b4:	44 00 00 00 	CMP        $0,R8
 20036b8:	78 ab ff c4 	BNZ        @0x02003680    // 2003680 <_vfprintf_r+0x1ad8>
 20036bc:	4c 00 00 0a 	CMP        $10,R9
 20036c0:	78 bb ff bc 	BNC        @0x02003680    // 2003680 <_vfprintf_r+0x1ad8>
 20036c4:	b5 28 bd 2c 	SW         R6,$40(SP)    | SW         R7,$44(SP)
 20036c8:	b4 10 bc 1c 	LW         16(SP),R6     | LW         28(SP),R7
 20036cc:	cf d0 d4 30 	MOV        R10,R9        | LW         48(SP),R10
 20036d0:	0b 43 40 b0 	MOV        $176+SP,R1
 20036d4:	88 d8 8d 1c 	SUB        R11,R1        | SW         R1,$28(SP)
 20036d8:	78 83 f2 ec 	BRA        @0x020029c8    // 20029c8 <_vfprintf_r+0xe20>
 20036dc:	4b 41 c0 00 	MOV        R7,R9
 20036e0:	0d 06 40 0c 	LH         12(R9),R1
 20036e4:	08 40 00 40 	AND        $64,R1
 20036e8:	78 8b eb e0 	BZ         @0x020022cc    // 20022cc <_vfprintf_r+0x724>
 20036ec:	78 80 03 20 	BRA        @0x02003a10    // 2003a10 <_vfprintf_r+0x1e68>
 20036f0:	14 00 00 00 	CMP        $0,R2
 20036f4:	78 88 00 04 	BZ         @0x020036fc    // 20036fc <_vfprintf_r+0x1b54>
 20036f8:	1d c7 40 61 	SB         R3,$97(SP)
 20036fc:	34 00 00 00 	CMP        $0,R6
 2003700:	78 ab e8 b8 	BNZ        @0x02001fbc    // 2001fbc <_vfprintf_r+0x414>
 2003704:	0c 87 40 84 	LW         132(SP),R1
 2003708:	0c 00 00 00 	CMP        $0,R1
 200370c:	78 8b eb b0 	BZ         @0x020022c0    // 20022c0 <_vfprintf_r+0x718>
 2003710:	1b 43 40 7c 	MOV        $124+SP,R3
 2003714:	97 c8 8c 20 	MOV        R9,R2         | LW         32(SP),R1
 2003718:	87 fa fc f8 	JSR        0x020090e4     // 20090e4 <__sprint_r>
 200371c:	02 00 90 e4 
 2003720:	0d 06 40 0c 	LH         12(R9),R1
 2003724:	08 40 00 40 	AND        $64,R1
 2003728:	78 8b eb a0 	BZ         @0x020022cc    // 20022cc <_vfprintf_r+0x724>
 200372c:	78 80 02 e0 	BRA        @0x02003a10    // 2003a10 <_vfprintf_r+0x1e68>
 2003730:	a5 14 8f d8 	SW         R4,$20(SP)    | MOV        R11,R1
 2003734:	87 fa fc f8 	JSR        0x0200900c     // 200900c <strlen>
 2003738:	02 00 90 0c 
 200373c:	0c c7 40 1c 	SW         R1,$28(SP)
 2003740:	2d 87 40 61 	LB         97(SP),R5
 2003744:	96 00 8b 90 	CLR        R2            | CMP        R2,R1
 2003748:	0b 50 80 00 	MOV.LT     R2,R1
 200374c:	8d 10 a4 14 	SW         R1,$16(SP)    | LW         20(SP),R4
 2003750:	a5 24 c5 14 	SW         R4,$36(SP)    | SW         R8,$20(SP)
 2003754:	be 00 95 34 	CLR        R7            | SW         R2,$52(SP)
 2003758:	2c 00 00 00 	CMP        $0,R5
 200375c:	78 ab e6 b0 	BNZ        @0x02001e10    // 2001e10 <_vfprintf_r+0x268>
 2003760:	78 83 e6 b4 	BRA        @0x02001e18    // 2001e18 <_vfprintf_r+0x270>
 2003764:	3e 00 00 06 	LDI        $6,R7
 2003768:	03 42 00 00 	MOV        R8,R0
 200376c:	00 c0 01 00 	OR         $256,R0
 2003770:	04 c7 40 14 	SW         R0,$20(SP)
 2003774:	04 87 40 40 	LW         64(SP),R0
 2003778:	04 00 00 00 	CMP        $0,R0
 200377c:	78 90 00 e8 	BLT        @0x02003868    // 2003868 <_vfprintf_r+0x1cc0>
 2003780:	85 1c 86 00 	SW         R0,$28(SP)    | CLR        R0
 2003784:	04 c7 40 24 	SW         R0,$36(SP)
 2003788:	04 87 40 10 	LW         16(SP),R0
 200378c:	04 00 00 46 	CMP        $70,R0
 2003790:	78 a8 03 c4 	BNZ        @0x02003b58    // 2003b58 <_vfprintf_r+0x1fb0>
 2003794:	0b 43 40 74 	MOV        $116+SP,R1
 2003798:	0c c7 40 08 	SW         R1,$8(SP)
 200379c:	0b 43 40 68 	MOV        $104+SP,R1
 20037a0:	0c c7 40 04 	SW         R1,$4(SP)
 20037a4:	0b 43 40 64 	MOV        $100+SP,R1
 20037a8:	8d 00 af b8 	SW         R1,(SP)       | MOV        R7,R5
 20037ac:	a6 03 94 1c 	LDI        $3,R4         | LW         28(SP),R2
 20037b0:	9c 3c 8c 20 	LW         60(SP),R3     | LW         32(SP),R1
 20037b4:	87 fa fc f8 	JSR        0x02004478     // 2004478 <_dtoa_r>
 20037b8:	02 00 44 78 
 20037bc:	5b 40 40 00 	MOV        R1,R11
 20037c0:	0d 84 40 00 	LB         (R1),R1
 20037c4:	8b 30 ae 00 	CMP        $48,R1        | CLR        R5
 20037c8:	28 c8 00 01 	OR.Z       $1,R5
 20037cc:	9e 00 a6 00 	CLR        R3            | CLR        R4
 20037d0:	8c 1c 94 3c 	LW         28(SP),R1     | LW         60(SP),R2
 20037d4:	87 fa fc f8 	JSR        0x0200e1fc     // 200e1fc <__nedf2>
 20037d8:	02 00 e1 fc 
 20037dc:	8b 00 8e 00 	CMP        $0,R1         | CLR        R1
 20037e0:	08 e8 00 01 	OR.NZ      $1,R1
 20037e4:	08 45 40 00 	AND        R5,R1
 20037e8:	0c 87 40 64 	LW         100(SP),R1
 20037ec:	78 a8 02 70 	BNZ        @0x02003a60    // 2003a60 <_vfprintf_r+0x1eb8>
 20037f0:	08 85 c0 00 	ADD        R7,R1
 20037f4:	af d8 aa 88 	MOV        R11,R5        | ADD        R1,R5
 20037f8:	9e 00 a6 00 	CLR        R3            | CLR        R4
 20037fc:	8c 1c 94 3c 	LW         28(SP),R1     | LW         60(SP),R2
 2003800:	87 fa fc f8 	JSR        0x0200e1a0     // 200e1a0 <__eqdf2>
 2003804:	02 00 e1 a0 
 2003808:	0c 00 00 00 	CMP        $0,R1
 200380c:	78 a8 02 a8 	BNZ        @0x02003ab8    // 2003ab8 <_vfprintf_r+0x1f10>
 2003810:	0b 41 40 00 	MOV        R5,R1
 2003814:	88 d8 8d 38 	SUB        R11,R1        | SW         R1,$56(SP)
 2003818:	0c 87 40 64 	LW         100(SP),R1
 200381c:	8d 34 8c 10 	SW         R1,$52(SP)    | LW         16(SP),R1
 2003820:	0c 00 00 47 	CMP        $71,R1
 2003824:	78 8b f9 fc 	BZ         @0x02003224    // 2003224 <_vfprintf_r+0x167c>
 2003828:	34 00 00 66 	CMP        $102,R6
 200382c:	78 ab fa 14 	BNZ        @0x02003244    // 2003244 <_vfprintf_r+0x169c>
 2003830:	8f c0 89 01 	MOV        R8,R1         | AND        $1,R1
 2003834:	08 c5 c0 00 	OR         R7,R1
 2003838:	94 34 93 01 	LW         52(SP),R2     | CMP        $1,R2
 200383c:	78 90 02 64 	BLT        @0x02003aa4    // 2003aa4 <_vfprintf_r+0x1efc>
 2003840:	8b 00 8f 90 	CMP        $0,R1         | MOV        R2,R1
 2003844:	78 88 02 68 	BZ         @0x02003ab0    // 2003ab0 <_vfprintf_r+0x1f08>
 2003848:	14 87 40 44 	LW         68(SP),R2
 200384c:	8a 90 8a b8 	ADD        R2,R1         | ADD        R7,R1
 2003850:	8d 1c 96 00 	SW         R1,$28(SP)    | CLR        R2
 2003854:	14 04 40 00 	CMP        R1,R2
 2003858:	13 50 40 00 	MOV.LT     R1,R2
 200385c:	14 c7 40 10 	SW         R2,$16(SP)
 2003860:	78 83 fa a8 	BRA        @0x0200330c    // 200330c <_vfprintf_r+0x1764>
 2003864:	3e 00 00 01 	LDI        $1,R7
 2003868:	0a 00 00 01 	BREV       $1,R1
 200386c:	01 04 40 00 	XOR        R1,R0
 2003870:	85 1c 86 2d 	SW         R0,$28(SP)    | LDI        $45,R0
 2003874:	04 c7 40 24 	SW         R0,$36(SP)
 2003878:	78 83 ff 0c 	BRA        @0x02003788    // 2003788 <_vfprintf_r+0x1be0>
 200387c:	0e 00 00 2d 	LDI        $45,R1
 2003880:	0d c7 40 61 	SB         R1,$97(SP)
 2003884:	2e 00 00 2d 	LDI        $45,R5
 2003888:	34 00 00 48 	CMP        $72,R6
 200388c:	5a 33 00 40 	LDI.GE     0x0200ef97,R11 // 200ef97 <__call_exitprocs+0x237>
 2003890:	5a 70 ef 97 
 2003894:	5a 13 00 40 	LDI.LT     0x0200ef93,R11 // 200ef93 <__call_exitprocs+0x233>
 2003898:	5a 50 ef 93 
 200389c:	78 83 ea f0 	BRA        @0x02002390    // 2002390 <_vfprintf_r+0x7e8>
 20038a0:	1b 43 40 7c 	MOV        $124+SP,R3
 20038a4:	97 c8 8c 20 	MOV        R9,R2         | LW         32(SP),R1
 20038a8:	87 fa fc f8 	JSR        0x020090e4     // 20090e4 <__sprint_r>
 20038ac:	02 00 90 e4 
 20038b0:	0c 00 00 00 	CMP        $0,R1
 20038b4:	78 ab ea 08 	BNZ        @0x020022c0    // 20022c0 <_vfprintf_r+0x718>
 20038b8:	14 87 40 64 	LW         100(SP),R2
 20038bc:	2c 87 40 84 	LW         132(SP),R5
 20038c0:	53 43 40 b0 	MOV        $176+SP,R10
 20038c4:	78 83 fb 04 	BRA        @0x020033cc    // 20033cc <_vfprintf_r+0x1824>
 20038c8:	1b 43 40 7c 	MOV        $124+SP,R3
 20038cc:	97 c8 8c 20 	MOV        R9,R2         | LW         32(SP),R1
 20038d0:	87 fa fc f8 	JSR        0x020090e4     // 20090e4 <__sprint_r>
 20038d4:	02 00 90 e4 
 20038d8:	0c 00 00 00 	CMP        $0,R1
 20038dc:	78 ab e9 e0 	BNZ        @0x020022c0    // 20022c0 <_vfprintf_r+0x718>
 20038e0:	2c 87 40 84 	LW         132(SP),R5
 20038e4:	53 43 40 b0 	MOV        $176+SP,R10
 20038e8:	8e 00 8b b0 	CLR        R1            | CMP        R6,R1
 20038ec:	0b 51 80 00 	MOV.LT     R6,R1
 20038f0:	b4 34 b0 88 	LW         52(SP),R6     | SUB        R1,R6
 20038f4:	34 00 00 01 	CMP        $1,R6
 20038f8:	78 93 f3 40 	BLT        @0x02002c3c    // 2002c3c <_vfprintf_r+0x1094>
 20038fc:	78 83 fb ec 	BRA        @0x020034ec    // 20034ec <_vfprintf_r+0x1944>
 2003900:	8c 14 89 01 	LW         20(SP),R1     | AND        $1,R1
 2003904:	78 8b e5 f4 	BZ         @0x02001efc    // 2001efc <_vfprintf_r+0x354>
 2003908:	0c 87 40 4c 	LW         76(SP),R1
 200390c:	0c c6 80 00 	SW         R1,(R10)
 2003910:	0c 87 40 44 	LW         68(SP),R1
 2003914:	0c c6 80 04 	SW         R1,$4(R10)
 2003918:	8a a8 97 88 	ADD        R5,R1         | MOV        R1,R2
 200391c:	0c c7 40 84 	SW         R1,$132(SP)
 2003920:	0c 87 40 80 	LW         128(SP),R1
 2003924:	08 80 00 01 	ADD        $1,R1
 2003928:	0c c7 40 80 	SW         R1,$128(SP)
 200392c:	0c 00 00 08 	CMP        $8,R1
 2003930:	78 90 00 a0 	BLT        @0x020039d4    // 20039d4 <_vfprintf_r+0x1e2c>
 2003934:	1b 43 40 7c 	MOV        $124+SP,R3
 2003938:	97 c8 8c 20 	MOV        R9,R2         | LW         32(SP),R1
 200393c:	87 fa fc f8 	JSR        0x020090e4     // 20090e4 <__sprint_r>
 2003940:	02 00 90 e4 
 2003944:	0c 00 00 00 	CMP        $0,R1
 2003948:	78 ab e9 74 	BNZ        @0x020022c0    // 20022c0 <_vfprintf_r+0x718>
 200394c:	1c 87 40 64 	LW         100(SP),R3
 2003950:	14 87 40 84 	LW         132(SP),R2
 2003954:	0c 87 40 80 	LW         128(SP),R1
 2003958:	53 43 40 b0 	MOV        $176+SP,R10
 200395c:	1c 00 00 00 	CMP        $0,R3
 2003960:	78 b3 fc bc 	BGE        @0x02003620    // 2003620 <_vfprintf_r+0x1a78>
 2003964:	2b 40 df ff 	MOV        $-1+R3,R5
 2003968:	29 03 ff ff 	XOR        $-1,R5
 200396c:	1c 03 ff f0 	CMP        $-16,R3
 2003970:	78 b0 00 38 	BGE        @0x020039ac    // 20039ac <_vfprintf_r+0x1e04>
 2003974:	9f 90 b4 20 	MOV        R2,R3         | LW         32(SP),R6
 2003978:	12 03 00 40 	LDI        0x0200efce,R2  // 200efce <zeroes.0>
 200397c:	12 40 ef ce 
 2003980:	95 d0 96 10 	SW         R2,(R10)      | LDI        $16,R2
 2003984:	14 c6 80 04 	SW         R2,$4(R10)
 2003988:	18 84 80 00 	ADD        R2,R3
 200398c:	1c c7 40 84 	SW         R3,$132(SP)
 2003990:	08 80 00 01 	ADD        $1,R1
 2003994:	0c c7 40 80 	SW         R1,$128(SP)
 2003998:	d2 08 8b 08 	ADD        $8,R10        | CMP        $8,R1
 200399c:	78 b0 00 48 	BGE        @0x020039e8    // 20039e8 <_vfprintf_r+0x1e40>
 20039a0:	aa 70 ab 11 	ADD        $-16,R5       | CMP        $17,R5
 20039a4:	78 b3 ff d0 	BGE        @0x02003978    // 2003978 <_vfprintf_r+0x1dd0>
 20039a8:	13 40 c0 00 	MOV        R3,R2
 20039ac:	1a 03 00 40 	LDI        0x0200efce,R3  // 200efce <zeroes.0>
 20039b0:	1a 40 ef ce 
 20039b4:	1c c6 80 00 	SW         R3,(R10)
 20039b8:	2c c6 80 04 	SW         R5,$4(R10)
 20039bc:	10 85 40 00 	ADD        R5,R2
 20039c0:	14 c7 40 84 	SW         R2,$132(SP)
 20039c4:	08 80 00 01 	ADD        $1,R1
 20039c8:	0c c7 40 80 	SW         R1,$128(SP)
 20039cc:	0c 00 00 08 	CMP        $8,R1
 20039d0:	78 b0 00 9c 	BGE        @0x02003a70    // 2003a70 <_vfprintf_r+0x1ec8>
 20039d4:	d2 08 dd d0 	ADD        $8,R10        | SW         R11,(R10)
 20039d8:	1c 87 40 38 	LW         56(SP),R3
 20039dc:	1c c6 80 04 	SW         R3,$4(R10)
 20039e0:	af 98 aa 90 	MOV        R3,R5         | ADD        R2,R5
 20039e4:	78 83 fc 44 	BRA        @0x0200362c    // 200362c <_vfprintf_r+0x1a84>
 20039e8:	1b 43 40 7c 	MOV        $124+SP,R3
 20039ec:	97 c8 8f b0 	MOV        R9,R2         | MOV        R6,R1
 20039f0:	87 fa fc f8 	JSR        0x020090e4     // 20090e4 <__sprint_r>
 20039f4:	02 00 90 e4 
 20039f8:	0c 00 00 00 	CMP        $0,R1
 20039fc:	78 ab e8 c0 	BNZ        @0x020022c0    // 20022c0 <_vfprintf_r+0x718>
 2003a00:	1c 87 40 84 	LW         132(SP),R3
 2003a04:	0c 87 40 80 	LW         128(SP),R1
 2003a08:	53 43 40 b0 	MOV        $176+SP,R10
 2003a0c:	78 83 ff 90 	BRA        @0x020039a0    // 20039a0 <_vfprintf_r+0x1df8>
 2003a10:	8e ff 8d 18 	LDI        $-1,R1        | SW         R1,$24(SP)
 2003a14:	0c 87 40 18 	LW         24(SP),R1
 2003a18:	04 87 40 f0 	LW         240(SP),R0
 2003a1c:	2c 87 40 f4 	LW         244(SP),R5
 2003a20:	34 87 40 f8 	LW         248(SP),R6
 2003a24:	3c 87 40 fc 	LW         252(SP),R7
 2003a28:	44 87 41 00 	LW         256(SP),R8
 2003a2c:	4c 87 41 04 	LW         260(SP),R9
 2003a30:	54 87 41 08 	LW         264(SP),R10
 2003a34:	5c 87 41 0c 	LW         268(SP),R11
 2003a38:	64 87 41 10 	LW         272(SP),R12
 2003a3c:	68 80 01 14 	ADD        $276,SP
 2003a40:	7b 40 00 00 	RTN
 2003a44:	97 c0 91 01 	MOV        R8,R2         | AND        $1,R2
 2003a48:	95 34 93 00 	SW         R2,$52(SP)    | CMP        $0,R2
 2003a4c:	78 ab f8 a0 	BNZ        @0x020032f0    // 20032f0 <_vfprintf_r+0x1748>
 2003a50:	0c 04 80 00 	CMP        R2,R1
 2003a54:	0b 50 80 00 	MOV.LT     R2,R1
 2003a58:	0c c7 40 10 	SW         R1,$16(SP)
 2003a5c:	78 83 f8 ac 	BRA        @0x0200330c    // 200330c <_vfprintf_r+0x1764>
 2003a60:	8e 01 88 b8 	LDI        $1,R1         | SUB        R7,R1
 2003a64:	0c c7 40 64 	SW         R1,$100(SP)
 2003a68:	08 85 c0 00 	ADD        R7,R1
 2003a6c:	78 83 fd 84 	BRA        @0x020037f4    // 20037f4 <_vfprintf_r+0x1c4c>
 2003a70:	1b 43 40 7c 	MOV        $124+SP,R3
 2003a74:	97 c8 8c 20 	MOV        R9,R2         | LW         32(SP),R1
 2003a78:	87 fa fc f8 	JSR        0x020090e4     // 20090e4 <__sprint_r>
 2003a7c:	02 00 90 e4 
 2003a80:	0c 00 00 00 	CMP        $0,R1
 2003a84:	78 ab e8 38 	BNZ        @0x020022c0    // 20022c0 <_vfprintf_r+0x718>
 2003a88:	14 87 40 84 	LW         132(SP),R2
 2003a8c:	0c 87 40 80 	LW         128(SP),R1
 2003a90:	53 43 40 b0 	MOV        $176+SP,R10
 2003a94:	dd d0 9c 38 	SW         R11,(R10)     | LW         56(SP),R3
 2003a98:	1c c6 80 04 	SW         R3,$4(R10)
 2003a9c:	af 98 aa 90 	MOV        R3,R5         | ADD        R2,R5
 2003aa0:	78 83 fb 88 	BRA        @0x0200362c    // 200362c <_vfprintf_r+0x1a84>
 2003aa4:	0c 00 00 00 	CMP        $0,R1
 2003aa8:	78 a8 01 c4 	BNZ        @0x02003c70    // 2003c70 <_vfprintf_r+0x20c8>
 2003aac:	0e 00 00 01 	LDI        $1,R1
 2003ab0:	8d 10 8d 1c 	SW         R1,$16(SP)    | SW         R1,$28(SP)
 2003ab4:	78 83 f8 54 	BRA        @0x0200330c    // 200330c <_vfprintf_r+0x1764>
 2003ab8:	0c 87 40 74 	LW         116(SP),R1
 2003abc:	0c 05 40 00 	CMP        R5,R1
 2003ac0:	78 bb fd 50 	BNC        @0x02003814    // 2003814 <_vfprintf_r+0x1c6c>
 2003ac4:	13 40 40 01 	MOV        $1+R1,R2
 2003ac8:	14 c7 40 74 	SW         R2,$116(SP)
 2003acc:	16 00 00 30 	LDI        $48,R2
 2003ad0:	15 c4 40 00 	SB         R2,(R1)
 2003ad4:	0c 87 40 74 	LW         116(SP),R1
 2003ad8:	0c 05 40 00 	CMP        R5,R1
 2003adc:	78 bb fd 34 	BNC        @0x02003814    // 2003814 <_vfprintf_r+0x1c6c>
 2003ae0:	13 40 40 01 	MOV        $1+R1,R2
 2003ae4:	14 c7 40 74 	SW         R2,$116(SP)
 2003ae8:	16 00 00 30 	LDI        $48,R2
 2003aec:	15 c4 40 00 	SB         R2,(R1)
 2003af0:	0c 87 40 74 	LW         116(SP),R1
 2003af4:	0c 05 40 00 	CMP        R5,R1
 2003af8:	78 9b ff c8 	BC         @0x02003ac4    // 2003ac4 <_vfprintf_r+0x1f1c>
 2003afc:	78 83 fd 14 	BRA        @0x02003814    // 2003814 <_vfprintf_r+0x1c6c>
 2003b00:	2d 87 40 61 	LB         97(SP),R5
 2003b04:	8c 30 8d 24 	LW         48(SP),R1     | SW         R1,$36(SP)
 2003b08:	be 00 ab 00 	CLR        R7            | CMP        $0,R5
 2003b0c:	78 ab e3 00 	BNZ        @0x02001e10    // 2001e10 <_vfprintf_r+0x268>
 2003b10:	78 83 e3 04 	BRA        @0x02001e18    // 2001e18 <_vfprintf_r+0x270>
 2003b14:	9c 34 8c 38 	LW         52(SP),R3     | LW         56(SP),R1
 2003b18:	1c 04 40 00 	CMP        R1,R3
 2003b1c:	78 90 00 78 	BLT        @0x02003b98    // 2003b98 <_vfprintf_r+0x1ff0>
 2003b20:	8f c0 89 01 	MOV        R8,R1         | AND        $1,R1
 2003b24:	78 a8 00 d0 	BNZ        @0x02003bf8    // 2003bf8 <_vfprintf_r+0x2050>
 2003b28:	0c 04 c0 00 	CMP        R3,R1
 2003b2c:	0b 50 c0 00 	MOV.LT     R3,R1
 2003b30:	8d 10 9d 1c 	SW         R1,$16(SP)    | SW         R3,$28(SP)
 2003b34:	36 00 00 67 	LDI        $103,R6
 2003b38:	78 83 f7 d0 	BRA        @0x0200330c    // 200330c <_vfprintf_r+0x1764>
 2003b3c:	2d 87 40 61 	LB         97(SP),R5
 2003b40:	bd 10 a5 24 	SW         R7,$16(SP)    | SW         R4,$36(SP)
 2003b44:	bd 1c c5 14 	SW         R7,$28(SP)    | SW         R8,$20(SP)
 2003b48:	be 00 bd 34 	CLR        R7            | SW         R7,$52(SP)
 2003b4c:	2c 00 00 00 	CMP        $0,R5
 2003b50:	78 ab e2 bc 	BNZ        @0x02001e10    // 2001e10 <_vfprintf_r+0x268>
 2003b54:	78 83 e2 c0 	BRA        @0x02001e18    // 2001e18 <_vfprintf_r+0x270>
 2003b58:	04 00 00 45 	CMP        $69,R0
 2003b5c:	78 a8 01 64 	BNZ        @0x02003cc4    // 2003cc4 <_vfprintf_r+0x211c>
 2003b60:	af b9 ad 34 	MOV        $1+R7,R5      | SW         R5,$52(SP)
 2003b64:	0b 43 40 74 	MOV        $116+SP,R1
 2003b68:	0c c7 40 08 	SW         R1,$8(SP)
 2003b6c:	0b 43 40 68 	MOV        $104+SP,R1
 2003b70:	0c c7 40 04 	SW         R1,$4(SP)
 2003b74:	0b 43 40 64 	MOV        $100+SP,R1
 2003b78:	8d 00 a6 02 	SW         R1,(SP)       | LDI        $2,R4
 2003b7c:	94 1c 9c 3c 	LW         28(SP),R2     | LW         60(SP),R3
 2003b80:	0c 87 40 20 	LW         32(SP),R1
 2003b84:	87 fa fc f8 	JSR        0x02004478     // 2004478 <_dtoa_r>
 2003b88:	02 00 44 78 
 2003b8c:	df 88 af d8 	MOV        R1,R11        | MOV        R11,R5
 2003b90:	84 34 aa 80 	LW         52(SP),R0     | ADD        R0,R5
 2003b94:	78 83 fc 60 	BRA        @0x020037f8    // 20037f8 <_vfprintf_r+0x1c50>
 2003b98:	1c 87 40 44 	LW         68(SP),R3
 2003b9c:	8a 98 8d 1c 	ADD        R3,R1         | SW         R1,$28(SP)
 2003ba0:	9c 34 9b 01 	LW         52(SP),R3     | CMP        $1,R3
 2003ba4:	78 90 00 10 	BLT        @0x02003bb8    // 2003bb8 <_vfprintf_r+0x2010>
 2003ba8:	14 04 40 00 	CMP        R1,R2
 2003bac:	13 50 40 00 	MOV.LT     R1,R2
 2003bb0:	95 10 b6 67 	SW         R2,$16(SP)    | LDI        $103,R6
 2003bb4:	78 83 f7 54 	BRA        @0x0200330c    // 200330c <_vfprintf_r+0x1764>
 2003bb8:	88 98 8f 89 	SUB        R3,R1         | MOV        $1+R1,R1
 2003bbc:	8d 1c 93 88 	SW         R1,$28(SP)    | CMP        R1,R2
 2003bc0:	13 50 40 00 	MOV.LT     R1,R2
 2003bc4:	95 10 b6 67 	SW         R2,$16(SP)    | LDI        $103,R6
 2003bc8:	78 83 f7 40 	BRA        @0x0200330c    // 200330c <_vfprintf_r+0x1764>
 2003bcc:	16 00 00 30 	LDI        $48,R2
 2003bd0:	15 c7 40 6f 	SB         R2,$111(SP)
 2003bd4:	08 80 00 30 	ADD        $48,R1
 2003bd8:	0d c7 40 70 	SB         R1,$112(SP)
 2003bdc:	0e 00 00 04 	LDI        $4,R1
 2003be0:	0c c7 40 50 	SW         R1,$80(SP)
 2003be4:	9e 04 94 38 	LDI        $4,R3         | LW         56(SP),R2
 2003be8:	8f 90 8a 98 	MOV        R2,R1         | ADD        R3,R1
 2003bec:	8d 1c 93 02 	SW         R1,$28(SP)    | CMP        $2,R2
 2003bf0:	78 b3 f6 fc 	BGE        @0x020032f0    // 20032f0 <_vfprintf_r+0x1748>
 2003bf4:	78 83 fe 4c 	BRA        @0x02003a44    // 2003a44 <_vfprintf_r+0x1e9c>
 2003bf8:	0b 40 c0 00 	MOV        R3,R1
 2003bfc:	1c 87 40 44 	LW         68(SP),R3
 2003c00:	8a 98 8d 1c 	ADD        R3,R1         | SW         R1,$28(SP)
 2003c04:	14 04 40 00 	CMP        R1,R2
 2003c08:	13 50 40 00 	MOV.LT     R1,R2
 2003c0c:	95 10 b6 67 	SW         R2,$16(SP)    | LDI        $103,R6
 2003c10:	78 83 f6 f8 	BRA        @0x0200330c    // 200330c <_vfprintf_r+0x1764>
 2003c14:	8e 01 88 90 	LDI        $1,R1         | SUB        R2,R1
 2003c18:	16 00 00 2d 	LDI        $45,R2
 2003c1c:	78 83 f6 3c 	BRA        @0x0200325c    // 200325c <_vfprintf_r+0x16b4>
 2003c20:	12 00 00 01 	BREV       $1,R2
 2003c24:	0c 87 40 40 	LW         64(SP),R1
 2003c28:	08 44 80 00 	AND        R2,R1
 2003c2c:	2d 8f 40 61 	LB.Z       97(SP),R5
 2003c30:	0a 28 00 00 	LDI.NZ     0x0000002d,R1  // 2d <_rom+0x2d>
 2003c34:	0a 68 00 2d 
 2003c38:	0d ef 40 61 	SB.NZ      R1,$97(SP)
 2003c3c:	2a 28 00 00 	LDI.NZ     0x0000002d,R5  // 2d <_rom+0x2d>
 2003c40:	2a 68 00 2d 
 2003c44:	34 00 00 48 	CMP        $72,R6
 2003c48:	5a 33 00 40 	LDI.GE     0x0200ef9f,R11 // 200ef9f <__call_exitprocs+0x23f>
 2003c4c:	5a 70 ef 9f 
 2003c50:	5a 13 00 40 	LDI.LT     0x0200ef9b,R11 // 200ef9b <__call_exitprocs+0x23b>
 2003c54:	5a 50 ef 9b 
 2003c58:	40 43 ff 7f 	AND        $-129,R8
 2003c5c:	c5 14 8c 30 	SW         R8,$20(SP)    | LW         48(SP),R1
 2003c60:	8d 24 8e 03 	SW         R1,$36(SP)    | LDI        $3,R1
 2003c64:	8d 10 8d 1c 	SW         R1,$16(SP)    | SW         R1,$28(SP)
 2003c68:	be 00 bd 34 	CLR        R7            | SW         R7,$52(SP)
 2003c6c:	78 83 e7 34 	BRA        @0x020023a4    // 20023a4 <_vfprintf_r+0x7fc>
 2003c70:	0c 87 40 44 	LW         68(SP),R1
 2003c74:	8a 01 8a b8 	ADD        $1,R1         | ADD        R7,R1
 2003c78:	8d 1c 96 00 	SW         R1,$28(SP)    | CLR        R2
 2003c7c:	14 04 40 00 	CMP        R1,R2
 2003c80:	13 50 40 00 	MOV.LT     R1,R2
 2003c84:	14 c7 40 10 	SW         R2,$16(SP)
 2003c88:	78 83 f6 80 	BRA        @0x0200330c    // 200330c <_vfprintf_r+0x1764>
 2003c8c:	e7 b8 8c 24 	MOV        R7,R12        | LW         36(SP),R1
 2003c90:	bc 88 b6 ff 	LW         (R1),R7       | LDI        $-1,R6
 2003c94:	3c 05 80 00 	CMP        R6,R7
 2003c98:	3b 51 80 00 	MOV.LT     R6,R7
 2003c9c:	0b 40 40 04 	MOV        $4+R1,R1
 2003ca0:	8d 24 8f e0 	SW         R1,$36(SP)    | MOV        R12,R1
 2003ca4:	78 83 e3 c4 	BRA        @0x0200206c    // 200206c <_vfprintf_r+0x4c4>
 2003ca8:	0e 00 00 02 	LDI        $2,R1
 2003cac:	0c c7 40 50 	SW         R1,$80(SP)
 2003cb0:	9e 02 94 38 	LDI        $2,R3         | LW         56(SP),R2
 2003cb4:	8f 90 8a 98 	MOV        R2,R1         | ADD        R3,R1
 2003cb8:	8d 1c 93 02 	SW         R1,$28(SP)    | CMP        $2,R2
 2003cbc:	78 b3 f6 30 	BGE        @0x020032f0    // 20032f0 <_vfprintf_r+0x1748>
 2003cc0:	78 83 fd 80 	BRA        @0x02003a44    // 2003a44 <_vfprintf_r+0x1e9c>
 2003cc4:	0b 43 40 74 	MOV        $116+SP,R1
 2003cc8:	0c c7 40 08 	SW         R1,$8(SP)
 2003ccc:	0b 43 40 68 	MOV        $104+SP,R1
 2003cd0:	0c c7 40 04 	SW         R1,$4(SP)
 2003cd4:	0b 43 40 64 	MOV        $100+SP,R1
 2003cd8:	8d 00 af b8 	SW         R1,(SP)       | MOV        R7,R5
 2003cdc:	a6 02 94 1c 	LDI        $2,R4         | LW         28(SP),R2
 2003ce0:	9c 3c 8c 20 	LW         60(SP),R3     | LW         32(SP),R1
 2003ce4:	87 fa fc f8 	JSR        0x02004478     // 2004478 <_dtoa_r>
 2003ce8:	02 00 44 78 
 2003cec:	df 88 8c 10 	MOV        R1,R11        | LW         16(SP),R1
 2003cf0:	0c 00 00 47 	CMP        $71,R1
 2003cf4:	78 8b f5 10 	BZ         @0x02003208    // 2003208 <_vfprintf_r+0x1660>
 2003cf8:	bd 34 af d8 	SW         R7,$52(SP)    | MOV        R11,R5
 2003cfc:	84 34 aa 80 	LW         52(SP),R0     | ADD        R0,R5
 2003d00:	78 83 fa f4 	BRA        @0x020037f8    // 20037f8 <_vfprintf_r+0x1c50>

02003d04 <vfprintf>:
 2003d04:	e8 04 85 00 	SUB        $4,SP         | SW         R0,(SP)
 2003d08:	a7 98 9f 90 	MOV        R3,R4         | MOV        R2,R3
 2003d0c:	13 40 40 00 	MOV        R1,R2
 2003d10:	0a 03 00 40 	LDI        0x0200f840,R1  // 200f840 <_impure_ptr>
 2003d14:	0a 40 f8 40 
 2003d18:	8c 88 84 00 	LW         (R1),R1       | LW         (SP),R0
 2003d1c:	68 80 00 04 	ADD        $4,SP
 2003d20:	78 83 de 84 	BRA        @0x02001ba8    // 2001ba8 <_vfprintf_r>

02003d24 <__sbprintf>:
 2003d24:	68 00 04 7c 	SUB        $1148,SP
 2003d28:	04 c7 44 6c 	SW         R0,$1132(SP)
 2003d2c:	2c c7 44 70 	SW         R5,$1136(SP)
 2003d30:	34 c7 44 74 	SW         R6,$1140(SP)
 2003d34:	3c c7 44 78 	SW         R7,$1144(SP)
 2003d38:	bf 88 af 90 	MOV        R1,R7         | MOV        R2,R5
 2003d3c:	05 04 80 0c 	LH         12(R2),R0
 2003d40:	00 40 ff fd 	AND        $65533,R0
 2003d44:	05 47 40 0c 	SH         R0,$12(SP)
 2003d48:	04 84 80 68 	LW         104(R2),R0
 2003d4c:	04 c7 40 68 	SW         R0,$104(SP)
 2003d50:	05 04 80 0e 	LH         14(R2),R0
 2003d54:	05 47 40 0e 	SH         R0,$14(SP)
 2003d58:	04 84 80 1c 	LW         28(R2),R0
 2003d5c:	04 c7 40 1c 	SW         R0,$28(SP)
 2003d60:	04 84 80 24 	LW         36(R2),R0
 2003d64:	04 c7 40 24 	SW         R0,$36(SP)
 2003d68:	03 43 40 6c 	MOV        $108+SP,R0
 2003d6c:	85 00 85 10 	SW         R0,(SP)       | SW         R0,$16(SP)
 2003d70:	06 00 04 00 	LDI        $1024,R0
 2003d74:	85 08 85 14 	SW         R0,$8(SP)     | SW         R0,$20(SP)
 2003d78:	86 00 85 18 	CLR        R0            | SW         R0,$24(SP)
 2003d7c:	13 43 40 00 	MOV        SP,R2
 2003d80:	87 fa fc f8 	JSR        0x02001ba8     // 2001ba8 <_vfprintf_r>
 2003d84:	02 00 1b a8 
 2003d88:	b7 88 8b 00 	MOV        R1,R6         | CMP        $0,R1
 2003d8c:	78 b0 00 34 	BGE        @0x02003dc4    // 2003dc4 <__sbprintf+0xa0>
 2003d90:	0d 07 40 0c 	LH         12(SP),R1
 2003d94:	08 40 00 40 	AND        $64,R1
 2003d98:	78 88 00 0c 	BZ         @0x02003da8    // 2003da8 <__sbprintf+0x84>
 2003d9c:	0d 05 40 0c 	LH         12(R5),R1
 2003da0:	08 c0 00 40 	OR         $64,R1
 2003da4:	0d 45 40 0c 	SH         R1,$12(R5)
 2003da8:	0b 41 80 00 	MOV        R6,R1
 2003dac:	04 87 44 6c 	LW         1132(SP),R0
 2003db0:	2c 87 44 70 	LW         1136(SP),R5
 2003db4:	34 87 44 74 	LW         1140(SP),R6
 2003db8:	3c 87 44 78 	LW         1144(SP),R7
 2003dbc:	68 80 04 7c 	ADD        $1148,SP
 2003dc0:	7b 40 00 00 	RTN
 2003dc4:	97 e8 8f b8 	MOV        SP,R2         | MOV        R7,R1
 2003dc8:	87 fa fc f8 	JSR        0x02005f18     // 2005f18 <_fflush_r>
 2003dcc:	02 00 5f 18 
 2003dd0:	0c 00 00 00 	CMP        $0,R1
 2003dd4:	32 2b ff ff 	BREV.NZ    $-1,R6
 2003dd8:	78 83 ff b4 	BRA        @0x02003d90    // 2003d90 <__sbprintf+0x6c>

02003ddc <__swbuf_r>:
 2003ddc:	e8 14 85 00 	SUB        $20,SP        | SW         R0,(SP)
 2003de0:	ad 04 b5 08 	SW         R5,$4(SP)     | SW         R6,$8(SP)
 2003de4:	bd 0c c5 10 	SW         R7,$12(SP)    | SW         R8,$16(SP)
 2003de8:	bf 88 b7 90 	MOV        R1,R7         | MOV        R2,R6
 2003dec:	af 98 8b 00 	MOV        R3,R5         | CMP        $0,R1
 2003df0:	78 88 00 0c 	BZ         @0x02003e00    // 2003e00 <__swbuf_r+0x24>
 2003df4:	14 84 40 38 	LW         56(R1),R2
 2003df8:	14 00 00 00 	CMP        $0,R2
 2003dfc:	78 88 01 5c 	BZ         @0x02003f5c    // 2003f5c <__swbuf_r+0x180>
 2003e00:	0c 85 40 18 	LW         24(R5),R1
 2003e04:	0c c5 40 08 	SW         R1,$8(R5)
 2003e08:	1d 05 40 0c 	LH         12(R5),R3
 2003e0c:	0b 40 c0 00 	MOV        R3,R1
 2003e10:	08 40 ff ff 	AND        $65535,R1
 2003e14:	97 98 91 08 	MOV        R3,R2         | AND        $8,R2
 2003e18:	78 88 00 7c 	BZ         @0x02003e98    // 2003e98 <__swbuf_r+0xbc>
 2003e1c:	24 85 40 10 	LW         16(R5),R4
 2003e20:	24 00 00 00 	CMP        $0,R4
 2003e24:	78 88 00 70 	BZ         @0x02003e98    // 2003e98 <__swbuf_r+0xbc>
 2003e28:	43 41 80 00 	MOV        R6,R8
 2003e2c:	40 40 00 ff 	AND        $255,R8
 2003e30:	30 40 00 ff 	AND        $255,R6
 2003e34:	08 40 20 00 	AND        $8192,R1
 2003e38:	78 88 00 94 	BZ         @0x02003ed0    // 2003ed0 <__swbuf_r+0xf4>
 2003e3c:	94 a8 8f 90 	LW         (R5),R2       | MOV        R2,R1
 2003e40:	08 05 00 00 	SUB        R4,R1
 2003e44:	1c 85 40 14 	LW         20(R5),R3
 2003e48:	0c 04 c0 00 	CMP        R3,R1
 2003e4c:	78 b0 00 ac 	BGE        @0x02003efc    // 2003efc <__swbuf_r+0x120>
 2003e50:	08 80 00 01 	ADD        $1,R1
 2003e54:	1c 85 40 08 	LW         8(R5),R3
 2003e58:	18 83 ff ff 	ADD        $-1,R3
 2003e5c:	1c c5 40 08 	SW         R3,$8(R5)
 2003e60:	9f 91 9d a8 	MOV        $1+R2,R3      | SW         R3,(R5)
 2003e64:	45 c4 80 00 	SB         R8,(R2)
 2003e68:	14 85 40 14 	LW         20(R5),R2
 2003e6c:	14 04 40 00 	CMP        R1,R2
 2003e70:	78 88 00 c0 	BZ         @0x02003f34    // 2003f34 <__swbuf_r+0x158>
 2003e74:	b3 0a 96 00 	CMP        $10,R6        | CLR        R2
 2003e78:	10 c8 00 01 	OR.Z       $1,R2
 2003e7c:	0d 05 40 0c 	LH         12(R5),R1
 2003e80:	10 44 40 00 	AND        R1,R2
 2003e84:	78 a8 00 ac 	BNZ        @0x02003f34    // 2003f34 <__swbuf_r+0x158>
 2003e88:	8f b0 84 00 	MOV        R6,R1         | LW         (SP),R0
 2003e8c:	ac 04 b4 08 	LW         4(SP),R5      | LW         8(SP),R6
 2003e90:	bc 0c c4 10 	LW         12(SP),R7     | LW         16(SP),R8
 2003e94:	ea 14 ff 80 	ADD        $20,SP        | RTN
 2003e98:	97 a8 8f b8 	MOV        R5,R2         | MOV        R7,R1
 2003e9c:	87 fa fc f8 	JSR        0x02004100     // 2004100 <__swsetup_r>
 2003ea0:	02 00 41 00 
 2003ea4:	0c 00 00 00 	CMP        $0,R1
 2003ea8:	78 a8 00 9c 	BNZ        @0x02003f48    // 2003f48 <__swbuf_r+0x16c>
 2003eac:	1d 05 40 0c 	LH         12(R5),R3
 2003eb0:	0b 40 c0 00 	MOV        R3,R1
 2003eb4:	08 40 ff ff 	AND        $65535,R1
 2003eb8:	24 85 40 10 	LW         16(R5),R4
 2003ebc:	43 41 80 00 	MOV        R6,R8
 2003ec0:	40 40 00 ff 	AND        $255,R8
 2003ec4:	30 40 00 ff 	AND        $255,R6
 2003ec8:	08 40 20 00 	AND        $8192,R1
 2003ecc:	78 ab ff 6c 	BNZ        @0x02003e3c    // 2003e3c <__swbuf_r+0x60>
 2003ed0:	18 c0 20 00 	OR         $8192,R3
 2003ed4:	1d 45 40 0c 	SH         R3,$12(R5)
 2003ed8:	7f 40 00 00 	LOCK
 2003edc:	0c 85 40 68 	LW         104(R5),R1
 2003ee0:	08 43 df ff 	AND        $-8193,R1
 2003ee4:	0c c5 40 68 	SW         R1,$104(R5)
 2003ee8:	94 a8 8f 90 	LW         (R5),R2       | MOV        R2,R1
 2003eec:	08 05 00 00 	SUB        R4,R1
 2003ef0:	1c 85 40 14 	LW         20(R5),R3
 2003ef4:	0c 04 c0 00 	CMP        R3,R1
 2003ef8:	78 93 ff 54 	BLT        @0x02003e50    // 2003e50 <__swbuf_r+0x74>
 2003efc:	97 a8 8f b8 	MOV        R5,R2         | MOV        R7,R1
 2003f00:	87 fa fc f8 	JSR        0x02005f18     // 2005f18 <_fflush_r>
 2003f04:	02 00 5f 18 
 2003f08:	0c 00 00 00 	CMP        $0,R1
 2003f0c:	78 a8 00 38 	BNZ        @0x02003f48    // 2003f48 <__swbuf_r+0x16c>
 2003f10:	94 a8 8e 01 	LW         (R5),R2       | LDI        $1,R1
 2003f14:	1c 85 40 08 	LW         8(R5),R3
 2003f18:	18 83 ff ff 	ADD        $-1,R3
 2003f1c:	1c c5 40 08 	SW         R3,$8(R5)
 2003f20:	9f 91 9d a8 	MOV        $1+R2,R3      | SW         R3,(R5)
 2003f24:	45 c4 80 00 	SB         R8,(R2)
 2003f28:	14 85 40 14 	LW         20(R5),R2
 2003f2c:	14 04 40 00 	CMP        R1,R2
 2003f30:	78 ab ff 40 	BNZ        @0x02003e74    // 2003e74 <__swbuf_r+0x98>
 2003f34:	97 a8 8f b8 	MOV        R5,R2         | MOV        R7,R1
 2003f38:	87 fa fc f8 	JSR        0x02005f18     // 2005f18 <_fflush_r>
 2003f3c:	02 00 5f 18 
 2003f40:	0c 00 00 00 	CMP        $0,R1
 2003f44:	78 8b ff 40 	BZ         @0x02003e88    // 2003e88 <__swbuf_r+0xac>
 2003f48:	b6 ff 8e ff 	LDI        $-1,R6        | LDI        $-1,R1
 2003f4c:	84 00 ac 04 	LW         (SP),R0       | LW         4(SP),R5
 2003f50:	b4 08 bc 0c 	LW         8(SP),R6      | LW         12(SP),R7
 2003f54:	c4 10 ea 14 	LW         16(SP),R8     | ADD        $20,SP
 2003f58:	7b 40 00 00 	RTN
 2003f5c:	87 fa fc f8 	JSR        0x02006348     // 2006348 <__sinit>
 2003f60:	02 00 63 48 
 2003f64:	78 83 fe 98 	BRA        @0x02003e00    // 2003e00 <__swbuf_r+0x24>

02003f68 <__swbuf>:
 2003f68:	e8 14 85 00 	SUB        $20,SP        | SW         R0,(SP)
 2003f6c:	ad 04 b5 08 	SW         R5,$4(SP)     | SW         R6,$8(SP)
 2003f70:	bd 0c c5 10 	SW         R7,$12(SP)    | SW         R8,$16(SP)
 2003f74:	b7 88 af 90 	MOV        R1,R6         | MOV        R2,R5
 2003f78:	0a 03 00 40 	LDI        0x0200f840,R1  // 200f840 <_impure_ptr>
 2003f7c:	0a 40 f8 40 
 2003f80:	bc 88 bb 00 	LW         (R1),R7       | CMP        $0,R7
 2003f84:	78 88 00 0c 	BZ         @0x02003f94    // 2003f94 <__swbuf+0x2c>
 2003f88:	0c 85 c0 38 	LW         56(R7),R1
 2003f8c:	0c 00 00 00 	CMP        $0,R1
 2003f90:	78 88 01 5c 	BZ         @0x020040f0    // 20040f0 <__swbuf+0x188>
 2003f94:	0c 85 40 18 	LW         24(R5),R1
 2003f98:	0c c5 40 08 	SW         R1,$8(R5)
 2003f9c:	15 05 40 0c 	LH         12(R5),R2
 2003fa0:	0b 40 80 00 	MOV        R2,R1
 2003fa4:	08 40 ff ff 	AND        $65535,R1
 2003fa8:	9f 90 99 08 	MOV        R2,R3         | AND        $8,R3
 2003fac:	78 88 00 7c 	BZ         @0x0200402c    // 200402c <__swbuf+0xc4>
 2003fb0:	1c 85 40 10 	LW         16(R5),R3
 2003fb4:	1c 00 00 00 	CMP        $0,R3
 2003fb8:	78 88 00 70 	BZ         @0x0200402c    // 200402c <__swbuf+0xc4>
 2003fbc:	43 41 80 00 	MOV        R6,R8
 2003fc0:	40 40 00 ff 	AND        $255,R8
 2003fc4:	30 40 00 ff 	AND        $255,R6
 2003fc8:	08 40 20 00 	AND        $8192,R1
 2003fcc:	78 88 00 94 	BZ         @0x02004064    // 2004064 <__swbuf+0xfc>
 2003fd0:	94 a8 8f 90 	LW         (R5),R2       | MOV        R2,R1
 2003fd4:	08 04 c0 00 	SUB        R3,R1
 2003fd8:	1c 85 40 14 	LW         20(R5),R3
 2003fdc:	0c 04 c0 00 	CMP        R3,R1
 2003fe0:	78 b0 00 ac 	BGE        @0x02004090    // 2004090 <__swbuf+0x128>
 2003fe4:	08 80 00 01 	ADD        $1,R1
 2003fe8:	1c 85 40 08 	LW         8(R5),R3
 2003fec:	18 83 ff ff 	ADD        $-1,R3
 2003ff0:	1c c5 40 08 	SW         R3,$8(R5)
 2003ff4:	9f 91 9d a8 	MOV        $1+R2,R3      | SW         R3,(R5)
 2003ff8:	45 c4 80 00 	SB         R8,(R2)
 2003ffc:	14 85 40 14 	LW         20(R5),R2
 2004000:	14 04 40 00 	CMP        R1,R2
 2004004:	78 88 00 c0 	BZ         @0x020040c8    // 20040c8 <__swbuf+0x160>
 2004008:	b3 0a 8e 00 	CMP        $10,R6        | CLR        R1
 200400c:	08 c8 00 01 	OR.Z       $1,R1
 2004010:	15 05 40 0c 	LH         12(R5),R2
 2004014:	08 44 80 00 	AND        R2,R1
 2004018:	78 a8 00 ac 	BNZ        @0x020040c8    // 20040c8 <__swbuf+0x160>
 200401c:	8f b0 84 00 	MOV        R6,R1         | LW         (SP),R0
 2004020:	ac 04 b4 08 	LW         4(SP),R5      | LW         8(SP),R6
 2004024:	bc 0c c4 10 	LW         12(SP),R7     | LW         16(SP),R8
 2004028:	ea 14 ff 80 	ADD        $20,SP        | RTN
 200402c:	97 a8 8f b8 	MOV        R5,R2         | MOV        R7,R1
 2004030:	87 fa fc f8 	JSR        0x02004100     // 2004100 <__swsetup_r>
 2004034:	02 00 41 00 
 2004038:	0c 00 00 00 	CMP        $0,R1
 200403c:	78 a8 00 9c 	BNZ        @0x020040dc    // 20040dc <__swbuf+0x174>
 2004040:	15 05 40 0c 	LH         12(R5),R2
 2004044:	0b 40 80 00 	MOV        R2,R1
 2004048:	08 40 ff ff 	AND        $65535,R1
 200404c:	1c 85 40 10 	LW         16(R5),R3
 2004050:	43 41 80 00 	MOV        R6,R8
 2004054:	40 40 00 ff 	AND        $255,R8
 2004058:	30 40 00 ff 	AND        $255,R6
 200405c:	08 40 20 00 	AND        $8192,R1
 2004060:	78 ab ff 6c 	BNZ        @0x02003fd0    // 2003fd0 <__swbuf+0x68>
 2004064:	10 c0 20 00 	OR         $8192,R2
 2004068:	15 45 40 0c 	SH         R2,$12(R5)
 200406c:	7f 40 00 00 	LOCK
 2004070:	0c 85 40 68 	LW         104(R5),R1
 2004074:	08 43 df ff 	AND        $-8193,R1
 2004078:	0c c5 40 68 	SW         R1,$104(R5)
 200407c:	94 a8 8f 90 	LW         (R5),R2       | MOV        R2,R1
 2004080:	08 04 c0 00 	SUB        R3,R1
 2004084:	1c 85 40 14 	LW         20(R5),R3
 2004088:	0c 04 c0 00 	CMP        R3,R1
 200408c:	78 93 ff 54 	BLT        @0x02003fe4    // 2003fe4 <__swbuf+0x7c>
 2004090:	97 a8 8f b8 	MOV        R5,R2         | MOV        R7,R1
 2004094:	87 fa fc f8 	JSR        0x02005f18     // 2005f18 <_fflush_r>
 2004098:	02 00 5f 18 
 200409c:	0c 00 00 00 	CMP        $0,R1
 20040a0:	78 a8 00 38 	BNZ        @0x020040dc    // 20040dc <__swbuf+0x174>
 20040a4:	94 a8 8e 01 	LW         (R5),R2       | LDI        $1,R1
 20040a8:	1c 85 40 08 	LW         8(R5),R3
 20040ac:	18 83 ff ff 	ADD        $-1,R3
 20040b0:	1c c5 40 08 	SW         R3,$8(R5)
 20040b4:	9f 91 9d a8 	MOV        $1+R2,R3      | SW         R3,(R5)
 20040b8:	45 c4 80 00 	SB         R8,(R2)
 20040bc:	14 85 40 14 	LW         20(R5),R2
 20040c0:	14 04 40 00 	CMP        R1,R2
 20040c4:	78 ab ff 40 	BNZ        @0x02004008    // 2004008 <__swbuf+0xa0>
 20040c8:	97 a8 8f b8 	MOV        R5,R2         | MOV        R7,R1
 20040cc:	87 fa fc f8 	JSR        0x02005f18     // 2005f18 <_fflush_r>
 20040d0:	02 00 5f 18 
 20040d4:	0c 00 00 00 	CMP        $0,R1
 20040d8:	78 8b ff 40 	BZ         @0x0200401c    // 200401c <__swbuf+0xb4>
 20040dc:	b6 ff 8e ff 	LDI        $-1,R6        | LDI        $-1,R1
 20040e0:	84 00 ac 04 	LW         (SP),R0       | LW         4(SP),R5
 20040e4:	b4 08 bc 0c 	LW         8(SP),R6      | LW         12(SP),R7
 20040e8:	c4 10 ea 14 	LW         16(SP),R8     | ADD        $20,SP
 20040ec:	7b 40 00 00 	RTN
 20040f0:	0b 41 c0 00 	MOV        R7,R1
 20040f4:	87 fa fc f8 	JSR        0x02006348     // 2006348 <__sinit>
 20040f8:	02 00 63 48 
 20040fc:	78 83 fe 94 	BRA        @0x02003f94    // 2003f94 <__swbuf+0x2c>

02004100 <__swsetup_r>:
 2004100:	e8 0c 85 00 	SUB        $12,SP        | SW         R0,(SP)
 2004104:	ad 04 b5 08 	SW         R5,$4(SP)     | SW         R6,$8(SP)
 2004108:	b7 88 af 90 	MOV        R1,R6         | MOV        R2,R5
 200410c:	12 03 00 40 	LDI        0x0200f840,R2  // 200f840 <_impure_ptr>
 2004110:	12 40 f8 40 
 2004114:	8c 90 8b 00 	LW         (R2),R1       | CMP        $0,R1
 2004118:	78 88 00 0c 	BZ         @0x02004128    // 2004128 <__swsetup_r+0x28>
 200411c:	14 84 40 38 	LW         56(R1),R2
 2004120:	14 00 00 00 	CMP        $0,R2
 2004124:	78 88 00 c4 	BZ         @0x020041ec    // 20041ec <__swsetup_r+0xec>
 2004128:	25 05 40 0c 	LH         12(R5),R4
 200412c:	13 41 00 00 	MOV        R4,R2
 2004130:	10 40 ff ff 	AND        $65535,R2
 2004134:	9f a0 99 08 	MOV        R4,R3         | AND        $8,R3
 2004138:	78 88 00 cc 	BZ         @0x02004208    // 2004208 <__swsetup_r+0x108>
 200413c:	1c 85 40 10 	LW         16(R5),R3
 2004140:	1c 00 00 00 	CMP        $0,R3
 2004144:	78 88 00 6c 	BZ         @0x020041b4    // 20041b4 <__swsetup_r+0xb4>
 2004148:	8f 90 89 01 	MOV        R2,R1         | AND        $1,R1
 200414c:	78 88 00 2c 	BZ         @0x0200417c    // 200417c <__swsetup_r+0x7c>
 2004150:	0e 00 00 00 	CLR        R1
 2004154:	0c c5 40 08 	SW         R1,$8(R5)
 2004158:	0c 85 40 14 	LW         20(R5),R1
 200415c:	0b 40 5f ff 	MOV        $-1+R1,R1
 2004160:	09 03 ff ff 	XOR        $-1,R1
 2004164:	0c c5 40 18 	SW         R1,$24(R5)
 2004168:	8e 00 9b 00 	CLR        R1            | CMP        $0,R3
 200416c:	78 88 00 20 	BZ         @0x02004190    // 2004190 <__swsetup_r+0x90>
 2004170:	84 00 ac 04 	LW         (SP),R0       | LW         4(SP),R5
 2004174:	b4 08 ea 0c 	LW         8(SP),R6      | ADD        $12,SP
 2004178:	7b 40 00 00 	RTN
 200417c:	b7 90 b1 02 	MOV        R2,R6         | AND        $2,R6
 2004180:	0c 8d 40 14 	LW.Z       20(R5),R1
 2004184:	0c c5 40 08 	SW         R1,$8(R5)
 2004188:	8e 00 9b 00 	CLR        R1            | CMP        $0,R3
 200418c:	78 ab ff e0 	BNZ        @0x02004170    // 2004170 <__swsetup_r+0x70>
 2004190:	10 40 00 80 	AND        $128,R2
 2004194:	0b 40 c0 00 	MOV        R3,R1
 2004198:	78 8b ff d4 	BZ         @0x02004170    // 2004170 <__swsetup_r+0x70>
 200419c:	0b 41 00 00 	MOV        R4,R1
 20041a0:	08 c0 00 40 	OR         $64,R1
 20041a4:	0d 45 40 0c 	SH         R1,$12(R5)
 20041a8:	8e ff 84 00 	LDI        $-1,R1        | LW         (SP),R0
 20041ac:	ac 04 b4 08 	LW         4(SP),R5      | LW         8(SP),R6
 20041b0:	ea 0c ff 80 	ADD        $12,SP        | RTN
 20041b4:	0b 40 80 00 	MOV        R2,R1
 20041b8:	08 40 02 80 	AND        $640,R1
 20041bc:	0c 00 02 00 	CMP        $512,R1
 20041c0:	78 8b ff 84 	BZ         @0x02004148    // 2004148 <__swsetup_r+0x48>
 20041c4:	97 a8 8f b0 	MOV        R5,R2         | MOV        R6,R1
 20041c8:	87 fa fc f8 	JSR        0x02006d18     // 2006d18 <__smakebuf_r>
 20041cc:	02 00 6d 18 
 20041d0:	25 05 40 0c 	LH         12(R5),R4
 20041d4:	13 41 00 00 	MOV        R4,R2
 20041d8:	10 40 ff ff 	AND        $65535,R2
 20041dc:	1c 85 40 10 	LW         16(R5),R3
 20041e0:	8f 90 89 01 	MOV        R2,R1         | AND        $1,R1
 20041e4:	78 8b ff 94 	BZ         @0x0200417c    // 200417c <__swsetup_r+0x7c>
 20041e8:	78 83 ff 64 	BRA        @0x02004150    // 2004150 <__swsetup_r+0x50>
 20041ec:	87 fa fc f8 	JSR        0x02006348     // 2006348 <__sinit>
 20041f0:	02 00 63 48 
 20041f4:	25 05 40 0c 	LH         12(R5),R4
 20041f8:	13 41 00 00 	MOV        R4,R2
 20041fc:	10 40 ff ff 	AND        $65535,R2
 2004200:	9f a0 99 08 	MOV        R4,R3         | AND        $8,R3
 2004204:	78 ab ff 34 	BNZ        @0x0200413c    // 200413c <__swsetup_r+0x3c>
 2004208:	8f 90 89 10 	MOV        R2,R1         | AND        $16,R1
 200420c:	78 88 00 7c 	BZ         @0x0200428c    // 200428c <__swsetup_r+0x18c>
 2004210:	10 40 00 04 	AND        $4,R2
 2004214:	78 a8 00 20 	BNZ        @0x02004238    // 2004238 <__swsetup_r+0x138>
 2004218:	1c 85 40 10 	LW         16(R5),R3
 200421c:	20 c0 00 08 	OR         $8,R4
 2004220:	25 45 40 0c 	SH         R4,$12(R5)
 2004224:	13 41 00 00 	MOV        R4,R2
 2004228:	10 40 ff ff 	AND        $65535,R2
 200422c:	1c 00 00 00 	CMP        $0,R3
 2004230:	78 ab ff 14 	BNZ        @0x02004148    // 2004148 <__swsetup_r+0x48>
 2004234:	78 83 ff 7c 	BRA        @0x020041b4    // 20041b4 <__swsetup_r+0xb4>
 2004238:	14 85 40 30 	LW         48(R5),R2
 200423c:	14 00 00 00 	CMP        $0,R2
 2004240:	78 88 00 20 	BZ         @0x02004264    // 2004264 <__swsetup_r+0x164>
 2004244:	14 05 40 40 	CMP        $64+R5,R2
 2004248:	78 88 00 10 	BZ         @0x0200425c    // 200425c <__swsetup_r+0x15c>
 200424c:	0b 41 80 00 	MOV        R6,R1
 2004250:	87 fa fc f8 	JSR        0x020066a8     // 20066a8 <_free_r>
 2004254:	02 00 66 a8 
 2004258:	25 05 40 0c 	LH         12(R5),R4
 200425c:	0e 00 00 00 	CLR        R1
 2004260:	0c c5 40 30 	SW         R1,$48(R5)
 2004264:	20 40 ff db 	AND        $65499,R4
 2004268:	0e 00 00 00 	CLR        R1
 200426c:	0c c5 40 04 	SW         R1,$4(R5)
 2004270:	1c 85 40 10 	LW         16(R5),R3
 2004274:	1c c5 40 00 	SW         R3,(R5)
 2004278:	20 c0 00 08 	OR         $8,R4
 200427c:	25 45 40 0c 	SH         R4,$12(R5)
 2004280:	13 41 00 00 	MOV        R4,R2
 2004284:	10 40 ff ff 	AND        $65535,R2
 2004288:	78 83 ff a0 	BRA        @0x0200422c    // 200422c <__swsetup_r+0x12c>
 200428c:	8e 09 8d b0 	LDI        $9,R1         | SW         R1,(R6)
 2004290:	0b 41 00 00 	MOV        R4,R1
 2004294:	08 c0 00 40 	OR         $64,R1
 2004298:	0d 45 40 0c 	SH         R1,$12(R5)
 200429c:	8e ff 84 00 	LDI        $-1,R1        | LW         (SP),R0
 20042a0:	ac 04 b4 08 	LW         4(SP),R5      | LW         8(SP),R6
 20042a4:	ea 0c ff 80 	ADD        $12,SP        | RTN

020042a8 <quorem>:
 20042a8:	e8 30 85 0c 	SUB        $48,SP        | SW         R0,$12(SP)
 20042ac:	ad 10 b5 14 	SW         R5,$16(SP)    | SW         R6,$20(SP)
 20042b0:	bd 18 c5 1c 	SW         R7,$24(SP)    | SW         R8,$28(SP)
 20042b4:	cd 20 d5 24 	SW         R9,$32(SP)    | SW         R10,$36(SP)
 20042b8:	dd 28 e5 2c 	SW         R11,$40(SP)   | SW         R12,$44(SP)
 20042bc:	9f 88 8d 00 	MOV        R1,R3         | SW         R1,(SP)
 20042c0:	14 c7 40 04 	SW         R2,$4(SP)
 20042c4:	34 84 80 10 	LW         16(R2),R6
 20042c8:	0c 84 40 10 	LW         16(R1),R1
 20042cc:	0c 05 80 00 	CMP        R6,R1
 20042d0:	78 90 01 8c 	BLT        @0x02004460    // 2004460 <quorem+0x1b8>
 20042d4:	2b 40 80 14 	MOV        $20+R2,R5
 20042d8:	b2 7f 87 b0 	ADD        $-1,R6        | MOV        R6,R0
 20042dc:	01 80 00 02 	LSL        $2,R0
 20042e0:	c7 a8 c2 80 	MOV        R5,R8         | ADD        R0,R8
 20042e4:	4b 40 c0 14 	MOV        $20+R3,R9
 20042e8:	8f c8 8a 80 	MOV        R9,R1         | ADD        R0,R1
 20042ec:	8d 08 8c 88 	SW         R1,$8(SP)     | LW         (R1),R1
 20042f0:	84 c0 82 01 	LW         (R8),R0       | ADD        $1,R0
 20042f4:	3b 40 40 00 	MOV        R1,R7
 20042f8:	3b 84 00 00 	DIVU       R0,R7
 20042fc:	0c 04 00 00 	CMP        R0,R1
 2004300:	78 98 00 a8 	BC         @0x020043ac    // 20043ac <quorem+0x104>
 2004304:	d7 a8 8f c8 	MOV        R5,R10        | MOV        R9,R1
 2004308:	de 00 86 00 	CLR        R11           | CLR        R0
 200430c:	a4 d0 d2 04 	LW         (R10),R4      | ADD        $4,R10
 2004310:	1b 41 00 00 	MOV        R4,R3
 2004314:	18 40 ff ff 	AND        $65535,R3
 2004318:	1b 05 c0 00 	MPY        R7,R3
 200431c:	18 86 c0 00 	ADD        R11,R3
 2004320:	21 40 00 10 	LSR        $16,R4
 2004324:	23 05 c0 00 	MPY        R7,R4
 2004328:	13 40 c0 00 	MOV        R3,R2
 200432c:	11 40 00 10 	LSR        $16,R2
 2004330:	a2 90 df a0 	ADD        R2,R4         | MOV        R4,R11
 2004334:	59 40 00 10 	LSR        $16,R11
 2004338:	14 84 40 00 	LW         (R1),R2
 200433c:	18 40 ff ff 	AND        $65535,R3
 2004340:	80 98 e7 90 	SUB        R3,R0         | MOV        R2,R12
 2004344:	60 40 ff ff 	AND        $65535,R12
 2004348:	82 e0 9f 80 	ADD        R12,R0        | MOV        R0,R3
 200434c:	11 40 00 10 	LSR        $16,R2
 2004350:	20 40 ff ff 	AND        $65535,R4
 2004354:	10 05 00 00 	SUB        R4,R2
 2004358:	01 c0 00 10 	ASR        $16,R0
 200435c:	92 80 87 90 	ADD        R0,R2         | MOV        R2,R0
 2004360:	01 c0 00 10 	ASR        $16,R0
 2004364:	08 80 00 04 	ADD        $4,R1
 2004368:	11 80 00 10 	LSL        $16,R2
 200436c:	18 40 ff ff 	AND        $65535,R3
 2004370:	10 c4 c0 00 	OR         R3,R2
 2004374:	95 8c c3 d0 	SW         R2,$-4(R1)    | CMP        R10,R8
 2004378:	78 bb ff 90 	BNC        @0x0200430c    // 200430c <quorem+0x64>
 200437c:	8c 08 84 88 	LW         8(SP),R1      | LW         (R1),R0
 2004380:	04 00 00 00 	CMP        $0,R0
 2004384:	78 a8 00 24 	BNZ        @0x020043ac    // 20043ac <quorem+0x104>
 2004388:	87 8c cb 80 	MOV        $-4+R1,R0     | CMP        R0,R9
 200438c:	78 b8 00 14 	BNC        @0x020043a4    // 20043a4 <quorem+0xfc>
 2004390:	8c 80 8b 00 	LW         (R0),R1       | CMP        $0,R1
 2004394:	78 a8 00 0c 	BNZ        @0x020043a4    // 20043a4 <quorem+0xfc>
 2004398:	b2 7f 82 7c 	ADD        $-1,R6        | ADD        $-4,R0
 200439c:	4c 04 00 00 	CMP        R0,R9
 20043a0:	78 9b ff ec 	BC         @0x02004390    // 2004390 <quorem+0xe8>
 20043a4:	04 87 40 00 	LW         (SP),R0
 20043a8:	34 c4 00 10 	SW         R6,$16(R0)
 20043ac:	94 04 8c 00 	LW         4(SP),R2      | LW         (SP),R1
 20043b0:	87 fa fc f8 	JSR        0x02007ff4     // 2007ff4 <__mcmp>
 20043b4:	02 00 7f f4 
 20043b8:	0c 00 00 00 	CMP        $0,R1
 20043bc:	78 90 00 88 	BLT        @0x02004448    // 2004448 <quorem+0x1a0>
 20043c0:	ba 01 9f c8 	ADD        $1,R7         | MOV        R9,R3
 20043c4:	16 00 00 00 	CLR        R2
 20043c8:	d4 a8 aa 04 	LW         (R5),R10      | ADD        $4,R5
 20043cc:	8c 98 a7 d0 	LW         (R3),R1       | MOV        R10,R4
 20043d0:	20 40 ff ff 	AND        $65535,R4
 20043d4:	90 a0 df 88 	SUB        R4,R2         | MOV        R1,R11
 20043d8:	58 40 ff ff 	AND        $65535,R11
 20043dc:	92 d8 a7 90 	ADD        R11,R2        | MOV        R2,R4
 20043e0:	09 40 00 10 	LSR        $16,R1
 20043e4:	51 40 00 10 	LSR        $16,R10
 20043e8:	08 06 80 00 	SUB        R10,R1
 20043ec:	11 c0 00 10 	ASR        $16,R2
 20043f0:	8a 90 97 88 	ADD        R2,R1         | MOV        R1,R2
 20043f4:	11 c0 00 10 	ASR        $16,R2
 20043f8:	18 80 00 04 	ADD        $4,R3
 20043fc:	09 80 00 10 	LSL        $16,R1
 2004400:	20 40 ff ff 	AND        $65535,R4
 2004404:	08 c5 00 00 	OR         R4,R1
 2004408:	8d 9c c3 a8 	SW         R1,$-4(R3)    | CMP        R5,R8
 200440c:	78 bb ff b8 	BNC        @0x020043c8    // 20043c8 <quorem+0x120>
 2004410:	13 41 80 00 	MOV        R6,R2
 2004414:	11 80 00 02 	LSL        $2,R2
 2004418:	8f c8 8a 90 	MOV        R9,R1         | ADD        R2,R1
 200441c:	94 88 93 00 	LW         (R1),R2       | CMP        $0,R2
 2004420:	78 a8 00 24 	BNZ        @0x02004448    // 2004448 <quorem+0x1a0>
 2004424:	8a 7c cb 88 	ADD        $-4,R1        | CMP        R1,R9
 2004428:	78 b8 00 14 	BNC        @0x02004440    // 2004440 <quorem+0x198>
 200442c:	94 88 93 00 	LW         (R1),R2       | CMP        $0,R2
 2004430:	78 a8 00 0c 	BNZ        @0x02004440    // 2004440 <quorem+0x198>
 2004434:	b2 7f 8a 7c 	ADD        $-1,R6        | ADD        $-4,R1
 2004438:	4c 04 40 00 	CMP        R1,R9
 200443c:	78 9b ff ec 	BC         @0x0200442c    // 200442c <quorem+0x184>
 2004440:	0c 87 40 00 	LW         (SP),R1
 2004444:	34 c4 40 10 	SW         R6,$16(R1)
 2004448:	8f b8 84 0c 	MOV        R7,R1         | LW         12(SP),R0
 200444c:	ac 10 b4 14 	LW         16(SP),R5     | LW         20(SP),R6
 2004450:	bc 18 c4 1c 	LW         24(SP),R7     | LW         28(SP),R8
 2004454:	cc 20 d4 24 	LW         32(SP),R9     | LW         36(SP),R10
 2004458:	dc 28 e4 2c 	LW         40(SP),R11    | LW         44(SP),R12
 200445c:	ea 30 ff 80 	ADD        $48,SP        | RTN
 2004460:	8e 00 84 0c 	CLR        R1            | LW         12(SP),R0
 2004464:	ac 10 b4 14 	LW         16(SP),R5     | LW         20(SP),R6
 2004468:	bc 18 c4 1c 	LW         24(SP),R7     | LW         28(SP),R8
 200446c:	cc 20 d4 24 	LW         32(SP),R9     | LW         36(SP),R10
 2004470:	dc 28 e4 2c 	LW         40(SP),R11    | LW         44(SP),R12
 2004474:	ea 30 ff 80 	ADD        $48,SP        | RTN

02004478 <_dtoa_r>:
 2004478:	68 00 00 78 	SUB        $120,SP
 200447c:	04 c7 40 54 	SW         R0,$84(SP)
 2004480:	2c c7 40 58 	SW         R5,$88(SP)
 2004484:	34 c7 40 5c 	SW         R6,$92(SP)
 2004488:	3c c7 40 60 	SW         R7,$96(SP)
 200448c:	44 c7 40 64 	SW         R8,$100(SP)
 2004490:	4c c7 40 68 	SW         R9,$104(SP)
 2004494:	54 c7 40 6c 	SW         R10,$108(SP)
 2004498:	5c c7 40 70 	SW         R11,$112(SP)
 200449c:	64 c7 40 74 	SW         R12,$116(SP)
 20044a0:	df 88 bf 90 	MOV        R1,R11        | MOV        R2,R7
 20044a4:	9d 04 a5 00 	SW         R3,$4(SP)     | SW         R4,(SP)
 20044a8:	ad 1c 95 08 	SW         R5,$28(SP)    | SW         R2,$8(SP)
 20044ac:	14 84 40 40 	LW         64(R1),R2
 20044b0:	14 00 00 00 	CMP        $0,R2
 20044b4:	78 88 00 24 	BZ         @0x020044dc    // 20044dc <_dtoa_r+0x64>
 20044b8:	24 84 40 44 	LW         68(R1),R4
 20044bc:	24 c4 80 04 	SW         R4,$4(R2)
 20044c0:	1e 00 00 01 	LDI        $1,R3
 20044c4:	19 85 00 00 	LSL        R4,R3
 20044c8:	1c c4 80 08 	SW         R3,$8(R2)
 20044cc:	87 fa fc f8 	JSR        0x02007410     // 2007410 <_Bfree>
 20044d0:	02 00 74 10 
 20044d4:	0e 00 00 00 	CLR        R1
 20044d8:	0c c6 c0 40 	SW         R1,$64(R11)
 20044dc:	96 00 bb 00 	CLR        R2            | CMP        $0,R7
 20044e0:	78 90 00 90 	BLT        @0x02004574    // 2004574 <_dtoa_r+0xfc>
 20044e4:	0c 87 40 7c 	LW         124(SP),R1
 20044e8:	14 c4 40 00 	SW         R2,(R1)
 20044ec:	0a 00 0f fe 	BREV       $4094,R1
 20044f0:	97 b8 91 88 	MOV        R7,R2         | AND        R1,R2
 20044f4:	14 04 40 00 	CMP        R1,R2
 20044f8:	78 88 00 9c 	BZ         @0x02004598    // 2004598 <_dtoa_r+0x120>
 20044fc:	9e 00 a6 00 	CLR        R3            | CLR        R4
 2004500:	8c 08 94 04 	LW         8(SP),R1      | LW         4(SP),R2
 2004504:	87 fa fc f8 	JSR        0x0200e1a0     // 200e1a0 <__eqdf2>
 2004508:	02 00 e1 a0 
 200450c:	0c 00 00 00 	CMP        $0,R1
 2004510:	78 a8 00 f0 	BNZ        @0x02004604    // 2004604 <_dtoa_r+0x18c>
 2004514:	0c 87 40 78 	LW         120(SP),R1
 2004518:	96 01 95 88 	LDI        $1,R2         | SW         R2,(R1)
 200451c:	0c 87 40 80 	LW         128(SP),R1
 2004520:	3a 03 00 40 	LDI        0x0200efcc,R7  // 200efcc <__call_exitprocs+0x26c>
 2004524:	3a 40 ef cc 
 2004528:	0c 00 00 00 	CMP        $0,R1
 200452c:	78 88 00 14 	BZ         @0x02004544    // 2004544 <_dtoa_r+0xcc>
 2004530:	12 03 00 40 	LDI        0x0200efcd,R2  // 200efcd <__call_exitprocs+0x26d>
 2004534:	12 40 ef cd 
 2004538:	14 c4 40 00 	SW         R2,(R1)
 200453c:	3a 03 00 40 	LDI        0x0200efcc,R7  // 200efcc <__call_exitprocs+0x26c>
 2004540:	3a 40 ef cc 
 2004544:	0b 41 c0 00 	MOV        R7,R1
 2004548:	04 87 40 54 	LW         84(SP),R0
 200454c:	2c 87 40 58 	LW         88(SP),R5
 2004550:	34 87 40 5c 	LW         92(SP),R6
 2004554:	3c 87 40 60 	LW         96(SP),R7
 2004558:	44 87 40 64 	LW         100(SP),R8
 200455c:	4c 87 40 68 	LW         104(SP),R9
 2004560:	54 87 40 6c 	LW         108(SP),R10
 2004564:	5c 87 40 70 	LW         112(SP),R11
 2004568:	64 87 40 74 	LW         116(SP),R12
 200456c:	68 80 00 78 	ADD        $120,SP
 2004570:	7b 40 00 00 	RTN
 2004574:	0a 03 ff fe 	BREV       $-2,R1
 2004578:	b9 88 bd 08 	AND        R1,R7         | SW         R7,$8(SP)
 200457c:	16 00 00 01 	LDI        $1,R2
 2004580:	0c 87 40 7c 	LW         124(SP),R1
 2004584:	14 c4 40 00 	SW         R2,(R1)
 2004588:	0a 00 0f fe 	BREV       $4094,R1
 200458c:	97 b8 91 88 	MOV        R7,R2         | AND        R1,R2
 2004590:	14 04 40 00 	CMP        R1,R2
 2004594:	78 ab ff 64 	BNZ        @0x020044fc    // 20044fc <_dtoa_r+0x84>
 2004598:	0c 87 40 78 	LW         120(SP),R1
 200459c:	16 00 27 0f 	LDI        $9999,R2
 20045a0:	14 c4 40 00 	SW         R2,(R1)
 20045a4:	0e 0f ff ff 	LDI        $1048575,R1
 20045a8:	b9 88 8c 04 	AND        R1,R7         | LW         4(SP),R1
 20045ac:	38 c4 40 00 	OR         R1,R7
 20045b0:	78 a8 06 88 	BNZ        @0x02004c3c    // 2004c3c <_dtoa_r+0x7c4>
 20045b4:	0c 87 40 80 	LW         128(SP),R1
 20045b8:	3a 03 00 40 	LDI        0x0200eff2,R7  // 200eff2 <blanks.1+0x14>
 20045bc:	3a 40 ef f2 
 20045c0:	0c 00 00 00 	CMP        $0,R1
 20045c4:	78 8b ff 7c 	BZ         @0x02004544    // 2004544 <_dtoa_r+0xcc>
 20045c8:	0b 41 c0 08 	MOV        $8+R7,R1
 20045cc:	14 87 40 80 	LW         128(SP),R2
 20045d0:	0c c4 80 00 	SW         R1,(R2)
 20045d4:	0b 41 c0 00 	MOV        R7,R1
 20045d8:	04 87 40 54 	LW         84(SP),R0
 20045dc:	2c 87 40 58 	LW         88(SP),R5
 20045e0:	34 87 40 5c 	LW         92(SP),R6
 20045e4:	3c 87 40 60 	LW         96(SP),R7
 20045e8:	44 87 40 64 	LW         100(SP),R8
 20045ec:	4c 87 40 68 	LW         104(SP),R9
 20045f0:	54 87 40 6c 	LW         108(SP),R10
 20045f4:	5c 87 40 70 	LW         112(SP),R11
 20045f8:	64 87 40 74 	LW         116(SP),R12
 20045fc:	68 80 00 78 	ADD        $120,SP
 2004600:	7b 40 00 00 	RTN
 2004604:	2b 43 40 4c 	MOV        $76+SP,R5
 2004608:	23 43 40 50 	MOV        $80+SP,R4
 200460c:	b4 08 97 b0 	LW         8(SP),R6      | MOV        R6,R2
 2004610:	c4 04 9f c0 	LW         4(SP),R8      | MOV        R8,R3
 2004614:	0b 42 c0 00 	MOV        R11,R1
 2004618:	87 fa fc f8 	JSR        0x020085c0     // 20085c0 <__d2b>
 200461c:	02 00 85 c0 
 2004620:	e7 88 af b8 	MOV        R1,R12        | MOV        R7,R5
 2004624:	29 40 00 14 	LSR        $20,R5
 2004628:	78 a8 04 c4 	BNZ        @0x02004af0    // 2004af0 <_dtoa_r+0x678>
 200462c:	34 87 40 4c 	LW         76(SP),R6
 2004630:	0c 87 40 50 	LW         80(SP),R1
 2004634:	af b0 aa 88 	MOV        R6,R5         | ADD        R1,R5
 2004638:	0b 41 44 32 	MOV        $1074+R5,R1
 200463c:	0c 00 00 21 	CMP        $33,R1
 2004640:	78 90 0a e0 	BLT        @0x02005124    // 2005124 <_dtoa_r+0xcac>
 2004644:	96 40 90 88 	LDI        $64,R2        | SUB        R1,R2
 2004648:	0b 41 c0 00 	MOV        R7,R1
 200464c:	09 84 80 00 	LSL        R2,R1
 2004650:	14 87 40 04 	LW         4(SP),R2
 2004654:	11 45 44 12 	LSR        $1042+R5,R2
 2004658:	08 c4 80 00 	OR         R2,R1
 200465c:	87 fa fc f8 	JSR        0x0200e548     // 200e548 <__floatunsidf>
 2004660:	02 00 e5 48 
 2004664:	1a 00 08 7f 	BREV       $2175,R3
 2004668:	8a 98 aa 7f 	ADD        R3,R1         | ADD        $-1,R5
 200466c:	86 01 85 34 	LDI        $1,R0         | SW         R0,$52(SP)
 2004670:	1a 00 1f fc 	BREV       $8188,R3
 2004674:	26 00 00 00 	CLR        R4
 2004678:	87 fa fc f8 	JSR        0x0200d48c     // 200d48c <__subdf3>
 200467c:	02 00 d4 8c 
 2004680:	1a 01 4b fc 	LDI        0x3fd287a7,R3  // 3fd287a7 <_top_of_stack+0x3cd287a7>
 2004684:	1a 40 87 a7 
 2004688:	22 00 f6 c6 	LDI        0x636f4361,R4  // 636f4361 <_top_of_stack+0x606f4361>
 200468c:	22 40 43 61 
 2004690:	87 fa fc f8 	JSR        0x0200da64     // 200da64 <__muldf3>
 2004694:	02 00 da 64 
 2004698:	1a 01 63 fc 	LDI        0x3fc68a28,R3  // 3fc68a28 <_top_of_stack+0x3cc68a28>
 200469c:	1a 40 8a 28 
 20046a0:	22 01 06 d1 	LDI        0x8b60c8b3,R4  // 8b60c8b3 <_top_of_stack+0x8860c8b3>
 20046a4:	22 40 c8 b3 
 20046a8:	87 fa fc f8 	JSR        0x0200cee4     // 200cee4 <__adddf3>
 20046ac:	02 00 ce e4 
 20046b0:	c7 88 bf 90 	MOV        R1,R8         | MOV        R2,R7
 20046b4:	0b 41 40 00 	MOV        R5,R1
 20046b8:	87 fa fc f8 	JSR        0x0200e3bc     // 200e3bc <__floatsidf>
 20046bc:	02 00 e3 bc 
