
jpeg:     file format elf32-zip


Disassembly of section .rocode:

02000000 <_boot_address>:
 2000000:	6a 00 00 c0 	LDI        0x03000000,SP  // 3000000 <_top_of_stack>
 2000004:	6a 40 00 00 
 2000008:	7b 47 c0 0f 	MOV        $60+PC,uPC
 200000c:	03 43 c0 02 	LJSR       @0x02000058    // 2000058 <_bootloader>
 2000010:	7c 87 c0 00 
 2000014:	02 00 00 58 

02000018 <_after_bootloader>:
 2000018:	6a 00 00 c0 	LDI        0x03000000,SP  // 3000000 <_top_of_stack>
 200001c:	6a 40 00 00 
 2000020:	70 c0 40 00 	OR         $16384,CC
 2000024:	0e 00 00 00 	CLR        R1
 2000028:	13 43 c0 09 	MOV        0x02000050,R2  // 2000050 <_argv>
 200002c:	1a 03 00 40 	LDI        0x0200f0d4,R3  // 200f0d4 <__env>
 2000030:	1a 40 f0 d4 
 2000034:	87 fa fc f8 	JSR        0x02000184     // 2000184 <main>
 2000038:	02 00 01 84 

0200003c <_graceful_kernel_exit>:
 200003c:	87 fa fc f8 	JSR        0x0200dfe8     // 200dfe8 <exit>
 2000040:	02 00 df e8 

02000044 <_hw_shutdown>:
 2000044:	7f c0 03 01 	NEXIT      R1

02000048 <_kernel_is_dead>:
 2000048:	70 c0 00 10 	HALT
 200004c:	78 83 ff f8 	BRA        @0x02000048    // 2000048 <_kernel_is_dead>

02000050 <_argv>:
	...

02000058 <_bootloader>:
 2000058:	0a 00 00 00 	LDI        0x00000004,R1  // 4 <_rom+0x4>
 200005c:	0a 40 00 04 
 2000060:	0c 00 00 04 	CMP        $4,R1
 2000064:	78 a8 00 3c 	BNZ        @0x020000a4    // 20000a4 <_bootloader+0x4c>
 2000068:	0a 03 00 40 	LDI        0x0200f090,R1  // 200f090 <__malloc_current_mallinfo>
 200006c:	0a 40 f0 90 
 2000070:	1a 03 00 40 	LDI        0x0200f0dc,R3  // 200f0dc <_bss_image_end>
 2000074:	1a 40 f0 dc 
 2000078:	0c 04 c0 00 	CMP        R3,R1
 200007c:	78 b8 01 00 	BNC        @0x02000180    // 2000180 <_bootloader+0x128>
 2000080:	13 40 40 00 	MOV        R1,R2
 2000084:	11 03 ff ff 	XOR        $-1,R2
 2000088:	92 98 91 7c 	ADD        R3,R2          | AND        $-4,R2
 200008c:	92 04 9f 88 	ADD        $4,R2          | MOV        R1,R3
 2000090:	9a 90 97 98 	ADD        R2,R3          | MOV        R3,R2
 2000094:	a6 00 a5 88 	CLR        R4             | SW         R4,(R1)
 2000098:	8a 04 8b 90 	ADD        $4,R1          | CMP        R2,R1
 200009c:	78 ab ff f4 	BNZ        @0x02000094    // 2000094 <_bootloader+0x3c>
 20000a0:	7b 40 00 00 	RTN
 20000a4:	e8 0c ad 00 	SUB        $12,SP         | SW         R5,(SP)
 20000a8:	b5 04 bd 08 	SW         R6,$4(SP)      | SW         R7,$8(SP)
 20000ac:	22 00 00 40 	LDI        0x02000184,R4  // 2000184 <main>
 20000b0:	22 40 01 84 
 20000b4:	0a 00 00 40 	LDI        0x02000184,R1  // 2000184 <main>
 20000b8:	0a 40 01 84 
 20000bc:	24 04 40 00 	CMP        R1,R4
 20000c0:	78 88 00 14 	BZ         @0x020000d8    // 20000d8 <_bootloader+0x80>
 20000c4:	12 00 02 80 	LDI        0x01400000,R2  // 1400000 <_bkram>
 20000c8:	12 40 00 00 
 20000cc:	14 05 00 00 	CMP        R4,R2
 20000d0:	78 98 00 34 	BC         @0x02000108    // 2000108 <_bootloader+0xb0>
 20000d4:	78 80 00 04 	BRA        @0x020000dc    // 20000dc <_bootloader+0x84>
 20000d8:	0b 41 00 00 	MOV        R4,R1
 20000dc:	32 03 00 40 	LDI        0x0200f090,R6  // 200f090 <__malloc_current_mallinfo>
 20000e0:	32 40 f0 90 
 20000e4:	12 00 00 40 	LDI        0x02000000,R2  // 2000000 <_boot_address>
 20000e8:	12 40 00 00 
 20000ec:	af b0 a8 90 	MOV        R6,R5          | SUB        R2,R5
 20000f0:	29 c0 00 02 	ASR        $2,R5
 20000f4:	9e 00 a7 90 	CLR        R3             | MOV        R2,R4
 20000f8:	2c 00 00 01 	CMP        $1,R5
 20000fc:	78 b0 00 30 	BGE        @0x02000130    // 2000130 <_bootloader+0xd8>
 2000100:	0b 40 80 00 	MOV        R2,R1
 2000104:	78 80 00 40 	BRA        @0x02000148    // 2000148 <_bootloader+0xf0>
 2000108:	1b 40 80 00 	MOV        R2,R3
 200010c:	19 03 ff ff 	XOR        $-1,R3
 2000110:	9a a0 99 7c 	ADD        R4,R3          | AND        $-4,R3
 2000114:	9a 04 bf 88 	ADD        $4,R3          | MOV        R1,R7
 2000118:	ba 98 9f b8 	ADD        R3,R7          | MOV        R7,R3
 200011c:	92 04 a4 88 	ADD        $4,R2          | LW         (R1),R4
 2000120:	a5 94 8a 04 	SW         R4,$-4(R2)     | ADD        $4,R1
 2000124:	0c 04 c0 00 	CMP        R3,R1
 2000128:	78 ab ff f0 	BNZ        @0x0200011c    // 200011c <_bootloader+0xc4>
 200012c:	78 83 ff ac 	BRA        @0x020000dc    // 20000dc <_bootloader+0x84>
 2000130:	a2 04 bc 88 	ADD        $4,R4          | LW         (R1),R7
 2000134:	8a 04 bd a4 	ADD        $4,R1          | SW         R7,$-4(R4)
 2000138:	9a 01 9b a8 	ADD        $1,R3          | CMP        R5,R3
 200013c:	78 ab ff f0 	BNZ        @0x02000130    // 2000130 <_bootloader+0xd8>
 2000140:	19 80 00 02 	LSL        $2,R3
 2000144:	8f 90 8a 98 	MOV        R2,R1          | ADD        R3,R1
 2000148:	1a 03 00 40 	LDI        0x0200f0dc,R3  // 200f0dc <_bss_image_end>
 200014c:	1a 40 f0 dc 
 2000150:	18 05 80 00 	SUB        R6,R3
 2000154:	19 c0 00 02 	ASR        $2,R3
 2000158:	1c 00 00 01 	CMP        $1,R3
 200015c:	78 90 00 14 	BLT        @0x02000174    // 2000174 <_bootloader+0x11c>
 2000160:	16 00 00 00 	CLR        R2
 2000164:	8a 04 a6 00 	ADD        $4,R1          | CLR        R4
 2000168:	a5 8c 92 01 	SW         R4,$-4(R1)     | ADD        $1,R2
 200016c:	14 04 c0 00 	CMP        R3,R2
 2000170:	78 ab ff f0 	BNZ        @0x02000164    // 2000164 <_bootloader+0x10c>
 2000174:	ac 00 b4 04 	LW         (SP),R5        | LW         4(SP),R6
 2000178:	bc 08 ea 0c 	LW         8(SP),R7       | ADD        $12,SP
 200017c:	7b 40 00 00 	RTN
 2000180:	7b 40 00 00 	RTN

02000184 <main>:
 2000184:	e8 14 85 0c 	SUB        $20,SP         | SW         R0,$12(SP)
 2000188:	2c c7 40 10 	SW         R5,$16(SP)
 200018c:	2a 03 00 40 	LDI        0x0200f05c,R5  // 200f05c <ptrs>
 2000190:	2a 40 f0 5c 
 2000194:	06 00 01 00 	LDI        $256,R0
 2000198:	04 c5 40 00 	SW         R0,(R5)
 200019c:	04 c5 40 04 	SW         R0,$4(R5)
 20001a0:	02 00 02 80 	LDI        0x01401000,R0  // 1401000 <_bkram+0x1000>
 20001a4:	02 40 10 00 
 20001a8:	04 c5 40 18 	SW         R0,$24(R5)
 20001ac:	02 40 10 04 	LDILO      $4100,R0
 20001b0:	04 c5 40 1c 	SW         R0,$28(R5)
 20001b4:	02 40 10 08 	LDILO      $4104,R0
 20001b8:	04 c5 40 20 	SW         R0,$32(R5)
 20001bc:	0e 08 00 00 	LDI        $524288,R1
 20001c0:	87 fa fc f8 	JSR        0x02000984     // 2000984 <malloc>
 20001c4:	02 00 09 84 
 20001c8:	0c c5 40 0c 	SW         R1,$12(R5)
 20001cc:	16 04 00 00 	LDI        $262144,R2
 20001d0:	08 84 80 00 	ADD        R2,R1
 20001d4:	0c c5 40 10 	SW         R1,$16(R5)
 20001d8:	0a 00 02 80 	LDI        0x01401000,R1  // 1401000 <_bkram+0x1000>
 20001dc:	0a 40 10 00 
 20001e0:	0c 84 40 00 	LW         (R1),R1
 20001e4:	0c c5 40 24 	SW         R1,$36(R5)
 20001e8:	0a 00 02 80 	LDI        0x01401004,R1  // 1401004 <_bkram+0x1004>
 20001ec:	0a 40 10 04 
 20001f0:	0c 84 40 00 	LW         (R1),R1
 20001f4:	0c c5 40 14 	SW         R1,$20(R5)
 20001f8:	0a 00 02 80 	LDI        0x01401008,R1  // 1401008 <_bkram+0x1008>
 20001fc:	0a 40 10 08 
 2000200:	0c 84 40 00 	LW         (R1),R1
 2000204:	0c c5 40 08 	SW         R1,$8(R5)
 2000208:	06 00 01 00 	LDI        $256,R0
 200020c:	04 c7 40 04 	SW         R0,$4(SP)
 2000210:	02 03 00 40 	LDI        0x0200e268,R0  // 200e268 <__call_exitprocs+0x244>
 2000214:	02 40 e2 68 
 2000218:	04 c7 40 00 	SW         R0,(SP)
 200021c:	87 fa fc f8 	JSR        0x020015f0     // 20015f0 <printf>
 2000220:	02 00 15 f0 
 2000224:	04 85 40 04 	LW         4(R5),R0
 2000228:	04 c7 40 04 	SW         R0,$4(SP)
 200022c:	02 03 00 40 	LDI        0x0200e268,R0  // 200e268 <__call_exitprocs+0x244>
 2000230:	02 40 e2 68 
 2000234:	04 c7 40 00 	SW         R0,(SP)
 2000238:	87 fa fc f8 	JSR        0x020015f0     // 20015f0 <printf>
 200023c:	02 00 15 f0 
 2000240:	04 85 40 18 	LW         24(R5),R0
 2000244:	04 c7 40 04 	SW         R0,$4(SP)
 2000248:	02 03 00 40 	LDI        0x0200e270,R0  // 200e270 <__call_exitprocs+0x24c>
 200024c:	02 40 e2 70 
 2000250:	04 c7 40 00 	SW         R0,(SP)
 2000254:	87 fa fc f8 	JSR        0x020015f0     // 20015f0 <printf>
 2000258:	02 00 15 f0 
 200025c:	04 85 40 1c 	LW         28(R5),R0
 2000260:	04 c7 40 04 	SW         R0,$4(SP)
 2000264:	02 03 00 40 	LDI        0x0200e270,R0  // 200e270 <__call_exitprocs+0x24c>
 2000268:	02 40 e2 70 
 200026c:	04 c7 40 00 	SW         R0,(SP)
 2000270:	87 fa fc f8 	JSR        0x020015f0     // 20015f0 <printf>
 2000274:	02 00 15 f0 
 2000278:	0c 85 40 0c 	LW         12(R5),R1
 200027c:	84 88 85 08 	LW         (R1),R0        | SW         R0,$8(SP)
 2000280:	0c c7 40 04 	SW         R1,$4(SP)
 2000284:	02 03 00 40 	LDI        0x0200e278,R0  // 200e278 <__call_exitprocs+0x254>
 2000288:	02 40 e2 78 
 200028c:	04 c7 40 00 	SW         R0,(SP)
 2000290:	87 fa fc f8 	JSR        0x020015f0     // 20015f0 <printf>
 2000294:	02 00 15 f0 
 2000298:	0c 85 40 10 	LW         16(R5),R1
 200029c:	84 88 85 08 	LW         (R1),R0        | SW         R0,$8(SP)
 20002a0:	0c c7 40 04 	SW         R1,$4(SP)
 20002a4:	02 03 00 40 	LDI        0x0200e278,R0  // 200e278 <__call_exitprocs+0x254>
 20002a8:	02 40 e2 78 
 20002ac:	04 c7 40 00 	SW         R0,(SP)
 20002b0:	87 fa fc f8 	JSR        0x020015f0     // 20015f0 <printf>
 20002b4:	02 00 15 f0 
 20002b8:	0a 03 00 40 	LDI        0x0200e284,R1  // 200e284 <__call_exitprocs+0x260>
 20002bc:	0a 40 e2 84 
 20002c0:	87 fa fc f8 	JSR        0x020016c4     // 20016c4 <puts>
 20002c4:	02 00 16 c4 
 20002c8:	0c 85 40 08 	LW         8(R5),R1
 20002cc:	0c 00 00 02 	CMP        $2,R1
 20002d0:	78 88 00 48 	BZ         @0x0200031c    // 200031c <main+0x198>
 20002d4:	0a 03 00 40 	LDI        0x0200e298,R1  // 200e298 <__call_exitprocs+0x274>
 20002d8:	0a 40 e2 98 
 20002dc:	87 fa fc f8 	JSR        0x020016c4     // 20016c4 <puts>
 20002e0:	02 00 16 c4 
 20002e4:	24 85 40 14 	LW         20(R5),R4
 20002e8:	1c 85 40 10 	LW         16(R5),R3
 20002ec:	14 85 40 0c 	LW         12(R5),R2
 20002f0:	0c 85 40 00 	LW         (R5),R1
 20002f4:	87 fa fc f8 	JSR        0x02000618     // 2000618 <lifting>
 20002f8:	02 00 06 18 
 20002fc:	0a 03 00 40 	LDI        0x0200e2ac,R1  // 200e2ac <__call_exitprocs+0x288>
 2000300:	0a 40 e2 ac 
 2000304:	87 fa fc f8 	JSR        0x020016c4     // 20016c4 <puts>
 2000308:	02 00 16 c4 
 200030c:	0c 85 40 08 	LW         8(R5),R1
 2000310:	0c 00 00 01 	CMP        $1,R1
 2000314:	78 88 00 38 	BZ         @0x02000350    // 2000350 <main+0x1cc>
 2000318:	78 80 00 18 	BRA        @0x02000334    // 2000334 <main+0x1b0>
 200031c:	14 85 40 20 	LW         32(R5),R2
 2000320:	0c 84 80 00 	LW         (R2),R1
 2000324:	0c c5 40 08 	SW         R1,$8(R5)
 2000328:	0c 00 00 02 	CMP        $2,R1
 200032c:	78 8b ff f0 	BZ         @0x02000320    // 2000320 <main+0x19c>
 2000330:	78 83 ff a0 	BRA        @0x020002d4    // 20002d4 <main+0x150>
 2000334:	0c 85 40 0c 	LW         12(R5),R1
 2000338:	87 fa fc f8 	JSR        0x020009a4     // 20009a4 <free>
 200033c:	02 00 09 a4 
 2000340:	0c 85 40 14 	LW         20(R5),R1
 2000344:	87 fa fc f8 	JSR        0x020009a4     // 20009a4 <free>
 2000348:	02 00 09 a4 
 200034c:	78 80 00 18 	BRA        @0x02000368    // 2000368 <main+0x1e4>
 2000350:	14 85 40 20 	LW         32(R5),R2
 2000354:	0c 84 80 00 	LW         (R2),R1
 2000358:	0c c5 40 08 	SW         R1,$8(R5)
 200035c:	0c 00 00 01 	CMP        $1,R1
 2000360:	78 8b ff f0 	BZ         @0x02000354    // 2000354 <main+0x1d0>
 2000364:	78 83 ff cc 	BRA        @0x02000334    // 2000334 <main+0x1b0>
 2000368:	78 83 ff fc 	BUSY

0200036c <singlelift>:
 200036c:	14 00 00 01 	CMP        $1,R2
 2000370:	78 90 01 38 	BLT        @0x020004ac    // 20004ac <singlelift+0x140>
 2000374:	78 80 01 38 	BRA        @0x020004b0    // 20004b0 <singlelift+0x144>
 2000378:	e8 38 ad 18 	SUB        $56,SP         | SW         R5,$24(SP)
 200037c:	b5 1c bd 20 	SW         R6,$28(SP)     | SW         R7,$32(SP)
 2000380:	c5 24 cd 28 	SW         R8,$36(SP)     | SW         R9,$40(SP)
 2000384:	d5 2c dd 30 	SW         R10,$44(SP)    | SW         R11,$48(SP)
 2000388:	e5 34 b7 90 	SW         R12,$52(SP)    | MOV        R2,R6
 200038c:	33 04 40 00 	MPY        R1,R6
 2000390:	2b 41 80 00 	MOV        R6,R5
 2000394:	29 40 00 1f 	LSR        $31,R5
 2000398:	28 85 80 00 	ADD        R6,R5
 200039c:	29 c0 00 01 	ASR        $1,R5
 20003a0:	29 80 00 02 	LSL        $2,R5
 20003a4:	ad 14 cf 88 	SW         R5,$20(SP)     | MOV        R1,R9
 20003a8:	49 80 00 02 	LSL        $2,R9
 20003ac:	0b 40 80 00 	MOV        R2,R1
 20003b0:	09 c0 00 01 	ASR        $1,R1
 20003b4:	8d 0c e7 a0 	SW         R1,$12(SP)     | MOV        R4,R12
 20003b8:	a2 a8 a5 04 	ADD        R5,R4          | SW         R4,$4(SP)
 20003bc:	08 83 ff fe 	ADD        $-2,R1
 20003c0:	0b 06 40 00 	MPY        R9,R1
 20003c4:	df e0 da 88 	MOV        R12,R11        | ADD        R1,R11
 20003c8:	dd 08 df 98 	SW         R11,$8(SP)     | MOV        R3,R11
 20003cc:	58 80 00 10 	ADD        $16,R11
 20003d0:	11 80 00 02 	LSL        $2,R2
 20003d4:	8f e0 8a 90 	MOV        R12,R1         | ADD        R2,R1
 20003d8:	8d 10 d4 0c 	SW         R1,$16(SP)     | LW         12(SP),R10
 20003dc:	50 83 ff ff 	ADD        $-1,R10
 20003e0:	af e0 a4 04 	MOV        R12,R5         | LW         4(SP),R4
 20003e4:	14 86 ff f0 	LW         -16(R11),R2
 20003e8:	1c 86 ff f4 	LW         -12(R11),R3
 20003ec:	3c 86 ff f8 	LW         -8(R11),R7
 20003f0:	b4 dc 90 98 	LW         -4(R11),R6     | SUB        R3,R2
 20003f4:	8f 98 8a b0 	MOV        R3,R1          | ADD        R6,R1
 20003f8:	09 c0 00 01 	ASR        $1,R1
 20003fc:	b8 88 8f b8 	SUB        R1,R7          | MOV        R7,R1
 2000400:	95 e0 92 b8 	SW         R2,(R12)       | ADD        R7,R2
 2000404:	10 80 00 02 	ADD        $2,R2
 2000408:	11 c0 00 02 	ASR        $2,R2
 200040c:	92 98 95 a0 	ADD        R3,R2          | SW         R2,(R4)
 2000410:	94 0c 93 03 	LW         12(SP),R2      | CMP        $3,R2
 2000414:	78 90 00 50 	BLT        @0x02000468    // 2000468 <singlelift+0xfc>
 2000418:	97 d8 c6 01 	MOV        R11,R2         | LDI        $1,R8
 200041c:	5c c7 40 00 	SW         R11,(SP)
 2000420:	aa c8 a2 c8 	ADD        R9,R5          | ADD        R9,R4
 2000424:	3c 84 80 04 	LW         4(R2),R7
 2000428:	9f b8 9a b0 	MOV        R7,R3          | ADD        R6,R3
 200042c:	19 c0 00 01 	ASR        $1,R3
 2000430:	dc 90 d8 98 	LW         (R2),R11       | SUB        R3,R11
 2000434:	9f d8 8d a8 	MOV        R11,R3         | SW         R1,(R5)
 2000438:	da 88 8f d8 	ADD        R1,R11         | MOV        R11,R1
 200043c:	08 80 00 02 	ADD        $2,R1
 2000440:	09 c0 00 02 	ASR        $2,R1
 2000444:	8a b0 8d a0 	ADD        R6,R1          | SW         R1,(R4)
 2000448:	92 08 c2 01 	ADD        $8,R2          | ADD        $1,R8
 200044c:	8f 98 b7 b8 	MOV        R3,R1          | MOV        R7,R6
 2000450:	44 06 80 00 	CMP        R10,R8
 2000454:	78 ab ff c8 	BNZ        @0x02000420    // 2000420 <singlelift+0xb4>
 2000458:	dc 00 ac 08 	LW         (SP),R11       | LW         8(SP),R5
 200045c:	a7 a8 8c 14 	MOV        R5,R4          | LW         20(SP),R1
 2000460:	a2 88 94 04 	ADD        R1,R4          | LW         4(SP),R2
 2000464:	78 80 00 08 	BRA        @0x02000470    // 2000470 <singlelift+0x104>
 2000468:	bf b0 9f 88 	MOV        R6,R7          | MOV        R1,R3
 200046c:	13 41 00 00 	MOV        R4,R2
 2000470:	aa c8 9d a8 	ADD        R9,R5          | SW         R3,(R5)
 2000474:	a2 c8 9a 01 	ADD        R9,R4          | ADD        $1,R3
 2000478:	19 c0 00 03 	ASR        $3,R3
 200047c:	9a b8 9d a0 	ADD        R7,R3          | SW         R3,(R4)
 2000480:	e2 04 92 04 	ADD        $4,R12         | ADD        $4,R2
 2000484:	95 04 9c 08 	SW         R2,$4(SP)      | LW         8(SP),R3
 2000488:	9a 04 9d 08 	ADD        $4,R3          | SW         R3,$8(SP)
 200048c:	da c8 a4 10 	ADD        R9,R11         | LW         16(SP),R4
 2000490:	24 07 00 00 	CMP        R12,R4
 2000494:	78 ab ff 48 	BNZ        @0x020003e0    // 20003e0 <singlelift+0x74>
 2000498:	ac 18 b4 1c 	LW         24(SP),R5      | LW         28(SP),R6
 200049c:	bc 20 c4 24 	LW         32(SP),R7      | LW         36(SP),R8
 20004a0:	cc 28 d4 2c 	LW         40(SP),R9      | LW         44(SP),R10
 20004a4:	dc 30 e4 34 	LW         48(SP),R11     | LW         52(SP),R12
 20004a8:	ea 38 ff 80 	ADD        $56,SP         | RTN
 20004ac:	7b 40 00 00 	RTN
 20004b0:	78 83 fe c4 	BRA        @0x02000378    // 2000378 <singlelift+0xc>

020004b4 <ilift>:
 20004b4:	14 00 00 01 	CMP        $1,R2
 20004b8:	78 90 01 54 	BLT        @0x02000610    // 2000610 <ilift+0x15c>
 20004bc:	78 80 01 54 	BRA        @0x02000614    // 2000614 <ilift+0x160>
 20004c0:	e8 3c ad 1c 	SUB        $60,SP         | SW         R5,$28(SP)
 20004c4:	b5 20 bd 24 	SW         R6,$32(SP)     | SW         R7,$36(SP)
 20004c8:	c5 28 cd 2c 	SW         R8,$40(SP)     | SW         R9,$44(SP)
 20004cc:	d5 30 dd 34 	SW         R10,$48(SP)    | SW         R11,$52(SP)
 20004d0:	e5 38 b7 90 	SW         R12,$56(SP)    | MOV        R2,R6
 20004d4:	33 04 40 00 	MPY        R1,R6
 20004d8:	2b 41 80 00 	MOV        R6,R5
 20004dc:	29 40 00 1f 	LSR        $31,R5
 20004e0:	28 85 80 00 	ADD        R6,R5
 20004e4:	29 c0 00 01 	ASR        $1,R5
 20004e8:	29 80 00 02 	LSL        $2,R5
 20004ec:	53 40 40 00 	MOV        R1,R10
 20004f0:	51 80 00 02 	LSL        $2,R10
 20004f4:	0b 40 80 00 	MOV        R2,R1
 20004f8:	09 c0 00 01 	ASR        $1,R1
 20004fc:	8d 0c 9d 04 	SW         R1,$12(SP)     | SW         R3,$4(SP)
 2000500:	cf 98 ca d0 	MOV        R3,R9          | ADD        R10,R9
 2000504:	cd 00 8f 98 	SW         R9,(SP)        | MOV        R3,R1
 2000508:	8a a8 8d 08 	ADD        R5,R1          | SW         R1,$8(SP)
 200050c:	63 41 00 00 	MOV        R4,R12
 2000510:	11 80 00 02 	LSL        $2,R2
 2000514:	cf 98 ca 90 	MOV        R3,R9          | ADD        R2,R9
 2000518:	cd 10 8c 0c 	SW         R9,$16(SP)     | LW         12(SP),R1
 200051c:	09 80 00 03 	LSL        $3,R1
 2000520:	0b 40 5f f0 	MOV        $-16+R1,R1
 2000524:	8d 18 8c 0c 	SW         R1,$24(SP)     | LW         12(SP),R1
 2000528:	08 83 ff fe 	ADD        $-2,R1
 200052c:	0b 06 80 00 	MPY        R10,R1
 2000530:	8a a8 88 d0 	ADD        R5,R1          | SUB        R10,R1
 2000534:	8d 14 dc 0c 	SW         R1,$20(SP)     | LW         12(SP),R11
 2000538:	58 83 ff ff 	ADD        $-1,R11
 200053c:	9f e0 a4 08 	MOV        R12,R3         | LW         8(SP),R4
 2000540:	8c 04 ac 88 	LW         4(SP),R1       | LW         (R1),R5
 2000544:	bc 00 b4 b8 	LW         (SP),R7        | LW         (R7),R6
 2000548:	8f a8 8a b0 	MOV        R5,R1          | ADD        R6,R1
 200054c:	08 80 00 02 	ADD        $2,R1
 2000550:	09 c0 00 02 	ASR        $2,R1
 2000554:	94 a0 90 88 	LW         (R4),R2        | SUB        R1,R2
 2000558:	aa 90 ad e0 	ADD        R2,R5          | SW         R5,(R12)
 200055c:	14 c7 00 04 	SW         R2,$4(R12)
 2000560:	cc 0c af b0 	LW         12(SP),R9      | MOV        R6,R5
 2000564:	4c 00 00 03 	CMP        $3,R9
 2000568:	78 90 00 50 	BLT        @0x020005bc    // 20005bc <ilift+0x108>
 200056c:	c7 90 ce 01 	MOV        R2,R8          | LDI        $1,R9
 2000570:	78 80 00 04 	BRA        @0x02000578    // 2000578 <ilift+0xc4>
 2000574:	43 40 80 00 	MOV        R2,R8
 2000578:	9a 08 ba d0 	ADD        $8,R3          | ADD        R10,R7
 200057c:	a2 d0 ac b8 	ADD        R10,R4         | LW         (R7),R5
 2000580:	8f a8 8a b0 	MOV        R5,R1          | ADD        R6,R1
 2000584:	08 80 00 02 	ADD        $2,R1
 2000588:	09 c0 00 02 	ASR        $2,R1
 200058c:	94 a0 90 88 	LW         (R4),R2        | SUB        R1,R2
 2000590:	8f 90 8a c0 	MOV        R2,R1          | ADD        R8,R1
 2000594:	09 c0 00 01 	ASR        $1,R1
 2000598:	8a b0 8d 98 	ADD        R6,R1          | SW         R1,(R3)
 200059c:	14 c4 c0 04 	SW         R2,$4(R3)
 20005a0:	ca 01 b7 a8 	ADD        $1,R9          | MOV        R5,R6
 20005a4:	4c 06 c0 00 	CMP        R11,R9
 20005a8:	78 ab ff c8 	BNZ        @0x02000574    // 2000574 <ilift+0xc0>
 20005ac:	9f e0 8c 18 	MOV        R12,R3         | LW         24(SP),R1
 20005b0:	9a 88 a4 14 	ADD        R1,R3          | LW         20(SP),R4
 20005b4:	94 00 a2 90 	LW         (SP),R2        | ADD        R2,R4
 20005b8:	78 80 00 00 	BRA        @0x020005bc    // 20005bc <ilift+0x108>
 20005bc:	a2 d0 8f a8 	ADD        R10,R4         | MOV        R5,R1
 20005c0:	08 80 00 01 	ADD        $1,R1
 20005c4:	09 c0 00 03 	ASR        $3,R1
 20005c8:	94 a0 90 88 	LW         (R4),R2        | SUB        R1,R2
 20005cc:	8f 90 8a c0 	MOV        R2,R1          | ADD        R8,R1
 20005d0:	09 c0 00 01 	ASR        $1,R1
 20005d4:	08 85 40 00 	ADD        R5,R1
 20005d8:	0c c4 c0 08 	SW         R1,$8(R3)
 20005dc:	14 c4 c0 0c 	SW         R2,$12(R3)
 20005e0:	cc 04 ca 04 	LW         4(SP),R9       | ADD        $4,R9
 20005e4:	cd 04 8c 00 	SW         R9,$4(SP)      | LW         (SP),R1
 20005e8:	8a 04 8d 00 	ADD        $4,R1          | SW         R1,(SP)
 20005ec:	94 08 92 04 	LW         8(SP),R2       | ADD        $4,R2
 20005f0:	95 08 e2 d0 	SW         R2,$8(SP)      | ADD        R10,R12
 20005f4:	8c 10 8b c8 	LW         16(SP),R1      | CMP        R9,R1
 20005f8:	78 ab ff 40 	BNZ        @0x0200053c    // 200053c <ilift+0x88>
 20005fc:	ac 1c b4 20 	LW         28(SP),R5      | LW         32(SP),R6
 2000600:	bc 24 c4 28 	LW         36(SP),R7      | LW         40(SP),R8
 2000604:	cc 2c d4 30 	LW         44(SP),R9      | LW         48(SP),R10
 2000608:	dc 34 e4 38 	LW         52(SP),R11     | LW         56(SP),R12
 200060c:	ea 3c ff 80 	ADD        $60,SP         | RTN
 2000610:	7b 40 00 00 	RTN
 2000614:	78 83 fe a8 	BRA        @0x020004c0    // 20004c0 <ilift+0xc>

02000618 <lifting>:
 2000618:	e8 38 85 14 	SUB        $56,SP         | SW         R0,$20(SP)
 200061c:	ad 18 b5 1c 	SW         R5,$24(SP)     | SW         R6,$28(SP)
 2000620:	bd 20 c5 24 	SW         R7,$32(SP)     | SW         R8,$36(SP)
 2000624:	cd 28 d5 2c 	SW         R9,$40(SP)     | SW         R10,$44(SP)
 2000628:	dd 30 e5 34 	SW         R11,$48(SP)    | SW         R12,$52(SP)
 200062c:	b7 88 95 00 	MOV        R1,R6          | SW         R2,(SP)
 2000630:	e7 98 a5 04 	MOV        R3,R12         | SW         R4,$4(SP)
 2000634:	df e8 da 08 	MOV        SP,R11         | ADD        $8,R11
 2000638:	d7 d8 c7 98 	MOV        R11,R10        | MOV        R3,R8
 200063c:	bf 90 af 88 	MOV        R2,R7          | MOV        R1,R5
 2000640:	4e 00 00 01 	LDI        $1,R9
 2000644:	78 80 00 10 	BRA        @0x02000658    // 2000658 <lifting+0x40>
 2000648:	29 c0 00 01 	ASR        $1,R5
 200064c:	09 80 00 02 	LSL        $2,R1
 2000650:	ba 88 c2 88 	ADD        R1,R7          | ADD        R1,R8
 2000654:	ca 01 d2 04 	ADD        $1,R9          | ADD        $4,R10
 2000658:	a7 c0 9f b8 	MOV        R8,R4          | MOV        R7,R3
 200065c:	97 a8 8f b0 	MOV        R5,R2          | MOV        R6,R1
 2000660:	87 fa fc f8 	JSR        0x0200036c     // 200036c <singlelift>
 2000664:	02 00 03 6c 
 2000668:	a7 b8 9f c0 	MOV        R7,R4          | MOV        R8,R3
 200066c:	97 a8 8f b0 	MOV        R5,R2          | MOV        R6,R1
 2000670:	87 fa fc f8 	JSR        0x0200036c     // 200036c <singlelift>
 2000674:	02 00 03 6c 
 2000678:	13 41 80 00 	MOV        R6,R2
 200067c:	13 05 40 00 	MPY        R5,R2
 2000680:	0b 40 80 00 	MOV        R2,R1
 2000684:	09 40 00 1f 	LSR        $31,R1
 2000688:	08 84 80 00 	ADD        R2,R1
 200068c:	09 c0 00 01 	ASR        $1,R1
 2000690:	13 41 40 00 	MOV        R5,R2
 2000694:	11 40 00 1f 	LSR        $31,R2
 2000698:	10 85 40 00 	ADD        R5,R2
 200069c:	11 c0 00 01 	ASR        $1,R2
 20006a0:	8a 90 cb 01 	ADD        R2,R1          | CMP        $1,R9
 20006a4:	78 88 00 5c 	BZ         @0x02000704    // 2000704 <lifting+0xec>
 20006a8:	94 d4 92 88 	LW         -4(R10),R2     | ADD        R1,R2
 20006ac:	95 d0 cb 03 	SW         R2,(R10)       | CMP        $3,R9
 20006b0:	78 ab ff 94 	BNZ        @0x02000648    // 2000648 <lifting+0x30>
 20006b4:	94 04 8c 90 	LW         4(SP),R2       | LW         (R2),R1
 20006b8:	0c 00 00 00 	CMP        $0,R1
 20006bc:	78 88 00 80 	BZ         @0x02000740    // 2000740 <lifting+0x128>
 20006c0:	78 80 00 88 	BRA        @0x0200074c    // 200074c <lifting+0x134>
 20006c4:	0c 86 c0 04 	LW         4(R11),R1
 20006c8:	09 80 00 02 	LSL        $2,R1
 20006cc:	cf c0 ca 88 	MOV        R8,R9          | ADD        R1,R9
 20006d0:	d7 e0 d2 88 	MOV        R12,R10        | ADD        R1,R10
 20006d4:	a7 d0 9f c8 	MOV        R10,R4         | MOV        R9,R3
 20006d8:	97 a8 8f b0 	MOV        R5,R2          | MOV        R6,R1
 20006dc:	87 fa fc f8 	JSR        0x020004b4     // 20004b4 <ilift>
 20006e0:	02 00 04 b4 
 20006e4:	a7 c8 9f d0 	MOV        R9,R4          | MOV        R10,R3
 20006e8:	97 a8 8f b0 	MOV        R5,R2          | MOV        R6,R1
 20006ec:	87 fa fc f8 	JSR        0x020004b4     // 20004b4 <ilift>
 20006f0:	02 00 04 b4 
 20006f4:	aa a8 da 7c 	ADD        R5,R5          | ADD        $-4,R11
 20006f8:	3c 06 c0 00 	CMP        R11,R7
 20006fc:	78 ab ff c4 	BNZ        @0x020006c4    // 20006c4 <lifting+0xac>
 2000700:	78 80 00 0c 	BRA        @0x02000710    // 2000710 <lifting+0xf8>
 2000704:	0c c6 80 00 	SW         R1,(R10)
 2000708:	29 c0 00 01 	ASR        $1,R5
 200070c:	78 83 ff 3c 	BRA        @0x0200064c    // 200064c <lifting+0x34>
 2000710:	a7 e0 9c 00 	MOV        R12,R4         | LW         (SP),R3
 2000714:	97 a8 8f b0 	MOV        R5,R2          | MOV        R6,R1
 2000718:	87 fa fc f8 	JSR        0x020004b4     // 20004b4 <ilift>
 200071c:	02 00 04 b4 
 2000720:	a4 00 9f e0 	LW         (SP),R4        | MOV        R12,R3
 2000724:	97 a8 8f b0 	MOV        R5,R2          | MOV        R6,R1
 2000728:	84 14 ac 18 	LW         20(SP),R0      | LW         24(SP),R5
 200072c:	b4 1c bc 20 	LW         28(SP),R6      | LW         32(SP),R7
 2000730:	c4 24 cc 28 	LW         36(SP),R8      | LW         40(SP),R9
 2000734:	d4 2c dc 30 	LW         44(SP),R10     | LW         48(SP),R11
 2000738:	e4 34 ea 38 	LW         52(SP),R12     | ADD        $56,SP
 200073c:	78 83 fd 74 	BRA        @0x020004b4    // 20004b4 <ilift>
 2000740:	a9 7e bf e8 	AND        $-2,R5         | MOV        SP,R7
 2000744:	44 87 40 00 	LW         (SP),R8
 2000748:	78 83 ff 78 	BRA        @0x020006c4    // 20006c4 <lifting+0xac>
 200074c:	84 14 ac 18 	LW         20(SP),R0      | LW         24(SP),R5
 2000750:	b4 1c bc 20 	LW         28(SP),R6      | LW         32(SP),R7
 2000754:	c4 24 cc 28 	LW         36(SP),R8      | LW         40(SP),R9
 2000758:	d4 2c dc 30 	LW         44(SP),R10     | LW         48(SP),R11
 200075c:	e4 34 ea 38 	LW         52(SP),R12     | ADD        $56,SP
 2000760:	7b 40 00 00 	RTN

02000764 <clrram>:
 2000764:	e8 04 85 00 	SUB        $4,SP          | SW         R0,(SP)
 2000768:	9f 88 8b 01 	MOV        R1,R3          | CMP        $1,R1
 200076c:	78 90 00 18 	BLT        @0x02000788    // 2000788 <clrram+0x24>
 2000770:	0b 40 80 00 	MOV        R2,R1
 2000774:	19 80 00 02 	LSL        $2,R3
 2000778:	96 00 84 00 	CLR        R2             | LW         (SP),R0
 200077c:	68 80 00 04 	ADD        $4,SP
 2000780:	7c 87 c0 00 	LJMP       @0x0200137c    // 200137c <memset>
 2000784:	02 00 13 7c 
 2000788:	84 00 ea 04 	LW         (SP),R0        | ADD        $4,SP
 200078c:	7b 40 00 00 	RTN

02000790 <out2inpbuf>:
 2000790:	0c 00 00 01 	CMP        $1,R1
 2000794:	78 90 00 24 	BLT        @0x020007bc    // 20007bc <out2inpbuf+0x2c>
 2000798:	78 80 00 24 	BRA        @0x020007c0    // 20007c0 <out2inpbuf+0x30>
 200079c:	e8 04 ad 00 	SUB        $4,SP          | SW         R5,(SP)
 20007a0:	26 00 00 00 	CLR        R4
 20007a4:	ac 90 ad 98 	LW         (R2),R5        | SW         R5,(R3)
 20007a8:	9a 04 92 04 	ADD        $4,R3          | ADD        $4,R2
 20007ac:	a2 01 8b a0 	ADD        $1,R4          | CMP        R4,R1
 20007b0:	78 ab ff f0 	BNZ        @0x020007a4    // 20007a4 <out2inpbuf+0x14>
 20007b4:	ac 00 ea 04 	LW         (SP),R5        | ADD        $4,SP
 20007b8:	7b 40 00 00 	RTN
 20007bc:	7b 40 00 00 	RTN
 20007c0:	78 83 ff d8 	BRA        @0x0200079c    // 200079c <out2inpbuf+0xc>

020007c4 <split>:
 20007c4:	14 00 00 01 	CMP        $1,R2
 20007c8:	78 90 01 b0 	BLT        @0x0200097c    // 200097c <split+0x1b8>
 20007cc:	78 80 01 b0 	BRA        @0x02000980    // 2000980 <split+0x1bc>
 20007d0:	e8 2c 85 10 	SUB        $44,SP         | SW         R0,$16(SP)
 20007d4:	ad 14 b5 18 	SW         R5,$20(SP)     | SW         R6,$24(SP)
 20007d8:	bd 1c c5 20 	SW         R7,$28(SP)     | SW         R8,$32(SP)
 20007dc:	cd 24 d5 28 	SW         R9,$36(SP)     | SW         R10,$40(SP)
 20007e0:	af 88 c7 90 	MOV        R1,R5          | MOV        R2,R8
 20007e4:	b7 98 bf a0 	MOV        R3,R6          | MOV        R4,R7
 20007e8:	0c 00 00 00 	CMP        $0,R1
 20007ec:	78 88 01 20 	BZ         @0x02000910    // 2000910 <split+0x14c>
 20007f0:	0c 00 00 02 	CMP        $2,R1
 20007f4:	78 88 00 c0 	BZ         @0x020008b8    // 20008b8 <split+0xf4>
 20007f8:	0c 00 00 01 	CMP        $1,R1
 20007fc:	78 88 00 58 	BZ         @0x02000858    // 2000858 <split+0x94>
 2000800:	2e 00 00 00 	CLR        R5
 2000804:	4a 03 00 40 	LDI        0x0200e248,R9  // 200e248 <__call_exitprocs+0x224>
 2000808:	4a 40 e2 48 
 200080c:	8c b0 96 00 	LW         (R6),R1        | CLR        R2
 2000810:	95 b8 ab 04 	SW         R2,(R7)        | CMP        $4,R5
 2000814:	78 90 00 1c 	BLT        @0x02000834    // 2000834 <split+0x70>
 2000818:	2c 00 ff fd 	CMP        $65533,R5
 200081c:	78 90 00 28 	BLT        @0x02000848    // 2000848 <split+0x84>
 2000820:	95 0c 95 08 	SW         R2,$12(SP)     | SW         R2,$8(SP)
 2000824:	8d 04 cd 00 	SW         R1,$4(SP)      | SW         R9,(SP)
 2000828:	87 fa fc f8 	JSR        0x020015f0     // 20015f0 <printf>
 200082c:	02 00 15 f0 
 2000830:	78 80 00 14 	BRA        @0x02000848    // 2000848 <split+0x84>
 2000834:	95 0c 86 00 	SW         R2,$12(SP)     | CLR        R0
 2000838:	85 08 8d 04 	SW         R0,$8(SP)      | SW         R1,$4(SP)
 200083c:	4c c7 40 00 	SW         R9,(SP)
 2000840:	87 fa fc f8 	JSR        0x020015f0     // 20015f0 <printf>
 2000844:	02 00 15 f0 
 2000848:	b2 04 ba 04 	ADD        $4,R6          | ADD        $4,R7
 200084c:	aa 01 c3 a8 	ADD        $1,R5          | CMP        R5,R8
 2000850:	78 ab ff b8 	BNZ        @0x0200080c    // 200080c <split+0x48>
 2000854:	78 80 01 10 	BRA        @0x02000968    // 2000968 <split+0x1a4>
 2000858:	2e 00 00 00 	CLR        R5
 200085c:	56 07 fc 00 	LDI        $523264,R10
 2000860:	4a 03 00 40 	LDI        0x0200e248,R9  // 200e248 <__call_exitprocs+0x224>
 2000864:	4a 40 e2 48 
 2000868:	8c b0 9f 88 	LW         (R6),R1        | MOV        R1,R3
 200086c:	99 d0 97 98 	AND        R10,R3         | MOV        R3,R2
 2000870:	11 c0 00 08 	ASR        $8,R2
 2000874:	95 b8 ab 04 	SW         R2,(R7)        | CMP        $4,R5
 2000878:	78 b0 00 14 	BGE        @0x02000890    // 2000890 <split+0xcc>
 200087c:	9d 0c 95 08 	SW         R3,$12(SP)     | SW         R2,$8(SP)
 2000880:	8d 04 cd 00 	SW         R1,$4(SP)      | SW         R9,(SP)
 2000884:	87 fa fc f8 	JSR        0x020015f0     // 20015f0 <printf>
 2000888:	02 00 15 f0 
 200088c:	78 80 00 18 	BRA        @0x020008a8    // 20008a8 <split+0xe4>
 2000890:	2c 00 ff fd 	CMP        $65533,R5
 2000894:	78 90 00 10 	BLT        @0x020008a8    // 20008a8 <split+0xe4>
 2000898:	9d 0c 95 08 	SW         R3,$12(SP)     | SW         R2,$8(SP)
 200089c:	8d 04 cd 00 	SW         R1,$4(SP)      | SW         R9,(SP)
 20008a0:	87 fa fc f8 	JSR        0x020015f0     // 20015f0 <printf>
 20008a4:	02 00 15 f0 
 20008a8:	b2 04 ba 04 	ADD        $4,R6          | ADD        $4,R7
 20008ac:	aa 01 c3 a8 	ADD        $1,R5          | CMP        R5,R8
 20008b0:	78 ab ff b4 	BNZ        @0x02000868    // 2000868 <split+0xa4>
 20008b4:	78 80 00 b0 	BRA        @0x02000968    // 2000968 <split+0x1a4>
 20008b8:	2e 00 00 00 	CLR        R5
 20008bc:	4a 03 00 40 	LDI        0x0200e248,R9  // 200e248 <__call_exitprocs+0x224>
 20008c0:	4a 40 e2 48 
 20008c4:	94 b0 8f 90 	LW         (R6),R2        | MOV        R2,R1
 20008c8:	08 40 01 ff 	AND        $511,R1
 20008cc:	8d b8 ab 04 	SW         R1,(R7)        | CMP        $4,R5
 20008d0:	78 b0 00 14 	BGE        @0x020008e8    // 20008e8 <split+0x124>
 20008d4:	8d 0c 8d 08 	SW         R1,$12(SP)     | SW         R1,$8(SP)
 20008d8:	95 04 cd 00 	SW         R2,$4(SP)      | SW         R9,(SP)
 20008dc:	87 fa fc f8 	JSR        0x020015f0     // 20015f0 <printf>
 20008e0:	02 00 15 f0 
 20008e4:	78 80 00 18 	BRA        @0x02000900    // 2000900 <split+0x13c>
 20008e8:	2c 00 ff fd 	CMP        $65533,R5
 20008ec:	78 90 00 10 	BLT        @0x02000900    // 2000900 <split+0x13c>
 20008f0:	8d 0c 8d 08 	SW         R1,$12(SP)     | SW         R1,$8(SP)
 20008f4:	95 04 cd 00 	SW         R2,$4(SP)      | SW         R9,(SP)
 20008f8:	87 fa fc f8 	JSR        0x020015f0     // 20015f0 <printf>
 20008fc:	02 00 15 f0 
 2000900:	b2 04 ba 04 	ADD        $4,R6          | ADD        $4,R7
 2000904:	aa 01 c3 a8 	ADD        $1,R5          | CMP        R5,R8
 2000908:	78 ab ff b8 	BNZ        @0x020008c4    // 20008c4 <split+0x100>
 200090c:	78 80 00 58 	BRA        @0x02000968    // 2000968 <split+0x1a4>
 2000910:	52 00 0f f8 	BREV       $4088,R10
 2000914:	4a 03 00 40 	LDI        0x0200e248,R9  // 200e248 <__call_exitprocs+0x224>
 2000918:	4a 40 e2 48 
 200091c:	8c b0 9f 88 	LW         (R6),R1        | MOV        R1,R3
 2000920:	99 d0 97 98 	AND        R10,R3         | MOV        R3,R2
 2000924:	11 c0 00 14 	ASR        $20,R2
 2000928:	95 b8 ab 04 	SW         R2,(R7)        | CMP        $4,R5
 200092c:	78 b0 00 14 	BGE        @0x02000944    // 2000944 <split+0x180>
 2000930:	9d 0c 95 08 	SW         R3,$12(SP)     | SW         R2,$8(SP)
 2000934:	8d 04 cd 00 	SW         R1,$4(SP)      | SW         R9,(SP)
 2000938:	87 fa fc f8 	JSR        0x020015f0     // 20015f0 <printf>
 200093c:	02 00 15 f0 
 2000940:	78 80 00 18 	BRA        @0x0200095c    // 200095c <split+0x198>
 2000944:	2c 00 ff fd 	CMP        $65533,R5
 2000948:	78 90 00 10 	BLT        @0x0200095c    // 200095c <split+0x198>
 200094c:	9d 0c 95 08 	SW         R3,$12(SP)     | SW         R2,$8(SP)
 2000950:	8d 04 cd 00 	SW         R1,$4(SP)      | SW         R9,(SP)
 2000954:	87 fa fc f8 	JSR        0x020015f0     // 20015f0 <printf>
 2000958:	02 00 15 f0 
 200095c:	b2 04 ba 04 	ADD        $4,R6          | ADD        $4,R7
 2000960:	aa 01 c3 a8 	ADD        $1,R5          | CMP        R5,R8
 2000964:	78 ab ff b4 	BNZ        @0x0200091c    // 200091c <split+0x158>
 2000968:	84 10 ac 14 	LW         16(SP),R0      | LW         20(SP),R5
 200096c:	b4 18 bc 1c 	LW         24(SP),R6      | LW         28(SP),R7
 2000970:	c4 20 cc 24 	LW         32(SP),R8      | LW         36(SP),R9
 2000974:	d4 28 ea 2c 	LW         40(SP),R10     | ADD        $44,SP
 2000978:	7b 40 00 00 	RTN
 200097c:	7b 40 00 00 	RTN
 2000980:	78 83 fe 4c 	BRA        @0x020007d0    // 20007d0 <split+0xc>

02000984 <malloc>:
 2000984:	e8 04 85 00 	SUB        $4,SP          | SW         R0,(SP)
 2000988:	13 40 40 00 	MOV        R1,R2
 200098c:	0a 03 00 40 	LDI        0x0200eab4,R1  // 200eab4 <_impure_ptr>
 2000990:	0a 40 ea b4 
 2000994:	8c 88 84 00 	LW         (R1),R1        | LW         (SP),R0
 2000998:	68 80 00 04 	ADD        $4,SP
 200099c:	7c 87 c0 00 	LJMP       @0x020009c4    // 20009c4 <_malloc_r>
 20009a0:	02 00 09 c4 

020009a4 <free>:
 20009a4:	e8 04 85 00 	SUB        $4,SP          | SW         R0,(SP)
 20009a8:	13 40 40 00 	MOV        R1,R2
 20009ac:	0a 03 00 40 	LDI        0x0200eab4,R1  // 200eab4 <_impure_ptr>
 20009b0:	0a 40 ea b4 
 20009b4:	8c 88 84 00 	LW         (R1),R1        | LW         (SP),R0
 20009b8:	68 80 00 04 	ADD        $4,SP
 20009bc:	7c 87 c0 00 	LJMP       @0x020061c0    // 20061c0 <_free_r>
 20009c0:	02 00 61 c0 

020009c4 <_malloc_r>:
 20009c4:	e8 3c 85 18 	SUB        $60,SP         | SW         R0,$24(SP)
 20009c8:	ad 1c b5 20 	SW         R5,$28(SP)     | SW         R6,$32(SP)
 20009cc:	bd 24 c5 28 	SW         R7,$36(SP)     | SW         R8,$40(SP)
 20009d0:	cd 2c d5 30 	SW         R9,$44(SP)     | SW         R10,$48(SP)
 20009d4:	dd 34 e5 38 	SW         R11,$52(SP)    | SW         R12,$56(SP)
 20009d8:	e7 88 af 90 	MOV        R1,R12         | MOV        R2,R5
 20009dc:	aa 0b ab 17 	ADD        $11,R5         | CMP        $23,R5
 20009e0:	78 98 09 4c 	BC         @0x02001330    // 2001330 <_malloc_r+0x96c>
 20009e4:	a9 78 9f a8 	AND        $-8,R5         | MOV        R5,R3
 20009e8:	19 40 00 1f 	LSR        $31,R3
 20009ec:	ab 90 96 00 	CMP        R2,R5          | CLR        R2
 20009f0:	12 58 00 01 	LDILO.C    $1,R2
 20009f4:	10 c4 c0 00 	OR         R3,R2
 20009f8:	78 88 00 0c 	BZ         @0x02000a08    // 2000a08 <_malloc_r+0x44>
 20009fc:	8e 0c 8d e0 	LDI        $12,R1         | SW         R1,(R12)
 2000a00:	0e 00 00 00 	CLR        R1
 2000a04:	78 80 09 5c 	BRA        @0x02001364    // 2001364 <_malloc_r+0x9a0>
 2000a08:	87 fa fc f8 	JSR        0x020015c8     // 20015c8 <__malloc_lock>
 2000a0c:	02 00 15 c8 
 2000a10:	2c 00 01 f8 	CMP        $504,R5
 2000a14:	78 b8 00 70 	BNC        @0x02000a88    // 2000a88 <_malloc_r+0xc4>
 2000a18:	03 41 40 00 	MOV        R5,R0
 2000a1c:	01 40 00 03 	LSR        $3,R0
 2000a20:	0b 41 40 08 	MOV        $8+R5,R1
 2000a24:	42 03 00 40 	LDI        0x0200e6ac,R8  // 200e6ac <__malloc_av_>
 2000a28:	42 40 e6 ac 
 2000a2c:	97 c0 92 88 	MOV        R8,R2          | ADD        R1,R2
 2000a30:	0b 40 80 00 	MOV        R2,R1
 2000a34:	4c 84 80 04 	LW         4(R2),R9
 2000a38:	92 78 cb 90 	ADD        $-8,R2         | CMP        R2,R9
 2000a3c:	78 a8 00 0c 	BNZ        @0x02000a4c    // 2000a4c <_malloc_r+0x88>
 2000a40:	4c 84 40 0c 	LW         12(R1),R9
 2000a44:	82 02 8b c8 	ADD        $2,R0          | CMP        R9,R1
 2000a48:	78 88 01 ac 	BZ         @0x02000bf8    // 2000bf8 <_malloc_r+0x234>
 2000a4c:	04 86 40 04 	LW         4(R9),R0
 2000a50:	00 43 ff fc 	AND        $-4,R0
 2000a54:	0c 86 40 0c 	LW         12(R9),R1
 2000a58:	14 86 40 08 	LW         8(R9),R2
 2000a5c:	0c c4 80 0c 	SW         R1,$12(R2)
 2000a60:	14 c4 40 08 	SW         R2,$8(R1)
 2000a64:	8f c8 8a 80 	MOV        R9,R1          | ADD        R0,R1
 2000a68:	04 84 40 04 	LW         4(R1),R0
 2000a6c:	00 c0 00 01 	OR         $1,R0
 2000a70:	04 c4 40 04 	SW         R0,$4(R1)
 2000a74:	0b 43 00 00 	MOV        R12,R1
 2000a78:	87 fa fc f8 	JSR        0x020015cc     // 20015cc <__malloc_unlock>
 2000a7c:	02 00 15 cc 
 2000a80:	8f c8 8a 08 	MOV        R9,R1          | ADD        $8,R1
 2000a84:	78 80 08 dc 	BRA        @0x02001364    // 2001364 <_malloc_r+0x9a0>
 2000a88:	03 41 40 00 	MOV        R5,R0
 2000a8c:	01 40 00 09 	LSR        $9,R0
 2000a90:	78 88 00 b8 	BZ         @0x02000b4c    // 2000b4c <_malloc_r+0x188>
 2000a94:	04 00 00 05 	CMP        $5,R0
 2000a98:	78 b8 00 18 	BNC        @0x02000ab4    // 2000ab4 <_malloc_r+0xf0>
 2000a9c:	03 41 40 00 	MOV        R5,R0
 2000aa0:	01 40 00 06 	LSR        $6,R0
 2000aa4:	9f 80 9a 38 	MOV        R0,R3          | ADD        $56,R3
 2000aa8:	82 39 8f 80 	ADD        $57,R0         | MOV        R0,R1
 2000aac:	09 80 00 03 	LSL        $3,R1
 2000ab0:	78 80 00 ac 	BRA        @0x02000b60    // 2000b60 <_malloc_r+0x19c>
 2000ab4:	04 00 00 15 	CMP        $21,R0
 2000ab8:	78 b8 00 18 	BNC        @0x02000ad4    // 2000ad4 <_malloc_r+0x110>
 2000abc:	1b 40 00 00 	MOV        R0,R3
 2000ac0:	18 80 00 5b 	ADD        $91,R3
 2000ac4:	00 80 00 5c 	ADD        $92,R0
 2000ac8:	0b 40 00 00 	MOV        R0,R1
 2000acc:	09 80 00 03 	LSL        $3,R1
 2000ad0:	78 80 00 8c 	BRA        @0x02000b60    // 2000b60 <_malloc_r+0x19c>
 2000ad4:	04 00 00 55 	CMP        $85,R0
 2000ad8:	78 b8 00 20 	BNC        @0x02000afc    // 2000afc <_malloc_r+0x138>
 2000adc:	03 41 40 00 	MOV        R5,R0
 2000ae0:	01 40 00 0c 	LSR        $12,R0
 2000ae4:	1b 40 00 00 	MOV        R0,R3
 2000ae8:	18 80 00 6e 	ADD        $110,R3
 2000aec:	00 80 00 6f 	ADD        $111,R0
 2000af0:	0b 40 00 00 	MOV        R0,R1
 2000af4:	09 80 00 03 	LSL        $3,R1
 2000af8:	78 80 00 64 	BRA        @0x02000b60    // 2000b60 <_malloc_r+0x19c>
 2000afc:	04 00 01 55 	CMP        $341,R0
 2000b00:	78 b8 00 20 	BNC        @0x02000b24    // 2000b24 <_malloc_r+0x160>
 2000b04:	03 41 40 00 	MOV        R5,R0
 2000b08:	01 40 00 0f 	LSR        $15,R0
 2000b0c:	1b 40 00 00 	MOV        R0,R3
 2000b10:	18 80 00 77 	ADD        $119,R3
 2000b14:	00 80 00 78 	ADD        $120,R0
 2000b18:	0b 40 00 00 	MOV        R0,R1
 2000b1c:	09 80 00 03 	LSL        $3,R1
 2000b20:	78 80 00 3c 	BRA        @0x02000b60    // 2000b60 <_malloc_r+0x19c>
 2000b24:	04 00 05 55 	CMP        $1365,R0
 2000b28:	78 b8 00 2c 	BNC        @0x02000b58    // 2000b58 <_malloc_r+0x194>
 2000b2c:	03 41 40 00 	MOV        R5,R0
 2000b30:	01 40 00 12 	LSR        $18,R0
 2000b34:	1b 40 00 00 	MOV        R0,R3
 2000b38:	18 80 00 7c 	ADD        $124,R3
 2000b3c:	00 80 00 7d 	ADD        $125,R0
 2000b40:	0b 40 00 00 	MOV        R0,R1
 2000b44:	09 80 00 03 	LSL        $3,R1
 2000b48:	78 80 00 14 	BRA        @0x02000b60    // 2000b60 <_malloc_r+0x19c>
 2000b4c:	0e 00 02 00 	LDI        $512,R1
 2000b50:	86 40 9e 3f 	LDI        $64,R0         | LDI        $63,R3
 2000b54:	78 80 00 08 	BRA        @0x02000b60    // 2000b60 <_malloc_r+0x19c>
 2000b58:	0e 00 03 f8 	LDI        $1016,R1
 2000b5c:	86 7f 9e 7e 	LDI        $127,R0        | LDI        $126,R3
 2000b60:	42 03 00 40 	LDI        0x0200e6ac,R8  // 200e6ac <__malloc_av_>
 2000b64:	42 40 e6 ac 
 2000b68:	a7 c0 a2 88 	MOV        R8,R4          | ADD        R1,R4
 2000b6c:	97 a0 92 78 	MOV        R4,R2          | ADD        $-8,R2
 2000b70:	4c 85 00 04 	LW         4(R4),R9
 2000b74:	14 06 40 00 	CMP        R9,R2
 2000b78:	78 88 00 7c 	BZ         @0x02000bf8    // 2000bf8 <_malloc_r+0x234>
 2000b7c:	0c 86 40 04 	LW         4(R9),R1
 2000b80:	89 7c 8b a8 	AND        $-4,R1         | CMP        R5,R1
 2000b84:	78 b8 00 1c 	BNC        @0x02000ba4    // 2000ba4 <_malloc_r+0x1e0>
 2000b88:	78 80 00 60 	BRA        @0x02000bec    // 2000bec <_malloc_r+0x228>
 2000b8c:	0c 86 40 04 	LW         4(R9),R1
 2000b90:	89 7c 8b a8 	AND        $-4,R1         | CMP        R5,R1
 2000b94:	78 b8 00 0c 	BNC        @0x02000ba4    // 2000ba4 <_malloc_r+0x1e0>
 2000b98:	2c 04 40 00 	CMP        R1,R5
 2000b9c:	78 a8 00 4c 	BNZ        @0x02000bec    // 2000bec <_malloc_r+0x228>
 2000ba0:	78 80 00 14 	BRA        @0x02000bb8    // 2000bb8 <_malloc_r+0x1f4>
 2000ba4:	87 88 80 a8 	MOV        R1,R0          | SUB        R5,R0
 2000ba8:	04 00 00 10 	CMP        $16,R0
 2000bac:	78 98 00 08 	BC         @0x02000bb8    // 2000bb8 <_malloc_r+0x1f4>
 2000bb0:	03 40 c0 00 	MOV        R3,R0
 2000bb4:	78 80 00 40 	BRA        @0x02000bf8    // 2000bf8 <_malloc_r+0x234>
 2000bb8:	04 86 40 0c 	LW         12(R9),R0
 2000bbc:	14 86 40 08 	LW         8(R9),R2
 2000bc0:	04 c4 80 0c 	SW         R0,$12(R2)
 2000bc4:	14 c4 00 08 	SW         R2,$8(R0)
 2000bc8:	b7 c8 b2 88 	MOV        R9,R6          | ADD        R1,R6
 2000bcc:	04 85 80 04 	LW         4(R6),R0
 2000bd0:	00 c0 00 01 	OR         $1,R0
 2000bd4:	04 c5 80 04 	SW         R0,$4(R6)
 2000bd8:	0b 43 00 00 	MOV        R12,R1
 2000bdc:	87 fa fc f8 	JSR        0x020015cc     // 20015cc <__malloc_unlock>
 2000be0:	02 00 15 cc 
 2000be4:	8f c8 8a 08 	MOV        R9,R1          | ADD        $8,R1
 2000be8:	78 80 07 78 	BRA        @0x02001364    // 2001364 <_malloc_r+0x9a0>
 2000bec:	4c 86 40 0c 	LW         12(R9),R9
 2000bf0:	14 06 40 00 	CMP        R9,R2
 2000bf4:	78 ab ff 94 	BNZ        @0x02000b8c    // 2000b8c <_malloc_r+0x1c8>
 2000bf8:	4c 86 00 10 	LW         16(R8),R9
 2000bfc:	12 03 00 40 	LDI        0x0200e6b4,R2  // 200e6b4 <__malloc_av_+0x8>
 2000c00:	12 40 e6 b4 
 2000c04:	4c 04 80 00 	CMP        R2,R9
 2000c08:	78 a8 00 08 	BNZ        @0x02000c14    // 2000c14 <_malloc_r+0x250>
 2000c0c:	24 86 00 04 	LW         4(R8),R4
 2000c10:	78 80 01 f8 	BRA        @0x02000e0c    // 2000e0c <_malloc_r+0x448>
 2000c14:	0c 86 40 04 	LW         4(R9),R1
 2000c18:	89 7c 8b a8 	AND        $-4,R1         | CMP        R5,R1
 2000c1c:	78 b8 00 14 	BNC        @0x02000c34    // 2000c34 <_malloc_r+0x270>
 2000c20:	14 c6 00 14 	SW         R2,$20(R8)
 2000c24:	14 c6 00 10 	SW         R2,$16(R8)
 2000c28:	0c 00 02 00 	CMP        $512,R1
 2000c2c:	78 b8 00 a8 	BNC        @0x02000cd8    // 2000cd8 <_malloc_r+0x314>
 2000c30:	78 80 00 4c 	BRA        @0x02000c80    // 2000c80 <_malloc_r+0x2bc>
 2000c34:	87 88 80 a8 	MOV        R1,R0          | SUB        R5,R0
 2000c38:	04 00 00 10 	CMP        $16,R0
 2000c3c:	78 98 06 fc 	BC         @0x0200133c    // 200133c <_malloc_r+0x978>
 2000c40:	9f c8 9a a8 	MOV        R9,R3          | ADD        R5,R3
 2000c44:	28 c0 00 01 	OR         $1,R5
 2000c48:	2c c6 40 04 	SW         R5,$4(R9)
 2000c4c:	1c c6 00 14 	SW         R3,$20(R8)
 2000c50:	1c c6 00 10 	SW         R3,$16(R8)
 2000c54:	14 c4 c0 0c 	SW         R2,$12(R3)
 2000c58:	14 c4 c0 08 	SW         R2,$8(R3)
 2000c5c:	13 40 00 00 	MOV        R0,R2
 2000c60:	10 c0 00 01 	OR         $1,R2
 2000c64:	14 c4 c0 04 	SW         R2,$4(R3)
 2000c68:	bf c8 ba 88 	MOV        R9,R7          | ADD        R1,R7
 2000c6c:	85 b8 8f e0 	SW         R0,(R7)        | MOV        R12,R1
 2000c70:	87 fa fc f8 	JSR        0x020015cc     // 20015cc <__malloc_unlock>
 2000c74:	02 00 15 cc 
 2000c78:	8f c8 8a 08 	MOV        R9,R1          | ADD        $8,R1
 2000c7c:	78 80 06 e4 	BRA        @0x02001364    // 2001364 <_malloc_r+0x9a0>
 2000c80:	09 40 00 03 	LSR        $3,R1
 2000c84:	1b 40 40 00 	MOV        R1,R3
 2000c88:	19 c0 00 02 	ASR        $2,R3
 2000c8c:	97 98 92 60 	MOV        R3,R2          | ADD        $-32,R2
 2000c90:	78 90 00 08 	BLT        @0x02000c9c    // 2000c9c <_malloc_r+0x2d8>
 2000c94:	16 00 00 00 	CLR        R2
 2000c98:	78 80 00 08 	BRA        @0x02000ca4    // 2000ca4 <_malloc_r+0x2e0>
 2000c9c:	16 00 00 01 	LDI        $1,R2
 2000ca0:	11 84 c0 00 	LSL        R3,R2
 2000ca4:	24 86 00 04 	LW         4(R8),R4
 2000ca8:	20 c4 80 00 	OR         R2,R4
 2000cac:	24 c6 00 04 	SW         R4,$4(R8)
 2000cb0:	08 80 00 01 	ADD        $1,R1
 2000cb4:	09 80 00 03 	LSL        $3,R1
 2000cb8:	97 c0 92 88 	MOV        R8,R2          | ADD        R1,R2
 2000cbc:	8f 90 94 90 	MOV        R2,R1          | LW         (R2),R2
 2000cc0:	9f 88 9a 78 	MOV        R1,R3          | ADD        $-8,R3
 2000cc4:	1c c6 40 0c 	SW         R3,$12(R9)
 2000cc8:	14 c6 40 08 	SW         R2,$8(R9)
 2000ccc:	4c c4 40 00 	SW         R9,(R1)
 2000cd0:	4c c4 80 0c 	SW         R9,$12(R2)
 2000cd4:	78 80 01 34 	BRA        @0x02000e0c    // 2000e0c <_malloc_r+0x448>
 2000cd8:	13 40 40 00 	MOV        R1,R2
 2000cdc:	11 40 00 09 	LSR        $9,R2
 2000ce0:	14 00 00 05 	CMP        $5,R2
 2000ce4:	78 b8 00 18 	BNC        @0x02000d00    // 2000d00 <_malloc_r+0x33c>
 2000ce8:	13 40 40 00 	MOV        R1,R2
 2000cec:	11 40 00 06 	LSR        $6,R2
 2000cf0:	9f 90 9a 38 	MOV        R2,R3          | ADD        $56,R3
 2000cf4:	10 80 00 39 	ADD        $57,R2
 2000cf8:	11 80 00 03 	LSL        $3,R2
 2000cfc:	78 80 00 90 	BRA        @0x02000d90    // 2000d90 <_malloc_r+0x3cc>
 2000d00:	14 00 00 15 	CMP        $21,R2
 2000d04:	78 b8 00 14 	BNC        @0x02000d1c    // 2000d1c <_malloc_r+0x358>
 2000d08:	1b 40 80 00 	MOV        R2,R3
 2000d0c:	18 80 00 5b 	ADD        $91,R3
 2000d10:	10 80 00 5c 	ADD        $92,R2
 2000d14:	11 80 00 03 	LSL        $3,R2
 2000d18:	78 80 00 74 	BRA        @0x02000d90    // 2000d90 <_malloc_r+0x3cc>
 2000d1c:	14 00 00 55 	CMP        $85,R2
 2000d20:	78 b8 00 1c 	BNC        @0x02000d40    // 2000d40 <_malloc_r+0x37c>
 2000d24:	13 40 40 00 	MOV        R1,R2
 2000d28:	11 40 00 0c 	LSR        $12,R2
 2000d2c:	1b 40 80 00 	MOV        R2,R3
 2000d30:	18 80 00 6e 	ADD        $110,R3
 2000d34:	10 80 00 6f 	ADD        $111,R2
 2000d38:	11 80 00 03 	LSL        $3,R2
 2000d3c:	78 80 00 50 	BRA        @0x02000d90    // 2000d90 <_malloc_r+0x3cc>
 2000d40:	14 00 01 55 	CMP        $341,R2
 2000d44:	78 b8 00 1c 	BNC        @0x02000d64    // 2000d64 <_malloc_r+0x3a0>
 2000d48:	13 40 40 00 	MOV        R1,R2
 2000d4c:	11 40 00 0f 	LSR        $15,R2
 2000d50:	1b 40 80 00 	MOV        R2,R3
 2000d54:	18 80 00 77 	ADD        $119,R3
 2000d58:	10 80 00 78 	ADD        $120,R2
 2000d5c:	11 80 00 03 	LSL        $3,R2
 2000d60:	78 80 00 2c 	BRA        @0x02000d90    // 2000d90 <_malloc_r+0x3cc>
 2000d64:	14 00 05 55 	CMP        $1365,R2
 2000d68:	78 b8 00 1c 	BNC        @0x02000d88    // 2000d88 <_malloc_r+0x3c4>
 2000d6c:	13 40 40 00 	MOV        R1,R2
 2000d70:	11 40 00 12 	LSR        $18,R2
 2000d74:	1b 40 80 00 	MOV        R2,R3
 2000d78:	18 80 00 7c 	ADD        $124,R3
 2000d7c:	10 80 00 7d 	ADD        $125,R2
 2000d80:	11 80 00 03 	LSL        $3,R2
 2000d84:	78 80 00 08 	BRA        @0x02000d90    // 2000d90 <_malloc_r+0x3cc>
 2000d88:	16 00 03 f8 	LDI        $1016,R2
 2000d8c:	1e 00 00 7e 	LDI        $126,R3
 2000d90:	a7 c0 a2 90 	MOV        R8,R4          | ADD        R2,R4
 2000d94:	b7 a0 b2 78 	MOV        R4,R6          | ADD        $-8,R6
 2000d98:	94 a0 b3 90 	LW         (R4),R2        | CMP        R2,R6
 2000d9c:	78 a8 00 40 	BNZ        @0x02000de0    // 2000de0 <_malloc_r+0x41c>
 2000da0:	19 c0 00 02 	ASR        $2,R3
 2000da4:	8f 98 8a 60 	MOV        R3,R1          | ADD        $-32,R1
 2000da8:	78 90 00 08 	BLT        @0x02000db4    // 2000db4 <_malloc_r+0x3f0>
 2000dac:	0e 00 00 00 	CLR        R1
 2000db0:	78 80 00 08 	BRA        @0x02000dbc    // 2000dbc <_malloc_r+0x3f8>
 2000db4:	0e 00 00 01 	LDI        $1,R1
 2000db8:	09 84 c0 00 	LSL        R3,R1
 2000dbc:	24 86 00 04 	LW         4(R8),R4
 2000dc0:	20 c4 40 00 	OR         R1,R4
 2000dc4:	24 c6 00 04 	SW         R4,$4(R8)
 2000dc8:	8f b0 b7 90 	MOV        R6,R1          | MOV        R2,R6
 2000dcc:	78 80 00 2c 	BRA        @0x02000dfc    // 2000dfc <_malloc_r+0x438>
 2000dd0:	14 84 80 08 	LW         8(R2),R2
 2000dd4:	34 04 80 00 	CMP        R2,R6
 2000dd8:	78 88 00 18 	BZ         @0x02000df4    // 2000df4 <_malloc_r+0x430>
 2000ddc:	78 80 00 00 	BRA        @0x02000de0    // 2000de0 <_malloc_r+0x41c>
 2000de0:	1c 84 80 04 	LW         4(R2),R3
 2000de4:	99 7c 8b 98 	AND        $-4,R3         | CMP        R3,R1
 2000de8:	78 9b ff e4 	BC         @0x02000dd0    // 2000dd0 <_malloc_r+0x40c>
 2000dec:	33 40 80 00 	MOV        R2,R6
 2000df0:	78 80 00 00 	BRA        @0x02000df4    // 2000df4 <_malloc_r+0x430>
 2000df4:	0c 85 80 0c 	LW         12(R6),R1
 2000df8:	24 86 00 04 	LW         4(R8),R4
 2000dfc:	0c c6 40 0c 	SW         R1,$12(R9)
 2000e00:	34 c6 40 08 	SW         R6,$8(R9)
 2000e04:	4c c4 40 08 	SW         R9,$8(R1)
 2000e08:	4c c5 80 0c 	SW         R9,$12(R6)
 2000e0c:	13 40 00 00 	MOV        R0,R2
 2000e10:	11 c0 00 02 	ASR        $2,R2
 2000e14:	8f 90 8a 60 	MOV        R2,R1          | ADD        $-32,R1
 2000e18:	78 90 00 10 	BLT        @0x02000e2c    // 2000e2c <_malloc_r+0x468>
 2000e1c:	96 01 d6 01 	LDI        $1,R2          | LDI        $1,R10
 2000e20:	51 84 40 00 	LSL        R1,R10
 2000e24:	5e 00 00 00 	CLR        R11
 2000e28:	78 80 00 0c 	BRA        @0x02000e38    // 2000e38 <_malloc_r+0x474>
 2000e2c:	d6 00 de 00 	CLR        R10            | CLR        R11
 2000e30:	8e 01 de 01 	LDI        $1,R1          | LDI        $1,R11
 2000e34:	59 84 80 00 	LSL        R2,R11
 2000e38:	9f a0 96 00 	MOV        R4,R3          | CLR        R2
 2000e3c:	14 06 80 00 	CMP        R10,R2
 2000e40:	1c 0e c0 00 	CMP.Z      R11,R3
 2000e44:	78 98 01 fc 	BC         @0x02001044    // 2001044 <_malloc_r+0x680>
 2000e48:	b7 d0 bf d8 	MOV        R10,R6         | MOV        R11,R7
 2000e4c:	b9 98 b1 90 	AND        R3,R7          | AND        R2,R6
 2000e50:	34 00 00 00 	CMP        $0,R6
 2000e54:	3c 08 00 00 	CMP.Z      $0,R7
 2000e58:	78 a8 00 3c 	BNZ        @0x02000e98    // 2000e98 <_malloc_r+0x4d4>
 2000e5c:	81 7c 82 04 	AND        $-4,R0         | ADD        $4,R0
 2000e60:	58 86 c0 00 	ADD        R11,R11
 2000e64:	50 98 00 01 	ADD.C      $1,R10
 2000e68:	d2 d0 b7 90 	ADD        R10,R10        | MOV        R2,R6
 2000e6c:	bf 98 b9 d8 	MOV        R3,R7          | AND        R11,R7
 2000e70:	b1 d0 b3 00 	AND        R10,R6         | CMP        $0,R6
 2000e74:	3c 08 00 00 	CMP.Z      $0,R7
 2000e78:	78 a8 00 1c 	BNZ        @0x02000e98    // 2000e98 <_malloc_r+0x4d4>
 2000e7c:	82 04 da d8 	ADD        $4,R0          | ADD        R11,R11
 2000e80:	50 98 00 01 	ADD.C      $1,R10
 2000e84:	d2 d0 b7 90 	ADD        R10,R10        | MOV        R2,R6
 2000e88:	bf 98 b9 d8 	MOV        R3,R7          | AND        R11,R7
 2000e8c:	b1 d0 b3 00 	AND        R10,R6         | CMP        $0,R6
 2000e90:	3c 08 00 00 	CMP.Z      $0,R7
 2000e94:	78 8b ff e4 	BZ         @0x02000e7c    // 2000e7c <_malloc_r+0x4b8>
 2000e98:	0b 40 00 00 	MOV        R0,R1
 2000e9c:	09 80 00 03 	LSL        $3,R1
 2000ea0:	bf c0 ba 88 	MOV        R8,R7          | ADD        R1,R7
 2000ea4:	9f b8 97 80 	MOV        R7,R3          | MOV        R0,R2
 2000ea8:	4c 84 c0 0c 	LW         12(R3),R9
 2000eac:	1c 06 40 00 	CMP        R9,R3
 2000eb0:	78 88 00 c8 	BZ         @0x02000f7c    // 2000f7c <_malloc_r+0x5b8>
 2000eb4:	0c 86 40 04 	LW         4(R9),R1
 2000eb8:	89 7c 8b a8 	AND        $-4,R1         | CMP        R5,R1
 2000ebc:	78 b8 00 14 	BNC        @0x02000ed4    // 2000ed4 <_malloc_r+0x510>
 2000ec0:	78 80 00 ac 	BRA        @0x02000f70    // 2000f70 <_malloc_r+0x5ac>
 2000ec4:	0c 86 40 04 	LW         4(R9),R1
 2000ec8:	89 7c 8b a8 	AND        $-4,R1         | CMP        R5,R1
 2000ecc:	78 98 00 a0 	BC         @0x02000f70    // 2000f70 <_malloc_r+0x5ac>
 2000ed0:	78 80 00 00 	BRA        @0x02000ed4    // 2000ed4 <_malloc_r+0x510>
 2000ed4:	87 88 80 a8 	MOV        R1,R0          | SUB        R5,R0
 2000ed8:	04 00 00 10 	CMP        $16,R0
 2000edc:	78 98 00 58 	BC         @0x02000f38    // 2000f38 <_malloc_r+0x574>
 2000ee0:	97 c8 92 a8 	MOV        R9,R2          | ADD        R5,R2
 2000ee4:	28 c0 00 01 	OR         $1,R5
 2000ee8:	2c c6 40 04 	SW         R5,$4(R9)
 2000eec:	1c 86 40 0c 	LW         12(R9),R3
 2000ef0:	24 86 40 08 	LW         8(R9),R4
 2000ef4:	1c c5 00 0c 	SW         R3,$12(R4)
 2000ef8:	24 c4 c0 08 	SW         R4,$8(R3)
 2000efc:	14 c6 00 14 	SW         R2,$20(R8)
 2000f00:	14 c6 00 10 	SW         R2,$16(R8)
 2000f04:	32 03 00 40 	LDI        0x0200e6b4,R6  // 200e6b4 <__malloc_av_+0x8>
 2000f08:	32 40 e6 b4 
 2000f0c:	34 c4 80 0c 	SW         R6,$12(R2)
 2000f10:	34 c4 80 08 	SW         R6,$8(R2)
 2000f14:	1b 40 00 00 	MOV        R0,R3
 2000f18:	18 c0 00 01 	OR         $1,R3
 2000f1c:	1c c4 80 04 	SW         R3,$4(R2)
 2000f20:	bf c8 ba 88 	MOV        R9,R7          | ADD        R1,R7
 2000f24:	85 b8 8f e0 	SW         R0,(R7)        | MOV        R12,R1
 2000f28:	87 fa fc f8 	JSR        0x020015cc     // 20015cc <__malloc_unlock>
 2000f2c:	02 00 15 cc 
 2000f30:	8f c8 8a 08 	MOV        R9,R1          | ADD        $8,R1
 2000f34:	78 80 04 2c 	BRA        @0x02001364    // 2001364 <_malloc_r+0x9a0>
 2000f38:	87 c8 82 88 	MOV        R9,R0          | ADD        R1,R0
 2000f3c:	0b 40 00 00 	MOV        R0,R1
 2000f40:	04 84 00 04 	LW         4(R0),R0
 2000f44:	00 c0 00 01 	OR         $1,R0
 2000f48:	04 c4 40 04 	SW         R0,$4(R1)
 2000f4c:	04 86 40 0c 	LW         12(R9),R0
 2000f50:	0c 86 40 08 	LW         8(R9),R1
 2000f54:	04 c4 40 0c 	SW         R0,$12(R1)
 2000f58:	0c c4 00 08 	SW         R1,$8(R0)
 2000f5c:	0b 43 00 00 	MOV        R12,R1
 2000f60:	87 fa fc f8 	JSR        0x020015cc     // 20015cc <__malloc_unlock>
 2000f64:	02 00 15 cc 
 2000f68:	8f c8 8a 08 	MOV        R9,R1          | ADD        $8,R1
 2000f6c:	78 80 03 f4 	BRA        @0x02001364    // 2001364 <_malloc_r+0x9a0>
 2000f70:	4c 86 40 0c 	LW         12(R9),R9
 2000f74:	1c 06 40 00 	CMP        R9,R3
 2000f78:	78 ab ff 48 	BNZ        @0x02000ec4    // 2000ec4 <_malloc_r+0x500>
 2000f7c:	9a 08 92 01 	ADD        $8,R3          | ADD        $1,R2
 2000f80:	8f 90 89 03 	MOV        R2,R1          | AND        $3,R1
 2000f84:	78 ab ff 20 	BNZ        @0x02000ea8    // 2000ea8 <_malloc_r+0x4e4>
 2000f88:	8f 80 89 03 	MOV        R0,R1          | AND        $3,R1
 2000f8c:	78 a8 00 14 	BNZ        @0x02000fa4    // 2000fa4 <_malloc_r+0x5e0>
 2000f90:	03 42 c0 00 	MOV        R11,R0
 2000f94:	01 03 ff ff 	XOR        $-1,R0
 2000f98:	20 44 00 00 	AND        R0,R4
 2000f9c:	24 c6 00 04 	SW         R4,$4(R8)
 2000fa0:	78 80 00 0c 	BRA        @0x02000fb0    // 2000fb0 <_malloc_r+0x5ec>
 2000fa4:	82 7f 8c b8 	ADD        $-1,R0         | LW         (R7),R1
 2000fa8:	ba 78 bb 88 	ADD        $-8,R7         | CMP        R1,R7
 2000fac:	78 8b ff d8 	BZ         @0x02000f88    // 2000f88 <_malloc_r+0x5c4>
 2000fb0:	b7 d0 bf d8 	MOV        R10,R6         | MOV        R11,R7
 2000fb4:	38 86 c0 00 	ADD        R11,R7
 2000fb8:	30 98 00 01 	ADD.C      $1,R6
 2000fbc:	b2 d0 b5 00 	ADD        R10,R6         | SW         R6,(SP)
 2000fc0:	bd 04 d7 b0 	SW         R7,$4(SP)      | MOV        R6,R10
 2000fc4:	df b8 a5 14 	MOV        R7,R11         | SW         R4,$20(SP)
 2000fc8:	be 00 bd 10 	CLR        R7             | SW         R7,$16(SP)
 2000fcc:	1b 42 80 00 	MOV        R10,R3
 2000fd0:	18 c6 c0 00 	OR         R11,R3
 2000fd4:	9b b8 9e 00 	CMP        R7,R3          | CLR        R3
 2000fd8:	1a 68 00 01 	LDILO.NZ   $1,R3
 2000fdc:	be 01 84 10 	LDI        $1,R7          | LW         16(SP),R0
 2000fe0:	8c 14 83 d0 	LW         20(SP),R1      | CMP        R10,R0
 2000fe4:	78 98 00 08 	BC         @0x02000ff0    // 2000ff0 <_malloc_r+0x62c>
 2000fe8:	0c 0e c0 00 	CMP.Z      R11,R1
 2000fec:	78 b8 00 04 	BNC        @0x02000ff4    // 2000ff4 <_malloc_r+0x630>
 2000ff0:	3e 00 00 00 	CLR        R7
 2000ff4:	18 45 c0 00 	AND        R7,R3
 2000ff8:	18 40 00 ff 	AND        $255,R3
 2000ffc:	78 88 00 44 	BZ         @0x02001044    // 2001044 <_malloc_r+0x680>
 2001000:	b4 00 bc 04 	LW         (SP),R6        | LW         4(SP),R7
 2001004:	84 10 8c 14 	LW         16(SP),R0      | LW         20(SP),R1
 2001008:	b9 88 b1 80 	AND        R1,R7          | AND        R0,R6
 200100c:	87 90 b3 00 	MOV        R2,R0          | CMP        $0,R6
 2001010:	3c 08 00 00 	CMP.Z      $0,R7
 2001014:	78 ab fe 80 	BNZ        @0x02000e98    // 2000e98 <_malloc_r+0x4d4>
 2001018:	87 90 8f c0 	MOV        R2,R0          | MOV        R8,R1
 200101c:	c4 10 cc 14 	LW         16(SP),R8      | LW         20(SP),R9
 2001020:	82 04 da d8 	ADD        $4,R0          | ADD        R11,R11
 2001024:	50 98 00 01 	ADD.C      $1,R10
 2001028:	d2 d0 97 c0 	ADD        R10,R10        | MOV        R8,R2
 200102c:	9f c8 99 d8 	MOV        R9,R3          | AND        R11,R3
 2001030:	91 d0 93 00 	AND        R10,R2         | CMP        $0,R2
 2001034:	1c 08 00 00 	CMP.Z      $0,R3
 2001038:	78 8b ff e4 	BZ         @0x02001020    // 2001020 <_malloc_r+0x65c>
 200103c:	43 40 40 00 	MOV        R1,R8
 2001040:	78 83 fe 54 	BRA        @0x02000e98    // 2000e98 <_malloc_r+0x4d4>
 2001044:	4c 86 00 08 	LW         8(R8),R9
 2001048:	54 86 40 04 	LW         4(R9),R10
 200104c:	d1 7c bf d0 	AND        $-4,R10        | MOV        R10,R7
 2001050:	b8 a8 b6 00 	SUB        R5,R7          | CLR        R6
 2001054:	d3 a8 86 00 	CMP        R5,R10         | CLR        R0
 2001058:	02 58 00 01 	LDILO.C    $1,R0
 200105c:	8e 01 b3 00 	LDI        $1,R1          | CMP        $0,R6
 2001060:	78 90 00 10 	BLT        @0x02001074    // 2001074 <_malloc_r+0x6b0>
 2001064:	78 a8 00 08 	BNZ        @0x02001070    // 2001070 <_malloc_r+0x6ac>
 2001068:	3c 00 00 0e 	CMP        $14,R7
 200106c:	78 98 00 04 	BC         @0x02001074    // 2001074 <_malloc_r+0x6b0>
 2001070:	0e 00 00 00 	CLR        R1
 2001074:	00 c4 40 00 	OR         R1,R0
 2001078:	00 40 00 ff 	AND        $255,R0
 200107c:	78 88 02 68 	BZ         @0x020012e8    // 20012e8 <_malloc_r+0x924>
 2001080:	02 03 00 40 	LDI        0x0200f0c8,R0  // 200f0c8 <__malloc_top_pad>
 2001084:	02 40 f0 c8 
 2001088:	04 84 00 04 	LW         4(R0),R0
 200108c:	8f a8 8a 80 	MOV        R5,R1          | ADD        R0,R1
 2001090:	03 40 40 00 	MOV        R1,R0
 2001094:	22 03 00 40 	LDI        0x0200e6a0,R4  // 200e6a0 <__malloc_sbrk_base>
 2001098:	22 40 e6 a0 
 200109c:	8c a0 8b 7f 	LW         (R4),R1        | CMP        $-1,R1
 20010a0:	78 a8 00 0c 	BNZ        @0x020010b0    // 20010b0 <_malloc_r+0x6ec>
 20010a4:	82 10 85 10 	ADD        $16,R0         | SW         R0,$16(SP)
 20010a8:	13 40 00 00 	MOV        R0,R2
 20010ac:	78 80 00 0c 	BRA        @0x020010bc    // 20010bc <_malloc_r+0x6f8>
 20010b0:	00 80 10 0f 	ADD        $4111,R0
 20010b4:	00 43 f0 00 	AND        $-4096,R0
 20010b8:	85 10 97 80 	SW         R0,$16(SP)     | MOV        R0,R2
 20010bc:	8f e0 a5 08 	MOV        R12,R1         | SW         R4,$8(SP)
 20010c0:	87 fa fc f8 	JSR        0x0200c6fc     // 200c6fc <_sbrk_r>
 20010c4:	02 00 c6 fc 
 20010c8:	df 88 8b 7f 	MOV        R1,R11         | CMP        $-1,R1
 20010cc:	24 87 40 08 	LW         8(SP),R4
 20010d0:	78 a8 00 10 	BNZ        @0x020010e4    // 20010e4 <_malloc_r+0x720>
 20010d4:	4c 86 00 08 	LW         8(R8),R9
 20010d8:	04 86 40 04 	LW         4(R9),R0
 20010dc:	00 43 ff fc 	AND        $-4,R0
 20010e0:	78 80 01 bc 	BRA        @0x020012a0    // 20012a0 <_malloc_r+0x8dc>
 20010e4:	8f c8 8a d0 	MOV        R9,R1          | ADD        R10,R1
 20010e8:	cb c0 86 00 	CMP        R8,R9          | CLR        R0
 20010ec:	02 68 00 01 	LDILO.NZ   $1,R0
 20010f0:	db 88 96 00 	CMP        R1,R11         | CLR        R2
 20010f4:	12 58 00 01 	LDILO.C    $1,R2
 20010f8:	00 44 80 00 	AND        R2,R0
 20010fc:	78 88 00 10 	BZ         @0x02001110    // 2001110 <_malloc_r+0x74c>
 2001100:	4c 86 00 08 	LW         8(R8),R9
 2001104:	04 86 40 04 	LW         4(R9),R0
 2001108:	00 43 ff fc 	AND        $-4,R0
 200110c:	78 80 01 90 	BRA        @0x020012a0    // 20012a0 <_malloc_r+0x8dc>
 2001110:	1a 03 00 40 	LDI        0x0200f090,R3  // 200f090 <__malloc_current_mallinfo>
 2001114:	1a 40 f0 90 
 2001118:	84 98 94 10 	LW         (R3),R0        | LW         16(SP),R2
 200111c:	92 80 95 98 	ADD        R0,R2          | SW         R2,(R3)
 2001120:	0c 06 c0 00 	CMP        R11,R1
 2001124:	78 a8 00 24 	BNZ        @0x0200114c    // 200114c <_malloc_r+0x788>
 2001128:	03 40 40 00 	MOV        R1,R0
 200112c:	00 40 0f ff 	AND        $4095,R0
 2001130:	78 a8 00 18 	BNZ        @0x0200114c    // 200114c <_malloc_r+0x788>
 2001134:	0c 86 00 08 	LW         8(R8),R1
 2001138:	87 d0 9c 10 	MOV        R10,R0         | LW         16(SP),R3
 200113c:	00 84 c0 00 	ADD        R3,R0
 2001140:	00 c0 00 01 	OR         $1,R0
 2001144:	04 c4 40 04 	SW         R0,$4(R1)
 2001148:	78 80 00 e4 	BRA        @0x02001230    // 2001230 <_malloc_r+0x86c>
 200114c:	84 a0 83 7f 	LW         (R4),R0        | CMP        $-1,R0
 2001150:	78 a8 00 08 	BNZ        @0x0200115c    // 200115c <_malloc_r+0x798>
 2001154:	5c c5 00 00 	SW         R11,(R4)
 2001158:	78 80 00 08 	BRA        @0x02001164    // 2001164 <_malloc_r+0x7a0>
 200115c:	87 d8 80 88 	MOV        R11,R0         | SUB        R1,R0
 2001160:	82 90 85 98 	ADD        R2,R0          | SW         R0,(R3)
 2001164:	87 d8 81 07 	MOV        R11,R0         | AND        $7,R0
 2001168:	78 88 00 14 	BZ         @0x02001180    // 2001180 <_malloc_r+0x7bc>
 200116c:	58 04 00 00 	SUB        R0,R11
 2001170:	5b 42 c0 08 	MOV        $8+R11,R11
 2001174:	16 00 10 08 	LDI        $4104,R2
 2001178:	10 04 00 00 	SUB        R0,R2
 200117c:	78 80 00 04 	BRA        @0x02001184    // 2001184 <_malloc_r+0x7c0>
 2001180:	16 00 10 00 	LDI        $4096,R2
 2001184:	87 d8 a4 10 	MOV        R11,R0         | LW         16(SP),R4
 2001188:	00 85 00 00 	ADD        R4,R0
 200118c:	00 40 0f ff 	AND        $4095,R0
 2001190:	a7 90 a0 80 	MOV        R2,R4          | SUB        R0,R4
 2001194:	97 a0 8f e0 	MOV        R4,R2          | MOV        R12,R1
 2001198:	9d 0c a5 08 	SW         R3,$12(SP)     | SW         R4,$8(SP)
 200119c:	87 fa fc f8 	JSR        0x0200c6fc     // 200c6fc <_sbrk_r>
 20011a0:	02 00 c6 fc 
 20011a4:	8b 7f 9c 0c 	CMP        $-1,R1         | LW         12(SP),R3
 20011a8:	24 87 40 08 	LW         8(SP),R4
 20011ac:	78 88 00 10 	BZ         @0x020011c0    // 20011c0 <_malloc_r+0x7fc>
 20011b0:	87 88 80 d8 	MOV        R1,R0          | SUB        R11,R0
 20011b4:	00 85 00 00 	ADD        R4,R0
 20011b8:	00 c0 00 01 	OR         $1,R0
 20011bc:	78 80 00 04 	BRA        @0x020011c4    // 20011c4 <_malloc_r+0x800>
 20011c0:	86 01 a6 00 	LDI        $1,R0          | CLR        R4
 20011c4:	8c 98 97 a0 	LW         (R3),R1        | MOV        R4,R2
 20011c8:	92 88 95 98 	ADD        R1,R2          | SW         R2,(R3)
 20011cc:	5c c6 00 08 	SW         R11,$8(R8)
 20011d0:	04 c6 c0 04 	SW         R0,$4(R11)
 20011d4:	4c 06 00 00 	CMP        R8,R9
 20011d8:	78 88 00 54 	BZ         @0x02001230    // 2001230 <_malloc_r+0x86c>
 20011dc:	54 00 00 10 	CMP        $16,R10
 20011e0:	78 b8 00 0c 	BNC        @0x020011f0    // 20011f0 <_malloc_r+0x82c>
 20011e4:	36 00 00 01 	LDI        $1,R6
 20011e8:	34 c6 c0 04 	SW         R6,$4(R11)
 20011ec:	78 80 00 e4 	BRA        @0x020012d4    // 20012d4 <_malloc_r+0x910>
 20011f0:	d2 74 d1 78 	ADD        $-12,R10       | AND        $-8,R10
 20011f4:	04 86 40 04 	LW         4(R9),R0
 20011f8:	00 40 00 01 	AND        $1,R0
 20011fc:	00 c6 80 00 	OR         R10,R0
 2001200:	04 c6 40 04 	SW         R0,$4(R9)
 2001204:	87 c8 82 d0 	MOV        R9,R0          | ADD        R10,R0
 2001208:	0e 00 00 05 	LDI        $5,R1
 200120c:	0c c4 00 04 	SW         R1,$4(R0)
 2001210:	0c c4 00 08 	SW         R1,$8(R0)
 2001214:	54 00 00 10 	CMP        $16,R10
 2001218:	78 98 00 14 	BC         @0x02001230    // 2001230 <_malloc_r+0x86c>
 200121c:	97 c8 92 08 	MOV        R9,R2          | ADD        $8,R2
 2001220:	8f e0 9d 0c 	MOV        R12,R1         | SW         R3,$12(SP)
 2001224:	87 fa fc f8 	JSR        0x020061c0     // 20061c0 <_free_r>
 2001228:	02 00 61 c0 
 200122c:	9c 0c 94 98 	LW         12(SP),R3      | LW         (R3),R2
 2001230:	8f 90 87 90 	MOV        R2,R1          | MOV        R2,R0
 2001234:	01 c0 00 1f 	ASR        $31,R0
 2001238:	22 03 00 40 	LDI        0x0200f0c0,R4  // 200f0c0 <__malloc_max_sbrked_mem>
 200123c:	22 40 f0 c0 
 2001240:	14 85 00 00 	LW         (R4),R2
 2001244:	1c 85 00 04 	LW         4(R4),R3
 2001248:	14 04 00 00 	CMP        R0,R2
 200124c:	78 98 00 08 	BC         @0x02001258    // 2001258 <_malloc_r+0x894>
 2001250:	1c 0c 40 00 	CMP.Z      R1,R3
 2001254:	78 b8 00 08 	BNC        @0x02001260    // 2001260 <_malloc_r+0x89c>
 2001258:	04 c5 00 00 	SW         R0,(R4)
 200125c:	0c c5 00 04 	SW         R1,$4(R4)
 2001260:	22 03 00 40 	LDI        0x0200f0b8,R4  // 200f0b8 <__malloc_max_total_mem>
 2001264:	22 40 f0 b8 
 2001268:	14 85 00 00 	LW         (R4),R2
 200126c:	1c 85 00 04 	LW         4(R4),R3
 2001270:	14 04 00 00 	CMP        R0,R2
 2001274:	1c 0c 40 00 	CMP.Z      R1,R3
 2001278:	78 98 00 10 	BC         @0x0200128c    // 200128c <_malloc_r+0x8c8>
 200127c:	4c 86 00 08 	LW         8(R8),R9
 2001280:	04 86 40 04 	LW         4(R9),R0
 2001284:	00 43 ff fc 	AND        $-4,R0
 2001288:	78 80 00 14 	BRA        @0x020012a0    // 20012a0 <_malloc_r+0x8dc>
 200128c:	04 c5 00 00 	SW         R0,(R4)
 2001290:	0c c5 00 04 	SW         R1,$4(R4)
 2001294:	4c 86 00 08 	LW         8(R8),R9
 2001298:	04 86 40 04 	LW         4(R9),R0
 200129c:	00 43 ff fc 	AND        $-4,R0
 20012a0:	bf 80 b8 a8 	MOV        R0,R7          | SUB        R5,R7
 20012a4:	b6 00 8e 01 	CLR        R6             | LDI        $1,R1
 20012a8:	34 00 00 00 	CMP        $0,R6
 20012ac:	78 90 00 10 	BLT        @0x020012c0    // 20012c0 <_malloc_r+0x8fc>
 20012b0:	78 a8 00 08 	BNZ        @0x020012bc    // 20012bc <_malloc_r+0x8f8>
 20012b4:	3c 00 00 0e 	CMP        $14,R7
 20012b8:	78 98 00 04 	BC         @0x020012c0    // 20012c0 <_malloc_r+0x8fc>
 20012bc:	0e 00 00 00 	CLR        R1
 20012c0:	83 a8 86 00 	CMP        R5,R0          | CLR        R0
 20012c4:	02 58 00 01 	LDILO.C    $1,R0
 20012c8:	00 c4 40 00 	OR         R1,R0
 20012cc:	00 40 00 ff 	AND        $255,R0
 20012d0:	78 88 00 14 	BZ         @0x020012e8    // 20012e8 <_malloc_r+0x924>
 20012d4:	0b 43 00 00 	MOV        R12,R1
 20012d8:	87 fa fc f8 	JSR        0x020015cc     // 20015cc <__malloc_unlock>
 20012dc:	02 00 15 cc 
 20012e0:	0e 00 00 00 	CLR        R1
 20012e4:	78 80 00 7c 	BRA        @0x02001364    // 2001364 <_malloc_r+0x9a0>
 20012e8:	03 41 40 00 	MOV        R5,R0
 20012ec:	00 c0 00 01 	OR         $1,R0
 20012f0:	04 c6 40 04 	SW         R0,$4(R9)
 20012f4:	87 c8 82 a8 	MOV        R9,R0          | ADD        R5,R0
 20012f8:	04 c6 00 08 	SW         R0,$8(R8)
 20012fc:	0b 41 c0 00 	MOV        R7,R1
 2001300:	08 c0 00 01 	OR         $1,R1
 2001304:	0c c4 00 04 	SW         R1,$4(R0)
 2001308:	0b 43 00 00 	MOV        R12,R1
 200130c:	87 fa fc f8 	JSR        0x020015cc     // 20015cc <__malloc_unlock>
 2001310:	02 00 15 cc 
 2001314:	8f c8 8a 08 	MOV        R9,R1          | ADD        $8,R1
 2001318:	78 80 00 48 	BRA        @0x02001364    // 2001364 <_malloc_r+0x9a0>
 200131c:	87 fa fc f8 	JSR        0x020015c8     // 20015c8 <__malloc_lock>
 2001320:	02 00 15 c8 
 2001324:	8e 18 86 02 	LDI        $24,R1         | LDI        $2,R0
 2001328:	2e 00 00 10 	LDI        $16,R5
 200132c:	78 83 f6 f4 	BRA        @0x02000a24    // 2000a24 <_malloc_r+0x60>
 2001330:	14 00 00 11 	CMP        $17,R2
 2001334:	78 9b ff e4 	BC         @0x0200131c    // 200131c <_malloc_r+0x958>
 2001338:	78 83 f6 c0 	BRA        @0x020009fc    // 20009fc <_malloc_r+0x38>
 200133c:	14 c6 00 14 	SW         R2,$20(R8)
 2001340:	14 c6 00 10 	SW         R2,$16(R8)
 2001344:	97 c8 92 88 	MOV        R9,R2          | ADD        R1,R2
 2001348:	04 84 80 04 	LW         4(R2),R0
 200134c:	00 c0 00 01 	OR         $1,R0
 2001350:	04 c4 80 04 	SW         R0,$4(R2)
 2001354:	0b 43 00 00 	MOV        R12,R1
 2001358:	87 fa fc f8 	JSR        0x020015cc     // 20015cc <__malloc_unlock>
 200135c:	02 00 15 cc 
 2001360:	8f c8 8a 08 	MOV        R9,R1          | ADD        $8,R1
 2001364:	84 18 ac 1c 	LW         24(SP),R0      | LW         28(SP),R5
 2001368:	b4 20 bc 24 	LW         32(SP),R6      | LW         36(SP),R7
 200136c:	c4 28 cc 2c 	LW         40(SP),R8      | LW         44(SP),R9
 2001370:	d4 30 dc 34 	LW         48(SP),R10     | LW         52(SP),R11
 2001374:	e4 38 ea 3c 	LW         56(SP),R12     | ADD        $60,SP
 2001378:	7b 40 00 00 	RTN

0200137c <memset>:
 200137c:	e8 20 ad 00 	SUB        $32,SP         | SW         R5,(SP)
 2001380:	b5 04 bd 08 	SW         R6,$4(SP)      | SW         R7,$8(SP)
 2001384:	c5 0c cd 10 	SW         R8,$12(SP)     | SW         R9,$16(SP)
 2001388:	d5 14 dd 18 	SW         R10,$20(SP)    | SW         R11,$24(SP)
 200138c:	e5 1c a7 88 	SW         R12,$28(SP)    | MOV        R1,R4
 2001390:	20 40 00 07 	AND        $7,R4
 2001394:	78 88 00 38 	BZ         @0x020013d0    // 20013d0 <memset+0x54>
 2001398:	af 98 aa 7f 	MOV        R3,R5          | ADD        $-1,R5
 200139c:	1c 00 00 00 	CMP        $0,R3
 20013a0:	78 88 02 10 	BZ         @0x020015b4    // 20015b4 <memset+0x238>
 20013a4:	33 40 80 00 	MOV        R2,R6
 20013a8:	30 40 00 ff 	AND        $255,R6
 20013ac:	23 40 40 00 	MOV        R1,R4
 20013b0:	78 80 00 08 	BRA        @0x020013bc    // 20013bc <memset+0x40>
 20013b4:	aa 7f ab 7f 	ADD        $-1,R5         | CMP        $-1,R5
 20013b8:	78 88 01 f8 	BZ         @0x020015b4    // 20015b4 <memset+0x238>
 20013bc:	20 80 00 01 	ADD        $1,R4
 20013c0:	35 c5 3f ff 	SB         R6,$-1(R4)
 20013c4:	9f a0 99 07 	MOV        R4,R3          | AND        $7,R3
 20013c8:	78 ab ff e8 	BNZ        @0x020013b4    // 20013b4 <memset+0x38>
 20013cc:	78 80 00 04 	BRA        @0x020013d4    // 20013d4 <memset+0x58>
 20013d0:	a7 88 af 98 	MOV        R1,R4          | MOV        R3,R5
 20013d4:	2c 00 00 08 	CMP        $8,R5
 20013d8:	78 98 00 b4 	BC         @0x02001490    // 2001490 <memset+0x114>
 20013dc:	1b 40 80 00 	MOV        R2,R3
 20013e0:	18 40 00 ff 	AND        $255,R3
 20013e4:	33 40 c0 00 	MOV        R3,R6
 20013e8:	31 80 00 08 	LSL        $8,R6
 20013ec:	5b 41 80 00 	MOV        R6,R11
 20013f0:	58 c4 c0 00 	OR         R3,R11
 20013f4:	d6 00 c7 d8 	CLR        R10            | MOV        R11,R8
 20013f8:	41 40 00 10 	LSR        $16,R8
 20013fc:	4b 42 c0 00 	MOV        R11,R9
 2001400:	49 80 00 10 	LSL        $16,R9
 2001404:	48 c6 c0 00 	OR         R11,R9
 2001408:	40 c6 80 00 	OR         R10,R8
 200140c:	b7 c8 be 00 	MOV        R9,R6          | CLR        R7
 2001410:	38 c6 40 00 	OR         R9,R7
 2001414:	30 c6 00 00 	OR         R8,R6
 2001418:	2c 00 00 20 	CMP        $32,R5
 200141c:	78 98 00 48 	BC         @0x02001468    // 2001468 <memset+0xec>
 2001420:	9f a0 c7 a8 	MOV        R4,R3          | MOV        R5,R8
 2001424:	34 c4 c0 00 	SW         R6,(R3)
 2001428:	3c c4 c0 04 	SW         R7,$4(R3)
 200142c:	34 c4 c0 08 	SW         R6,$8(R3)
 2001430:	3c c4 c0 0c 	SW         R7,$12(R3)
 2001434:	34 c4 c0 10 	SW         R6,$16(R3)
 2001438:	3c c4 c0 14 	SW         R7,$20(R3)
 200143c:	18 80 00 20 	ADD        $32,R3
 2001440:	34 c4 ff f8 	SW         R6,$-8(R3)
 2001444:	bd 9c c2 60 	SW         R7,$-4(R3)     | ADD        $-32,R8
 2001448:	44 00 00 20 	CMP        $32,R8
 200144c:	78 bb ff d4 	BNC        @0x02001424    // 2001424 <memset+0xa8>
 2001450:	9f a8 9a 60 	MOV        R5,R3          | ADD        $-32,R3
 2001454:	99 60 9a 20 	AND        $-32,R3        | ADD        $32,R3
 2001458:	a2 98 a9 1f 	ADD        R3,R4          | AND        $31,R5
 200145c:	2c 00 00 08 	CMP        $8,R5
 2001460:	78 b8 00 04 	BNC        @0x02001468    // 2001468 <memset+0xec>
 2001464:	78 80 00 28 	BRA        @0x02001490    // 2001490 <memset+0x114>
 2001468:	c7 a0 9f a8 	MOV        R4,R8          | MOV        R5,R3
 200146c:	40 80 00 08 	ADD        $8,R8
 2001470:	34 c6 3f f8 	SW         R6,$-8(R8)
 2001474:	bd c4 9a 78 	SW         R7,$-4(R8)     | ADD        $-8,R3
 2001478:	1c 00 00 08 	CMP        $8,R3
 200147c:	78 bb ff ec 	BNC        @0x0200146c    // 200146c <memset+0xf0>
 2001480:	9f a8 9a 78 	MOV        R5,R3          | ADD        $-8,R3
 2001484:	99 78 9a 08 	AND        $-8,R3         | ADD        $8,R3
 2001488:	a9 07 a2 98 	AND        $7,R5          | ADD        R3,R4
 200148c:	78 80 00 00 	BRA        @0x02001490    // 2001490 <memset+0x114>
 2001490:	cf a8 ca 7f 	MOV        R5,R9          | ADD        $-1,R9
 2001494:	2c 00 00 00 	CMP        $0,R5
 2001498:	78 88 01 18 	BZ         @0x020015b4    // 20015b4 <memset+0x238>
 200149c:	10 40 00 ff 	AND        $255,R2
 20014a0:	1b 41 1f ff 	MOV        $-1+R4,R3
 20014a4:	19 03 ff ff 	XOR        $-1,R3
 20014a8:	99 03 ab 98 	AND        $3,R3          | CMP        R3,R5
 20014ac:	1b 59 40 00 	MOV.C      R5,R3
 20014b0:	2c 00 00 07 	CMP        $7,R5
 20014b4:	78 a8 00 10 	BNZ        @0x020014c8    // 20014c8 <memset+0x14c>
 20014b8:	bf c8 b7 a0 	MOV        R9,R7          | MOV        R4,R6
 20014bc:	1c 00 00 00 	CMP        $0,R3
 20014c0:	78 88 00 70 	BZ         @0x02001534    // 2001534 <memset+0x1b8>
 20014c4:	78 80 00 04 	BRA        @0x020014cc    // 20014cc <memset+0x150>
 20014c8:	1b 41 40 00 	MOV        R5,R3
 20014cc:	b7 a0 b2 01 	MOV        R4,R6          | ADD        $1,R6
 20014d0:	15 c5 00 00 	SB         R2,(R4)
 20014d4:	bf a8 ba 7e 	MOV        R5,R7          | ADD        $-2,R7
 20014d8:	1c 00 00 01 	CMP        $1,R3
 20014dc:	78 88 00 48 	BZ         @0x02001528    // 2001528 <memset+0x1ac>
 20014e0:	33 41 80 01 	MOV        $1+R6,R6
 20014e4:	15 c5 00 01 	SB         R2,$1(R4)
 20014e8:	bf bf 9b 02 	MOV        $-1+R7,R7      | CMP        $2,R3
 20014ec:	78 88 00 38 	BZ         @0x02001528    // 2001528 <memset+0x1ac>
 20014f0:	33 41 80 01 	MOV        $1+R6,R6
 20014f4:	15 c5 00 02 	SB         R2,$2(R4)
 20014f8:	bf bf 9b 03 	MOV        $-1+R7,R7      | CMP        $3,R3
 20014fc:	78 88 00 28 	BZ         @0x02001528    // 2001528 <memset+0x1ac>
 2001500:	33 41 80 01 	MOV        $1+R6,R6
 2001504:	15 c5 00 03 	SB         R2,$3(R4)
 2001508:	bf bf 9b 04 	MOV        $-1+R7,R7      | CMP        $4,R3
 200150c:	78 88 00 18 	BZ         @0x02001528    // 2001528 <memset+0x1ac>
 2001510:	33 41 80 01 	MOV        $1+R6,R6
 2001514:	15 c5 00 04 	SB         R2,$4(R4)
 2001518:	bf bf 9b 06 	MOV        $-1+R7,R7      | CMP        $6,R3
 200151c:	30 88 00 01 	ADD.Z      $1,R6
 2001520:	15 cd 00 05 	SB.Z       R2,$5(R4)
 2001524:	38 8b ff ff 	ADD.Z      $-1,R7
 2001528:	2c 04 c0 00 	CMP        R3,R5
 200152c:	78 a8 00 04 	BNZ        @0x02001534    // 2001534 <memset+0x1b8>
 2001530:	78 80 00 80 	BRA        @0x020015b4    // 20015b4 <memset+0x238>
 2001534:	a8 98 c7 a8 	SUB        R3,R5          | MOV        R5,R8
 2001538:	40 83 ff fc 	ADD        $-4,R8
 200153c:	41 40 00 02 	LSR        $2,R8
 2001540:	c2 01 d7 c0 	ADD        $1,R8          | MOV        R8,R10
 2001544:	51 80 00 02 	LSL        $2,R10
 2001548:	c8 98 cb 03 	SUB        R3,R9          | CMP        $3,R9
 200154c:	78 98 00 4c 	BC         @0x0200159c    // 200159c <memset+0x220>
 2001550:	63 40 80 00 	MOV        R2,R12
 2001554:	61 80 00 10 	LSL        $16,R12
 2001558:	4b 40 80 00 	MOV        R2,R9
 200155c:	49 80 00 18 	LSL        $24,R9
 2001560:	5b 40 80 00 	MOV        R2,R11
 2001564:	59 80 00 08 	LSL        $8,R11
 2001568:	48 c7 00 00 	OR         R12,R9
 200156c:	48 c6 c0 00 	OR         R11,R9
 2001570:	48 c4 80 00 	OR         R2,R9
 2001574:	a2 98 9e 00 	ADD        R3,R4          | CLR        R3
 2001578:	cd a0 9a 01 	SW         R9,(R4)        | ADD        $1,R3
 200157c:	a2 04 9b c0 	ADD        $4,R4          | CMP        R8,R3
 2001580:	78 9b ff f4 	BC         @0x02001578    // 2001578 <memset+0x1fc>
 2001584:	78 80 00 08 	BRA        @0x02001590    // 2001590 <memset+0x214>
 2001588:	15 c5 80 02 	SB         R2,$2(R6)
 200158c:	78 80 00 24 	BRA        @0x020015b4    // 20015b4 <memset+0x238>
 2001590:	b2 d0 b8 d0 	ADD        R10,R6         | SUB        R10,R7
 2001594:	2c 06 80 00 	CMP        R10,R5
 2001598:	78 88 00 18 	BZ         @0x020015b4    // 20015b4 <memset+0x238>
 200159c:	15 c5 80 00 	SB         R2,(R6)
 20015a0:	3c 00 00 00 	CMP        $0,R7
 20015a4:	78 88 00 0c 	BZ         @0x020015b4    // 20015b4 <memset+0x238>
 20015a8:	15 c5 80 01 	SB         R2,$1(R6)
 20015ac:	3c 00 00 01 	CMP        $1,R7
 20015b0:	78 ab ff d4 	BNZ        @0x02001588    // 2001588 <memset+0x20c>
 20015b4:	ac 00 b4 04 	LW         (SP),R5        | LW         4(SP),R6
 20015b8:	bc 08 c4 0c 	LW         8(SP),R7       | LW         12(SP),R8
 20015bc:	cc 10 d4 14 	LW         16(SP),R9      | LW         20(SP),R10
 20015c0:	dc 18 e4 1c 	LW         24(SP),R11     | LW         28(SP),R12
 20015c4:	ea 20 ff 80 	ADD        $32,SP         | RTN

020015c8 <__malloc_lock>:
 20015c8:	7b 40 00 00 	RTN

020015cc <__malloc_unlock>:
 20015cc:	7b 40 00 00 	RTN

020015d0 <_printf_r>:
 20015d0:	e8 04 85 00 	SUB        $4,SP          | SW         R0,(SP)
 20015d4:	23 43 40 08 	MOV        $8+SP,R4
 20015d8:	1c 87 40 04 	LW         4(SP),R3
 20015dc:	14 84 40 08 	LW         8(R1),R2
 20015e0:	87 fa fc f8 	JSR        0x02001888     // 2001888 <_vfprintf_r>
 20015e4:	02 00 18 88 
 20015e8:	84 00 ea 04 	LW         (SP),R0        | ADD        $4,SP
 20015ec:	7b 40 00 00 	RTN

020015f0 <printf>:
 20015f0:	e8 04 85 00 	SUB        $4,SP          | SW         R0,(SP)
 20015f4:	0a 03 00 40 	LDI        0x0200eab4,R1  // 200eab4 <_impure_ptr>
 20015f8:	0a 40 ea b4 
 20015fc:	0c 84 40 00 	LW         (R1),R1
 2001600:	23 43 40 08 	MOV        $8+SP,R4
 2001604:	1c 87 40 04 	LW         4(SP),R3
 2001608:	14 84 40 08 	LW         8(R1),R2
 200160c:	87 fa fc f8 	JSR        0x02001888     // 2001888 <_vfprintf_r>
 2001610:	02 00 18 88 
 2001614:	84 00 ea 04 	LW         (SP),R0        | ADD        $4,SP
 2001618:	7b 40 00 00 	RTN

0200161c <_puts_r>:
 200161c:	e8 28 85 1c 	SUB        $40,SP         | SW         R0,$28(SP)
 2001620:	ad 20 b5 24 	SW         R5,$32(SP)     | SW         R6,$36(SP)
 2001624:	b7 88 af 90 	MOV        R1,R6          | MOV        R2,R5
 2001628:	0b 40 80 00 	MOV        R2,R1
 200162c:	87 fa fc f8 	JSR        0x02001774     // 2001774 <strlen>
 2001630:	02 00 17 74 
 2001634:	ad 0c 8d 10 	SW         R5,$12(SP)     | SW         R1,$16(SP)
 2001638:	02 03 00 40 	LDI        0x0200e2b8,R0  // 200e2b8 <__call_exitprocs+0x294>
 200163c:	02 40 e2 b8 
 2001640:	85 14 86 01 	SW         R0,$20(SP)     | LDI        $1,R0
 2001644:	85 18 8a 80 	SW         R0,$24(SP)     | ADD        R0,R1
 2001648:	8d 08 8f e8 	SW         R1,$8(SP)      | MOV        SP,R1
 200164c:	8a 0c 8d 00 	ADD        $12,R1         | SW         R1,(SP)
 2001650:	86 02 85 04 	LDI        $2,R0          | SW         R0,$4(SP)
 2001654:	2c 85 80 08 	LW         8(R6),R5
 2001658:	0c 85 80 38 	LW         56(R6),R1
 200165c:	0c 00 00 00 	CMP        $0,R1
 2001660:	78 a8 00 0c 	BNZ        @0x02001670    // 2001670 <_puts_r+0x54>
 2001664:	0b 41 80 00 	MOV        R6,R1
 2001668:	87 fa fc f8 	JSR        0x02005e60     // 2005e60 <__sinit>
 200166c:	02 00 5e 60 
 2001670:	0d 05 40 0c 	LH         12(R5),R1
 2001674:	13 40 40 00 	MOV        R1,R2
 2001678:	10 40 20 00 	AND        $8192,R2
 200167c:	78 a8 00 18 	BNZ        @0x02001698    // 2001698 <_puts_r+0x7c>
 2001680:	14 85 40 68 	LW         104(R5),R2
 2001684:	08 c0 20 00 	OR         $8192,R1
 2001688:	0d 45 40 0c 	SH         R1,$12(R5)
 200168c:	0b 40 80 00 	MOV        R2,R1
 2001690:	08 43 df ff 	AND        $-8193,R1
 2001694:	0c c5 40 68 	SW         R1,$104(R5)
 2001698:	9f e8 97 a8 	MOV        SP,R3          | MOV        R5,R2
 200169c:	0b 41 80 00 	MOV        R6,R1
 20016a0:	87 fa fc f8 	JSR        0x0200653c     // 200653c <__sfvwrite_r>
 20016a4:	02 00 65 3c 
 20016a8:	0c 00 00 00 	CMP        $0,R1
 20016ac:	0a 08 00 00 	LDI.Z      0x0000000a,R1  // a <_rom+0xa>
 20016b0:	0a 48 00 0a 
 20016b4:	0a 2b ff ff 	BREV.NZ    $-1,R1
 20016b8:	84 1c ac 20 	LW         28(SP),R0      | LW         32(SP),R5
 20016bc:	b4 24 ea 28 	LW         36(SP),R6      | ADD        $40,SP
 20016c0:	7b 40 00 00 	RTN

020016c4 <puts>:
 20016c4:	e8 28 85 1c 	SUB        $40,SP         | SW         R0,$28(SP)
 20016c8:	ad 20 b5 24 	SW         R5,$32(SP)     | SW         R6,$36(SP)
 20016cc:	2b 40 40 00 	MOV        R1,R5
 20016d0:	12 03 00 40 	LDI        0x0200eab4,R2  // 200eab4 <_impure_ptr>
 20016d4:	12 40 ea b4 
 20016d8:	34 84 80 00 	LW         (R2),R6
 20016dc:	87 fa fc f8 	JSR        0x02001774     // 2001774 <strlen>
 20016e0:	02 00 17 74 
 20016e4:	ad 0c 8d 10 	SW         R5,$12(SP)     | SW         R1,$16(SP)
 20016e8:	02 03 00 40 	LDI        0x0200e2b8,R0  // 200e2b8 <__call_exitprocs+0x294>
 20016ec:	02 40 e2 b8 
 20016f0:	85 14 86 01 	SW         R0,$20(SP)     | LDI        $1,R0
 20016f4:	85 18 8a 80 	SW         R0,$24(SP)     | ADD        R0,R1
 20016f8:	8d 08 8f e8 	SW         R1,$8(SP)      | MOV        SP,R1
 20016fc:	8a 0c 8d 00 	ADD        $12,R1         | SW         R1,(SP)
 2001700:	86 02 85 04 	LDI        $2,R0          | SW         R0,$4(SP)
 2001704:	2c 85 80 08 	LW         8(R6),R5
 2001708:	0c 85 80 38 	LW         56(R6),R1
 200170c:	0c 00 00 00 	CMP        $0,R1
 2001710:	78 a8 00 0c 	BNZ        @0x02001720    // 2001720 <puts+0x5c>
 2001714:	0b 41 80 00 	MOV        R6,R1
 2001718:	87 fa fc f8 	JSR        0x02005e60     // 2005e60 <__sinit>
 200171c:	02 00 5e 60 
 2001720:	0d 05 40 0c 	LH         12(R5),R1
 2001724:	13 40 40 00 	MOV        R1,R2
 2001728:	10 40 20 00 	AND        $8192,R2
 200172c:	78 a8 00 18 	BNZ        @0x02001748    // 2001748 <puts+0x84>
 2001730:	14 85 40 68 	LW         104(R5),R2
 2001734:	08 c0 20 00 	OR         $8192,R1
 2001738:	0d 45 40 0c 	SH         R1,$12(R5)
 200173c:	0b 40 80 00 	MOV        R2,R1
 2001740:	08 43 df ff 	AND        $-8193,R1
 2001744:	0c c5 40 68 	SW         R1,$104(R5)
 2001748:	9f e8 97 a8 	MOV        SP,R3          | MOV        R5,R2
 200174c:	0b 41 80 00 	MOV        R6,R1
 2001750:	87 fa fc f8 	JSR        0x0200653c     // 200653c <__sfvwrite_r>
 2001754:	02 00 65 3c 
 2001758:	0c 00 00 00 	CMP        $0,R1
 200175c:	0a 08 00 00 	LDI.Z      0x0000000a,R1  // a <_rom+0xa>
 2001760:	0a 48 00 0a 
 2001764:	0a 2b ff ff 	BREV.NZ    $-1,R1
 2001768:	84 1c ac 20 	LW         28(SP),R0      | LW         32(SP),R5
 200176c:	b4 24 ea 28 	LW         36(SP),R6      | ADD        $40,SP
 2001770:	7b 40 00 00 	RTN

02001774 <strlen>:
 2001774:	e8 18 ad 00 	SUB        $24,SP         | SW         R5,(SP)
 2001778:	b5 04 bd 08 	SW         R6,$4(SP)      | SW         R7,$8(SP)
 200177c:	c5 0c cd 10 	SW         R8,$12(SP)     | SW         R9,$16(SP)
 2001780:	d5 14 97 88 	SW         R10,$20(SP)    | MOV        R1,R2
 2001784:	10 40 00 07 	AND        $7,R2
 2001788:	78 88 00 44 	BZ         @0x020017d0    // 20017d0 <strlen+0x5c>
 200178c:	15 84 40 00 	LB         (R1),R2
 2001790:	14 00 00 00 	CMP        $0,R2
 2001794:	78 88 00 1c 	BZ         @0x020017b4    // 20017b4 <strlen+0x40>
 2001798:	13 40 40 00 	MOV        R1,R2
 200179c:	78 80 00 1c 	BRA        @0x020017bc    // 20017bc <strlen+0x48>
 20017a0:	1d 84 80 00 	LB         (R2),R3
 20017a4:	1c 00 00 00 	CMP        $0,R3
 20017a8:	78 a8 00 10 	BNZ        @0x020017bc    // 20017bc <strlen+0x48>
 20017ac:	90 88 8f 90 	SUB        R1,R2          | MOV        R2,R1
 20017b0:	78 80 00 c4 	BRA        @0x02001878    // 2001878 <strlen+0x104>
 20017b4:	0b 40 80 00 	MOV        R2,R1
 20017b8:	78 80 00 bc 	BRA        @0x02001878    // 2001878 <strlen+0x104>
 20017bc:	92 01 9f 90 	ADD        $1,R2          | MOV        R2,R3
 20017c0:	18 40 00 07 	AND        $7,R3
 20017c4:	78 ab ff d8 	BNZ        @0x020017a0    // 20017a0 <strlen+0x2c>
 20017c8:	53 40 80 00 	MOV        R2,R10
 20017cc:	78 80 00 04 	BRA        @0x020017d4    // 20017d4 <strlen+0x60>
 20017d0:	53 40 40 00 	MOV        R1,R10
 20017d4:	24 86 80 00 	LW         (R10),R4
 20017d8:	2c 86 80 04 	LW         4(R10),R5
 20017dc:	42 01 7f 7f 	LDI        0xfefefefe,R8  // fefefefe <_top_of_stack+0xfbfefefe>
 20017e0:	42 40 fe fe 
 20017e4:	cf c1 97 a0 	MOV        $1+R8,R9       | MOV        R4,R2
 20017e8:	9f a8 9a c8 	MOV        R5,R3          | ADD        R9,R3
 20017ec:	10 98 00 01 	ADD.C      $1,R2
 20017f0:	10 86 00 00 	ADD        R8,R2
 20017f4:	29 03 ff ff 	XOR        $-1,R5
 20017f8:	21 03 ff ff 	XOR        $-1,R4
 20017fc:	99 a8 91 a0 	AND        R5,R3          | AND        R4,R2
 2001800:	32 01 01 01 	LDI        0x80808080,R6  // 80808080 <_top_of_stack+0x7d808080>
 2001804:	32 40 80 80 
 2001808:	bf b0 99 b8 	MOV        R6,R7          | AND        R7,R3
 200180c:	91 b0 93 00 	AND        R6,R2          | CMP        $0,R2
 2001810:	1c 08 00 00 	CMP.Z      $0,R3
 2001814:	78 a8 00 3c 	BNZ        @0x02001854    // 2001854 <strlen+0xe0>
 2001818:	d2 08 94 d0 	ADD        $8,R10         | LW         (R10),R2
 200181c:	1c 86 80 04 	LW         4(R10),R3
 2001820:	a7 90 af 98 	MOV        R2,R4          | MOV        R3,R5
 2001824:	28 86 40 00 	ADD        R9,R5
 2001828:	20 98 00 01 	ADD.C      $1,R4
 200182c:	20 86 00 00 	ADD        R8,R4
 2001830:	19 03 ff ff 	XOR        $-1,R3
 2001834:	11 03 ff ff 	XOR        $-1,R2
 2001838:	99 a8 91 a0 	AND        R5,R3          | AND        R4,R2
 200183c:	99 b8 91 b0 	AND        R7,R3          | AND        R6,R2
 2001840:	14 00 00 00 	CMP        $0,R2
 2001844:	1c 08 00 00 	CMP.Z      $0,R3
 2001848:	78 8b ff cc 	BZ         @0x02001818    // 2001818 <strlen+0xa4>
 200184c:	13 42 80 00 	MOV        R10,R2
 2001850:	78 80 00 04 	BRA        @0x02001858    // 2001858 <strlen+0xe4>
 2001854:	13 42 80 00 	MOV        R10,R2
 2001858:	1d 86 80 00 	LB         (R10),R3
 200185c:	1c 00 00 00 	CMP        $0,R3
 2001860:	78 88 00 10 	BZ         @0x02001874    // 2001874 <strlen+0x100>
 2001864:	10 80 00 01 	ADD        $1,R2
 2001868:	1d 84 80 00 	LB         (R2),R3
 200186c:	1c 00 00 00 	CMP        $0,R3
 2001870:	78 ab ff f0 	BNZ        @0x02001864    // 2001864 <strlen+0xf0>
 2001874:	90 88 8f 90 	SUB        R1,R2          | MOV        R2,R1
 2001878:	ac 00 b4 04 	LW         (SP),R5        | LW         4(SP),R6
 200187c:	bc 08 c4 0c 	LW         8(SP),R7       | LW         12(SP),R8
 2001880:	cc 10 d4 14 	LW         16(SP),R9      | LW         20(SP),R10
 2001884:	ea 18 ff 80 	ADD        $24,SP         | RTN

02001888 <_vfprintf_r>:
 2001888:	68 00 01 24 	SUB        $292,SP
 200188c:	04 c7 41 00 	SW         R0,$256(SP)
 2001890:	2c c7 41 04 	SW         R5,$260(SP)
 2001894:	34 c7 41 08 	SW         R6,$264(SP)
 2001898:	3c c7 41 0c 	SW         R7,$268(SP)
 200189c:	44 c7 41 10 	SW         R8,$272(SP)
 20018a0:	4c c7 41 14 	SW         R9,$276(SP)
 20018a4:	54 c7 41 18 	SW         R10,$280(SP)
 20018a8:	5c c7 41 1c 	SW         R11,$284(SP)
 20018ac:	64 c7 41 20 	SW         R12,$288(SP)
 20018b0:	cf 88 e7 90 	MOV        R1,R9          | MOV        R2,R12
 20018b4:	d7 98 a5 28 	MOV        R3,R10         | SW         R4,$40(SP)
 20018b8:	87 fa fc f8 	JSR        0x02006ae8     // 2006ae8 <_localeconv_r>
 20018bc:	02 00 6a e8 
 20018c0:	0c 84 40 00 	LW         (R1),R1
 20018c4:	0c c7 40 50 	SW         R1,$80(SP)
 20018c8:	87 fa fc f8 	JSR        0x02001774     // 2001774 <strlen>
 20018cc:	02 00 17 74 
 20018d0:	0c c7 40 5c 	SW         R1,$92(SP)
 20018d4:	4c 00 00 00 	CMP        $0,R9
 20018d8:	78 88 00 18 	BZ         @0x020018f4    // 20018f4 <_vfprintf_r+0x6c>
 20018dc:	0c 86 40 38 	LW         56(R9),R1
 20018e0:	0c 00 00 00 	CMP        $0,R1
 20018e4:	78 a8 00 0c 	BNZ        @0x020018f4    // 20018f4 <_vfprintf_r+0x6c>
 20018e8:	0b 42 40 00 	MOV        R9,R1
 20018ec:	87 fa fc f8 	JSR        0x02005e60     // 2005e60 <__sinit>
 20018f0:	02 00 5e 60 
 20018f4:	15 07 00 0c 	LH         12(R12),R2
 20018f8:	0b 40 80 00 	MOV        R2,R1
 20018fc:	08 40 ff ff 	AND        $65535,R1
 2001900:	1b 40 40 00 	MOV        R1,R3
 2001904:	18 40 20 00 	AND        $8192,R3
 2001908:	78 a8 00 20 	BNZ        @0x0200192c    // 200192c <_vfprintf_r+0xa4>
 200190c:	1c 87 00 68 	LW         104(R12),R3
 2001910:	0b 40 80 00 	MOV        R2,R1
 2001914:	08 c0 20 00 	OR         $8192,R1
 2001918:	0d 47 00 0c 	SH         R1,$12(R12)
 200191c:	13 40 c0 00 	MOV        R3,R2
 2001920:	10 43 df ff 	AND        $-8193,R2
 2001924:	14 c7 00 68 	SW         R2,$104(R12)
 2001928:	08 40 ff ff 	AND        $65535,R1
 200192c:	97 88 91 08 	MOV        R1,R2          | AND        $8,R2
 2001930:	78 88 00 0c 	BZ         @0x02001940    // 2001940 <_vfprintf_r+0xb8>
 2001934:	14 87 00 10 	LW         16(R12),R2
 2001938:	14 00 00 00 	CMP        $0,R2
 200193c:	78 a8 00 18 	BNZ        @0x02001958    // 2001958 <_vfprintf_r+0xd0>
 2001940:	97 e0 8f c8 	MOV        R12,R2         | MOV        R9,R1
 2001944:	87 fa fc f8 	JSR        0x020039f0     // 20039f0 <__swsetup_r>
 2001948:	02 00 39 f0 
 200194c:	0c 00 00 00 	CMP        $0,R1
 2001950:	78 a8 1e 44 	BNZ        @0x02003798    // 2003798 <_vfprintf_r+0x1f10>
 2001954:	0d 07 00 0c 	LH         12(R12),R1
 2001958:	89 1a 8b 0a 	AND        $26,R1         | CMP        $10,R1
 200195c:	78 a8 00 2c 	BNZ        @0x0200198c    // 200198c <_vfprintf_r+0x104>
 2001960:	0d 07 00 0e 	LH         14(R12),R1
 2001964:	09 80 00 10 	LSL        $16,R1
 2001968:	09 c0 00 10 	ASR        $16,R1
 200196c:	0c 00 00 00 	CMP        $0,R1
 2001970:	78 90 00 18 	BLT        @0x0200198c    // 200198c <_vfprintf_r+0x104>
 2001974:	a4 28 9f d0 	LW         40(SP),R4      | MOV        R10,R3
 2001978:	97 e0 8f c8 	MOV        R12,R2         | MOV        R9,R1
 200197c:	87 fa fc f8 	JSR        0x0200393c     // 200393c <__sbprintf>
 2001980:	02 00 39 3c 
 2001984:	0c c7 40 30 	SW         R1,$48(SP)
 2001988:	78 80 1f 60 	BRA        @0x020038ec    // 20038ec <_vfprintf_r+0x2064>
 200198c:	3b 43 40 00 	MOV        SP,R7
 2001990:	38 80 00 c0 	ADD        $192,R7
 2001994:	3c c7 40 18 	SW         R7,$24(SP)
 2001998:	3c c7 40 8c 	SW         R7,$140(SP)
 200199c:	0e 00 00 00 	CLR        R1
 20019a0:	0c c7 40 94 	SW         R1,$148(SP)
 20019a4:	0c c7 40 90 	SW         R1,$144(SP)
 20019a8:	0c c7 40 34 	SW         R1,$52(SP)
 20019ac:	0c c7 40 58 	SW         R1,$88(SP)
 20019b0:	0c c7 40 54 	SW         R1,$84(SP)
 20019b4:	5b 41 c0 00 	MOV        R7,R11
 20019b8:	0c c7 40 64 	SW         R1,$100(SP)
 20019bc:	0c c7 40 60 	SW         R1,$96(SP)
 20019c0:	0c c7 40 30 	SW         R1,$48(SP)
 20019c4:	3b 41 df cc 	MOV        $-52+R7,R7
 20019c8:	3c c7 40 14 	SW         R7,$20(SP)
 20019cc:	3b 41 df f1 	MOV        $-15+R7,R7
 20019d0:	3c c7 40 10 	SW         R7,$16(SP)
 20019d4:	3b 41 c0 0e 	MOV        $14+R7,R7
 20019d8:	bd 0c c7 e0 	SW         R7,$12(SP)     | MOV        R12,R8
 20019dc:	63 42 40 00 	MOV        R9,R12
 20019e0:	15 86 80 00 	LB         (R10),R2
 20019e4:	93 00 8e 00 	CMP        $0,R2          | CLR        R1
 20019e8:	0a 68 00 01 	LDILO.NZ   $1,R1
 20019ec:	93 25 9e 00 	CMP        $37,R2         | CLR        R3
 20019f0:	1a 68 00 01 	LDILO.NZ   $1,R3
 20019f4:	08 44 c0 00 	AND        R3,R1
 20019f8:	78 88 00 80 	BZ         @0x02001a7c    // 2001a7c <_vfprintf_r+0x1f4>
 20019fc:	2b 42 80 00 	MOV        R10,R5
 2001a00:	28 80 00 01 	ADD        $1,R5
 2001a04:	15 85 40 00 	LB         (R5),R2
 2001a08:	93 00 8e 00 	CMP        $0,R2          | CLR        R1
 2001a0c:	0a 68 00 01 	LDILO.NZ   $1,R1
 2001a10:	93 25 9e 00 	CMP        $37,R2         | CLR        R3
 2001a14:	1a 68 00 01 	LDILO.NZ   $1,R3
 2001a18:	08 44 c0 00 	AND        R3,R1
 2001a1c:	78 ab ff e0 	BNZ        @0x02001a00    // 2001a00 <_vfprintf_r+0x178>
 2001a20:	b7 a8 b0 d0 	MOV        R5,R6          | SUB        R10,R6
 2001a24:	78 88 00 58 	BZ         @0x02001a80    // 2001a80 <_vfprintf_r+0x1f8>
 2001a28:	54 c6 c0 00 	SW         R10,(R11)
 2001a2c:	34 c6 c0 04 	SW         R6,$4(R11)
 2001a30:	0c 87 40 94 	LW         148(SP),R1
 2001a34:	08 85 80 00 	ADD        R6,R1
 2001a38:	0c c7 40 94 	SW         R1,$148(SP)
 2001a3c:	0c 87 40 90 	LW         144(SP),R1
 2001a40:	08 80 00 01 	ADD        $1,R1
 2001a44:	0c c7 40 90 	SW         R1,$144(SP)
 2001a48:	da 08 8b 08 	ADD        $8,R11         | CMP        $8,R1
 2001a4c:	78 90 00 1c 	BLT        @0x02001a6c    // 2001a6c <_vfprintf_r+0x1e4>
 2001a50:	1b 43 40 8c 	MOV        $140+SP,R3
 2001a54:	97 c0 8f e0 	MOV        R8,R2          | MOV        R12,R1
 2001a58:	87 fa fc f8 	JSR        0x02009998     // 2009998 <__sprint_r>
 2001a5c:	02 00 99 98 
 2001a60:	0c 00 00 00 	CMP        $0,R1
 2001a64:	78 a8 1c 10 	BNZ        @0x02003678    // 2003678 <_vfprintf_r+0x1df0>
 2001a68:	5b 43 40 c0 	MOV        $192+SP,R11
 2001a6c:	bc 30 ba b0 	LW         48(SP),R7      | ADD        R6,R7
 2001a70:	3c c7 40 30 	SW         R7,$48(SP)
 2001a74:	15 85 40 00 	LB         (R5),R2
 2001a78:	78 80 00 04 	BRA        @0x02001a80    // 2001a80 <_vfprintf_r+0x1f8>
 2001a7c:	2b 42 80 00 	MOV        R10,R5
 2001a80:	14 00 00 00 	CMP        $0,R2
 2001a84:	78 88 1b c8 	BZ         @0x02003650    // 2003650 <_vfprintf_r+0x1dc8>
 2001a88:	97 a8 92 01 	MOV        R5,R2          | ADD        $1,R2
 2001a8c:	0e 00 00 00 	CLR        R1
 2001a90:	0d c7 40 71 	SB         R1,$113(SP)
 2001a94:	8e 00 a6 00 	CLR        R1             | CLR        R4
 2001a98:	b6 ff 8d 38 	LDI        $-1,R6         | SW         R1,$56(SP)
 2001a9c:	ce 00 ae 00 	CLR        R9             | CLR        R5
 2001aa0:	1e 00 00 01 	LDI        $1,R3
 2001aa4:	78 80 00 18 	BRA        @0x02001ac0    // 2001ac0 <_vfprintf_r+0x238>
 2001aa8:	8f 98 a6 2b 	MOV        R3,R1          | LDI        $43,R4
 2001aac:	78 80 00 0c 	BRA        @0x02001abc    // 2001abc <_vfprintf_r+0x234>
 2001ab0:	8f 98 a6 20 	MOV        R3,R1          | LDI        $32,R4
 2001ab4:	78 80 00 04 	BRA        @0x02001abc    // 2001abc <_vfprintf_r+0x234>
 2001ab8:	14 c7 40 28 	SW         R2,$40(SP)
 2001abc:	13 42 80 00 	MOV        R10,R2
 2001ac0:	d7 90 d2 01 	MOV        R2,R10         | ADD        $1,R10
 2001ac4:	3d 84 80 00 	LB         (R2),R7
 2001ac8:	3c 00 00 55 	CMP        $85,R7
 2001acc:	78 88 0a 80 	BZ         @0x02002550    // 2002550 <_vfprintf_r+0xcc8>
 2001ad0:	3c 00 00 56 	CMP        $86,R7
 2001ad4:	78 b0 00 90 	BGE        @0x02001b68    // 2001b68 <_vfprintf_r+0x2e0>
 2001ad8:	3c 00 00 30 	CMP        $48,R7
 2001adc:	78 88 01 fc 	BZ         @0x02001cdc    // 2001cdc <_vfprintf_r+0x454>
 2001ae0:	3c 00 00 31 	CMP        $49,R7
 2001ae4:	78 b0 00 40 	BGE        @0x02001b28    // 2001b28 <_vfprintf_r+0x2a0>
 2001ae8:	3c 00 00 2a 	CMP        $42,R7
 2001aec:	78 88 01 4c 	BZ         @0x02001c3c    // 2001c3c <_vfprintf_r+0x3b4>
 2001af0:	3c 00 00 2b 	CMP        $43,R7
 2001af4:	78 b0 00 14 	BGE        @0x02001b0c    // 2001b0c <_vfprintf_r+0x284>
 2001af8:	3c 00 00 20 	CMP        $32,R7
 2001afc:	78 88 01 28 	BZ         @0x02001c28    // 2001c28 <_vfprintf_r+0x3a0>
 2001b00:	3c 00 00 23 	CMP        $35,R7
 2001b04:	78 88 01 2c 	BZ         @0x02001c34    // 2001c34 <_vfprintf_r+0x3ac>
 2001b08:	78 80 0d fc 	BRA        @0x02002908    // 2002908 <_vfprintf_r+0x1080>
 2001b0c:	3c 00 00 2d 	CMP        $45,R7
 2001b10:	78 88 01 48 	BZ         @0x02001c5c    // 2001c5c <_vfprintf_r+0x3d4>
 2001b14:	3c 00 00 2e 	CMP        $46,R7
 2001b18:	78 88 01 48 	BZ         @0x02001c64    // 2001c64 <_vfprintf_r+0x3dc>
 2001b1c:	3c 00 00 2b 	CMP        $43,R7
 2001b20:	78 a8 0d e4 	BNZ        @0x02002908    // 2002908 <_vfprintf_r+0x1080>
 2001b24:	78 83 ff 80 	BRA        @0x02001aa8    // 2001aa8 <_vfprintf_r+0x220>
 2001b28:	3c 00 00 45 	CMP        $69,R7
 2001b2c:	78 88 03 38 	BZ         @0x02001e68    // 2001e68 <_vfprintf_r+0x5e0>
 2001b30:	3c 00 00 46 	CMP        $70,R7
 2001b34:	78 b0 00 14 	BGE        @0x02001b4c    // 2001b4c <_vfprintf_r+0x2c4>
 2001b38:	3c 00 00 3a 	CMP        $58,R7
 2001b3c:	78 90 01 a4 	BLT        @0x02001ce4    // 2001ce4 <_vfprintf_r+0x45c>
 2001b40:	3c 00 00 44 	CMP        $68,R7
 2001b44:	78 88 02 2c 	BZ         @0x02001d74    // 2001d74 <_vfprintf_r+0x4ec>
 2001b48:	78 80 0d bc 	BRA        @0x02002908    // 2002908 <_vfprintf_r+0x1080>
 2001b4c:	3c 00 00 4c 	CMP        $76,R7
 2001b50:	78 88 01 c8 	BZ         @0x02001d1c    // 2001d1c <_vfprintf_r+0x494>
 2001b54:	3c 00 00 4f 	CMP        $79,R7
 2001b58:	78 88 08 68 	BZ         @0x020023c4    // 20023c4 <_vfprintf_r+0xb3c>
 2001b5c:	3c 00 00 47 	CMP        $71,R7
 2001b60:	78 a8 0d a4 	BNZ        @0x02002908    // 2002908 <_vfprintf_r+0x1080>
 2001b64:	78 80 03 00 	BRA        @0x02001e68    // 2001e68 <_vfprintf_r+0x5e0>
 2001b68:	3c 00 00 6c 	CMP        $108,R7
 2001b6c:	78 88 01 bc 	BZ         @0x02001d2c    // 2001d2c <_vfprintf_r+0x4a4>
 2001b70:	3c 00 00 6d 	CMP        $109,R7
 2001b74:	78 b0 00 3c 	BGE        @0x02001bb4    // 2001bb4 <_vfprintf_r+0x32c>
 2001b78:	3c 00 00 68 	CMP        $104,R7
 2001b7c:	78 b0 00 24 	BGE        @0x02001ba4    // 2001ba4 <_vfprintf_r+0x31c>
 2001b80:	3c 00 00 65 	CMP        $101,R7
 2001b84:	78 b0 02 e0 	BGE        @0x02001e68    // 2001e68 <_vfprintf_r+0x5e0>
 2001b88:	3c 00 00 63 	CMP        $99,R7
 2001b8c:	78 88 01 ac 	BZ         @0x02001d3c    // 2001d3c <_vfprintf_r+0x4b4>
 2001b90:	3c 00 00 64 	CMP        $100,R7
 2001b94:	78 b0 00 64 	BGE        @0x02001bfc    // 2001bfc <_vfprintf_r+0x374>
 2001b98:	3c 00 00 58 	CMP        $88,R7
 2001b9c:	78 88 00 6c 	BZ         @0x02001c0c    // 2001c0c <_vfprintf_r+0x384>
 2001ba0:	78 80 0d 64 	BRA        @0x02002908    // 2002908 <_vfprintf_r+0x1080>
 2001ba4:	78 88 01 7c 	BZ         @0x02001d24    // 2001d24 <_vfprintf_r+0x49c>
 2001ba8:	3c 00 00 69 	CMP        $105,R7
 2001bac:	78 88 00 4c 	BZ         @0x02001bfc    // 2001bfc <_vfprintf_r+0x374>
 2001bb0:	78 80 0d 54 	BRA        @0x02002908    // 2002908 <_vfprintf_r+0x1080>
 2001bb4:	3c 00 00 71 	CMP        $113,R7
 2001bb8:	78 88 01 78 	BZ         @0x02001d34    // 2001d34 <_vfprintf_r+0x4ac>
 2001bbc:	3c 00 00 72 	CMP        $114,R7
 2001bc0:	78 b0 00 1c 	BGE        @0x02001be0    // 2001be0 <_vfprintf_r+0x358>
 2001bc4:	3c 00 00 6f 	CMP        $111,R7
 2001bc8:	78 88 07 fc 	BZ         @0x020023c8    // 20023c8 <_vfprintf_r+0xb40>
 2001bcc:	3c 00 00 70 	CMP        $112,R7
 2001bd0:	78 b0 08 60 	BGE        @0x02002434    // 2002434 <_vfprintf_r+0xbac>
 2001bd4:	3c 00 00 6e 	CMP        $110,R7
 2001bd8:	78 88 07 8c 	BZ         @0x02002368    // 2002368 <_vfprintf_r+0xae0>
 2001bdc:	78 80 0d 28 	BRA        @0x02002908    // 2002908 <_vfprintf_r+0x1080>
 2001be0:	3c 00 00 75 	CMP        $117,R7
 2001be4:	78 88 09 6c 	BZ         @0x02002554    // 2002554 <_vfprintf_r+0xccc>
 2001be8:	3c 00 00 78 	CMP        $120,R7
 2001bec:	78 88 09 d0 	BZ         @0x020025c0    // 20025c0 <_vfprintf_r+0xd38>
 2001bf0:	3c 00 00 73 	CMP        $115,R7
 2001bf4:	78 a8 0d 10 	BNZ        @0x02002908    // 2002908 <_vfprintf_r+0x1080>
 2001bf8:	78 80 08 7c 	BRA        @0x02002478    // 2002478 <_vfprintf_r+0xbf0>
 2001bfc:	0c 00 00 00 	CMP        $0,R1
 2001c00:	78 88 01 7c 	BZ         @0x02001d80    // 2001d80 <_vfprintf_r+0x4f8>
 2001c04:	25 c7 40 71 	SB         R4,$113(SP)
 2001c08:	78 80 01 74 	BRA        @0x02001d80    // 2001d80 <_vfprintf_r+0x4f8>
 2001c0c:	0c 00 00 00 	CMP        $0,R1
 2001c10:	25 ef 40 71 	SB.NZ      R4,$113(SP)
 2001c14:	1e 00 00 58 	LDI        $88,R3
 2001c18:	12 03 00 40 	LDI        0x0200e2cc,R2  // 200e2cc <__call_exitprocs+0x2a8>
 2001c1c:	12 40 e2 cc 
 2001c20:	14 c7 40 64 	SW         R2,$100(SP)
 2001c24:	78 80 09 b0 	BRA        @0x020025d8    // 20025d8 <_vfprintf_r+0xd50>
 2001c28:	24 00 00 00 	CMP        $0,R4
 2001c2c:	78 8b fe 80 	BZ         @0x02001ab0    // 2001ab0 <_vfprintf_r+0x228>
 2001c30:	78 83 fe 88 	BRA        @0x02001abc    // 2001abc <_vfprintf_r+0x234>
 2001c34:	48 c0 00 01 	OR         $1,R9
 2001c38:	78 83 fe 80 	BRA        @0x02001abc    // 2001abc <_vfprintf_r+0x234>
 2001c3c:	94 28 92 04 	LW         40(SP),R2      | ADD        $4,R2
 2001c40:	bc 28 bc b8 	LW         40(SP),R7      | LW         (R7),R7
 2001c44:	bd 38 bb 00 	SW         R7,$56(SP)     | CMP        $0,R7
 2001c48:	78 b3 fe 6c 	BGE        @0x02001ab8    // 2001ab8 <_vfprintf_r+0x230>
 2001c4c:	3b 41 df ff 	MOV        $-1+R7,R7
 2001c50:	39 03 ff ff 	XOR        $-1,R7
 2001c54:	bd 38 95 28 	SW         R7,$56(SP)     | SW         R2,$40(SP)
 2001c58:	78 80 00 00 	BRA        @0x02001c5c    // 2001c5c <_vfprintf_r+0x3d4>
 2001c5c:	48 c0 00 04 	OR         $4,R9
 2001c60:	78 83 fe 58 	BRA        @0x02001abc    // 2001abc <_vfprintf_r+0x234>
 2001c64:	b7 d0 b2 01 	MOV        R10,R6         | ADD        $1,R6
 2001c68:	3d 86 80 00 	LB         (R10),R7
 2001c6c:	3c 00 00 2a 	CMP        $42,R7
 2001c70:	78 88 00 14 	BZ         @0x02001c88    // 2001c88 <_vfprintf_r+0x400>
 2001c74:	97 b8 92 50 	MOV        R7,R2          | ADD        $-48,R2
 2001c78:	14 00 00 0a 	CMP        $10,R2
 2001c7c:	78 98 00 28 	BC         @0x02001ca8    // 2001ca8 <_vfprintf_r+0x420>
 2001c80:	d7 b0 b7 a8 	MOV        R6,R10         | MOV        R5,R6
 2001c84:	78 83 fe 40 	BRA        @0x02001ac8    // 2001ac8 <_vfprintf_r+0x240>
 2001c88:	97 b0 bc 28 	MOV        R6,R2          | LW         40(SP),R7
 2001c8c:	b4 b8 be ff 	LW         (R7),R6        | LDI        $-1,R7
 2001c90:	34 05 c0 00 	CMP        R7,R6
 2001c94:	33 51 c0 00 	MOV.LT     R7,R6
 2001c98:	3c 87 40 28 	LW         40(SP),R7
 2001c9c:	3b 41 c0 04 	MOV        $4+R7,R7
 2001ca0:	bd 28 d7 90 	SW         R7,$40(SP)     | MOV        R2,R10
 2001ca4:	78 83 fe 14 	BRA        @0x02001abc    // 2001abc <_vfprintf_r+0x234>
 2001ca8:	d7 b0 bf a8 	MOV        R6,R10         | MOV        R5,R7
 2001cac:	33 41 c0 00 	MOV        R7,R6
 2001cb0:	31 80 00 02 	LSL        $2,R6
 2001cb4:	b2 b8 b2 b0 	ADD        R7,R6          | ADD        R6,R6
 2001cb8:	bf b0 ba 90 	MOV        R6,R7          | ADD        R2,R7
 2001cbc:	50 80 00 01 	ADD        $1,R10
 2001cc0:	35 86 bf ff 	LB         -1(R10),R6
 2001cc4:	97 b0 92 50 	MOV        R6,R2          | ADD        $-48,R2
 2001cc8:	14 00 00 0a 	CMP        $10,R2
 2001ccc:	78 9b ff dc 	BC         @0x02001cac    // 2001cac <_vfprintf_r+0x424>
 2001cd0:	97 b8 bf b0 	MOV        R7,R2          | MOV        R6,R7
 2001cd4:	33 40 80 00 	MOV        R2,R6
 2001cd8:	78 83 fd ec 	BRA        @0x02001ac8    // 2001ac8 <_vfprintf_r+0x240>
 2001cdc:	48 c0 00 80 	OR         $128,R9
 2001ce0:	78 83 fd d8 	BRA        @0x02001abc    // 2001abc <_vfprintf_r+0x234>
 2001ce4:	96 00 95 38 	CLR        R2             | SW         R2,$56(SP)
 2001ce8:	13 41 df d0 	MOV        $-48+R7,R2
 2001cec:	cd 1c ce 00 	SW         R9,$28(SP)     | CLR        R9
 2001cf0:	3b 42 40 00 	MOV        R9,R7
 2001cf4:	39 80 00 02 	LSL        $2,R7
 2001cf8:	ba c8 ba b8 	ADD        R9,R7          | ADD        R7,R7
 2001cfc:	cf 90 ca b8 	MOV        R2,R9          | ADD        R7,R9
 2001d00:	50 80 00 01 	ADD        $1,R10
 2001d04:	3d 86 bf ff 	LB         -1(R10),R7
 2001d08:	97 b8 92 50 	MOV        R7,R2          | ADD        $-48,R2
 2001d0c:	14 00 00 0a 	CMP        $10,R2
 2001d10:	78 9b ff dc 	BC         @0x02001cf0    // 2001cf0 <_vfprintf_r+0x468>
 2001d14:	cd 38 cc 1c 	SW         R9,$56(SP)     | LW         28(SP),R9
 2001d18:	78 83 fd ac 	BRA        @0x02001ac8    // 2001ac8 <_vfprintf_r+0x240>
 2001d1c:	48 c0 00 08 	OR         $8,R9
 2001d20:	78 83 fd 98 	BRA        @0x02001abc    // 2001abc <_vfprintf_r+0x234>
 2001d24:	48 c0 00 40 	OR         $64,R9
 2001d28:	78 83 fd 90 	BRA        @0x02001abc    // 2001abc <_vfprintf_r+0x234>
 2001d2c:	48 c0 00 10 	OR         $16,R9
 2001d30:	78 83 fd 88 	BRA        @0x02001abc    // 2001abc <_vfprintf_r+0x234>
 2001d34:	48 c0 00 10 	OR         $16,R9
 2001d38:	78 83 fd 80 	BRA        @0x02001abc    // 2001abc <_vfprintf_r+0x234>
 2001d3c:	9c 28 8c 98 	LW         40(SP),R3      | LW         (R3),R1
 2001d40:	0d c7 40 98 	SB         R1,$152(SP)
 2001d44:	26 00 00 00 	CLR        R4
 2001d48:	25 c7 40 71 	SB         R4,$113(SP)
 2001d4c:	1b 40 c0 04 	MOV        $4+R3,R3
 2001d50:	9d 28 cd 20 	SW         R3,$40(SP)     | SW         R9,$32(SP)
 2001d54:	ae 00 ad 2c 	CLR        R5             | SW         R5,$44(SP)
 2001d58:	ae 01 ad 1c 	LDI        $1,R5          | SW         R5,$28(SP)
 2001d5c:	ad 24 b6 00 	SW         R5,$36(SP)     | CLR        R6
 2001d60:	34 c7 40 4c 	SW         R6,$76(SP)
 2001d64:	2b 43 40 00 	MOV        SP,R5
 2001d68:	28 80 00 98 	ADD        $152,R5
 2001d6c:	2c c7 40 48 	SW         R5,$72(SP)
 2001d70:	78 80 0b e4 	BRA        @0x02002958    // 2002958 <_vfprintf_r+0x10d0>
 2001d74:	0c 00 00 00 	CMP        $0,R1
 2001d78:	25 ef 40 71 	SB.NZ      R4,$113(SP)
 2001d7c:	48 c0 00 10 	OR         $16,R9
 2001d80:	8f c8 89 10 	MOV        R9,R1          | AND        $16,R1
 2001d84:	78 88 00 28 	BZ         @0x02001db0    // 2001db0 <_vfprintf_r+0x528>
 2001d88:	94 28 8c 90 	LW         40(SP),R2      | LW         (R2),R1
 2001d8c:	14 84 80 04 	LW         4(R2),R2
 2001d90:	0c c7 40 68 	SW         R1,$104(SP)
 2001d94:	14 c7 40 6c 	SW         R2,$108(SP)
 2001d98:	0c c7 40 40 	SW         R1,$64(SP)
 2001d9c:	14 c7 40 44 	SW         R2,$68(SP)
 2001da0:	1c 87 40 28 	LW         40(SP),R3
 2001da4:	1b 40 c0 08 	MOV        $8+R3,R3
 2001da8:	1c c7 40 28 	SW         R3,$40(SP)
 2001dac:	78 80 00 70 	BRA        @0x02001e20    // 2001e20 <_vfprintf_r+0x598>
 2001db0:	0b 42 40 00 	MOV        R9,R1
 2001db4:	08 40 00 40 	AND        $64,R1
 2001db8:	78 88 00 38 	BZ         @0x02001df4    // 2001df4 <_vfprintf_r+0x56c>
 2001dbc:	a4 28 8c a0 	LW         40(SP),R4      | LW         (R4),R1
 2001dc0:	09 80 00 10 	LSL        $16,R1
 2001dc4:	09 c0 00 10 	ASR        $16,R1
 2001dc8:	0c c7 40 44 	SW         R1,$68(SP)
 2001dcc:	13 40 40 00 	MOV        R1,R2
 2001dd0:	11 c0 00 1f 	ASR        $31,R2
 2001dd4:	14 c7 40 40 	SW         R2,$64(SP)
 2001dd8:	0c c7 40 6c 	SW         R1,$108(SP)
 2001ddc:	14 c7 40 68 	SW         R2,$104(SP)
 2001de0:	23 41 00 04 	MOV        $4+R4,R4
 2001de4:	24 c7 40 28 	SW         R4,$40(SP)
 2001de8:	0c 87 40 68 	LW         104(SP),R1
 2001dec:	14 87 40 6c 	LW         108(SP),R2
 2001df0:	78 80 00 2c 	BRA        @0x02001e20    // 2001e20 <_vfprintf_r+0x598>
 2001df4:	ac 28 8c a8 	LW         40(SP),R5      | LW         (R5),R1
 2001df8:	0c c7 40 44 	SW         R1,$68(SP)
 2001dfc:	13 40 40 00 	MOV        R1,R2
 2001e00:	11 c0 00 1f 	ASR        $31,R2
 2001e04:	14 c7 40 40 	SW         R2,$64(SP)
 2001e08:	0c c7 40 6c 	SW         R1,$108(SP)
 2001e0c:	14 c7 40 68 	SW         R2,$104(SP)
 2001e10:	2b 41 40 04 	MOV        $4+R5,R5
 2001e14:	2c c7 40 28 	SW         R5,$40(SP)
 2001e18:	0c 87 40 68 	LW         104(SP),R1
 2001e1c:	14 87 40 6c 	LW         108(SP),R2
 2001e20:	0c 00 00 00 	CMP        $0,R1
 2001e24:	78 90 00 0c 	BLT        @0x02001e34    // 2001e34 <_vfprintf_r+0x5ac>
 2001e28:	2d 87 40 71 	LB         113(SP),R5
 2001e2c:	ad 2c 96 01 	SW         R5,$44(SP)     | LDI        $1,R2
 2001e30:	78 80 08 54 	BRA        @0x02002688    // 2002688 <_vfprintf_r+0xe00>
 2001e34:	0c 87 40 40 	LW         64(SP),R1
 2001e38:	14 87 40 44 	LW         68(SP),R2
 2001e3c:	11 03 ff ff 	XOR        $-1,R2
 2001e40:	09 03 ff ff 	XOR        $-1,R1
 2001e44:	10 80 00 01 	ADD        $1,R2
 2001e48:	08 98 00 01 	ADD.C      $1,R1
 2001e4c:	0c c7 40 40 	SW         R1,$64(SP)
 2001e50:	14 c7 40 44 	SW         R2,$68(SP)
 2001e54:	16 00 00 2d 	LDI        $45,R2
 2001e58:	15 c7 40 71 	SB         R2,$113(SP)
 2001e5c:	ae 2d ad 2c 	LDI        $45,R5         | SW         R5,$44(SP)
 2001e60:	16 00 00 01 	LDI        $1,R2
 2001e64:	78 80 08 20 	BRA        @0x02002688    // 2002688 <_vfprintf_r+0xe00>
 2001e68:	0c 00 00 00 	CMP        $0,R1
 2001e6c:	25 ef 40 71 	SB.NZ      R4,$113(SP)
 2001e70:	8f c8 89 08 	MOV        R9,R1          | AND        $8,R1
 2001e74:	78 88 00 24 	BZ         @0x02001e9c    // 2001e9c <_vfprintf_r+0x614>
 2001e78:	84 28 94 80 	LW         40(SP),R0      | LW         (R0),R2
 2001e7c:	0c 84 00 04 	LW         4(R0),R1
 2001e80:	03 40 00 08 	MOV        $8+R0,R0
 2001e84:	04 c7 40 28 	SW         R0,$40(SP)
 2001e88:	14 c7 40 58 	SW         R2,$88(SP)
 2001e8c:	0c c7 40 54 	SW         R1,$84(SP)
 2001e90:	2b 40 80 00 	MOV        R2,R5
 2001e94:	14 87 40 54 	LW         84(SP),R2
 2001e98:	78 80 00 20 	BRA        @0x02001ebc    // 2001ebc <_vfprintf_r+0x634>
 2001e9c:	8c 28 8c 88 	LW         40(SP),R1      | LW         (R1),R1
 2001ea0:	0c c7 40 58 	SW         R1,$88(SP)
 2001ea4:	14 87 40 28 	LW         40(SP),R2
 2001ea8:	14 84 80 04 	LW         4(R2),R2
 2001eac:	14 c7 40 54 	SW         R2,$84(SP)
 2001eb0:	1c 87 40 28 	LW         40(SP),R3
 2001eb4:	1b 40 c0 08 	MOV        $8+R3,R3
 2001eb8:	9d 28 af 88 	SW         R3,$40(SP)     | MOV        R1,R5
 2001ebc:	0a 03 ff fe 	BREV       $-2,R1
 2001ec0:	28 44 40 00 	AND        R1,R5
 2001ec4:	1a 03 f7 fe 	BREV       $-2050,R3
 2001ec8:	a6 ff 8f a8 	LDI        $-1,R4         | MOV        R5,R1
 2001ecc:	87 fa fc f8 	JSR        0x0200d6f4     // 200d6f4 <__unorddf2>
 2001ed0:	02 00 d6 f4 
 2001ed4:	8d 1c 8b 00 	SW         R1,$28(SP)     | CMP        $0,R1
 2001ed8:	78 a8 18 c4 	BNZ        @0x020037a0    // 20037a0 <_vfprintf_r+0x1f18>
 2001edc:	1a 03 f7 fe 	BREV       $-2050,R3
 2001ee0:	a6 ff 8f a8 	LDI        $-1,R4         | MOV        R5,R1
 2001ee4:	14 87 40 54 	LW         84(SP),R2
 2001ee8:	87 fa fc f8 	JSR        0x0200d690     // 200d690 <__ledf2>
 2001eec:	02 00 d6 90 
 2001ef0:	0c 00 00 01 	CMP        $1,R1
 2001ef4:	78 90 18 a8 	BLT        @0x020037a0    // 20037a0 <_vfprintf_r+0x1f18>
 2001ef8:	78 80 18 c4 	BRA        @0x020037c0    // 20037c0 <_vfprintf_r+0x1f38>
 2001efc:	26 00 00 2d 	LDI        $45,R4
 2001f00:	25 c7 40 71 	SB         R4,$113(SP)
 2001f04:	ae 2d ad 2c 	LDI        $45,R5         | SW         R5,$44(SP)
 2001f08:	3c 00 00 48 	CMP        $72,R7
 2001f0c:	2a 13 00 40 	LDI.LT     0x0200e2bc,R5  // 200e2bc <__call_exitprocs+0x298>
 2001f10:	2a 50 e2 bc 
 2001f14:	2a 33 00 40 	LDI.GE     0x0200e2c0,R5  // 200e2c0 <__call_exitprocs+0x29c>
 2001f18:	2a 70 e2 c0 
 2001f1c:	2c c7 40 48 	SW         R5,$72(SP)
 2001f20:	48 43 ff 7f 	AND        $-129,R9
 2001f24:	cd 20 ae 03 	SW         R9,$32(SP)     | LDI        $3,R5
 2001f28:	ad 1c ad 24 	SW         R5,$28(SP)     | SW         R5,$36(SP)
 2001f2c:	36 00 00 00 	CLR        R6
 2001f30:	34 c7 40 4c 	SW         R6,$76(SP)
 2001f34:	2c 87 40 2c 	LW         44(SP),R5
 2001f38:	78 80 0a 0c 	BRA        @0x02002948    // 2002948 <_vfprintf_r+0x10c0>
 2001f3c:	3c 00 00 48 	CMP        $72,R7
 2001f40:	2a 13 00 40 	LDI.LT     0x0200e2c4,R5  // 200e2c4 <__call_exitprocs+0x2a0>
 2001f44:	2a 50 e2 c4 
 2001f48:	2a 33 00 40 	LDI.GE     0x0200e2c8,R5  // 200e2c8 <__call_exitprocs+0x2a4>
 2001f4c:	2a 70 e2 c8 
 2001f50:	2c c7 40 48 	SW         R5,$72(SP)
 2001f54:	48 43 ff 7f 	AND        $-129,R9
 2001f58:	4c c7 40 20 	SW         R9,$32(SP)
 2001f5c:	2d 87 40 71 	LB         113(SP),R5
 2001f60:	ad 2c ae 03 	SW         R5,$44(SP)     | LDI        $3,R5
 2001f64:	ad 1c ad 24 	SW         R5,$28(SP)     | SW         R5,$36(SP)
 2001f68:	36 00 00 00 	CLR        R6
 2001f6c:	34 c7 40 4c 	SW         R6,$76(SP)
 2001f70:	2c 87 40 2c 	LW         44(SP),R5
 2001f74:	78 80 09 d0 	BRA        @0x02002948    // 2002948 <_vfprintf_r+0x10c0>
 2001f78:	34 03 ff ff 	CMP        $-1,R6
 2001f7c:	78 a8 00 0c 	BNZ        @0x02001f8c    // 2001f8c <_vfprintf_r+0x704>
 2001f80:	87 b8 81 5f 	MOV        R7,R0          | AND        $-33,R0
 2001f84:	85 1c b6 06 	SW         R0,$28(SP)     | LDI        $6,R6
 2001f88:	78 80 00 30 	BRA        @0x02001fbc    // 2001fbc <_vfprintf_r+0x734>
 2001f8c:	97 b8 91 5f 	MOV        R7,R2          | AND        $-33,R2
 2001f90:	14 c7 40 1c 	SW         R2,$28(SP)
 2001f94:	14 00 00 47 	CMP        $71,R2
 2001f98:	13 40 40 00 	MOV        R1,R2
 2001f9c:	12 08 00 00 	LDI.Z      0x00000001,R2  // 1 <_rom+0x1>
 2001fa0:	12 48 00 01 
 2001fa4:	b3 00 9f 88 	CMP        $0,R6          | MOV        R1,R3
 2001fa8:	1a 08 00 00 	LDI.Z      0x00000001,R3  // 1 <_rom+0x1>
 2001fac:	1a 48 00 01 
 2001fb0:	10 44 c0 00 	AND        R3,R2
 2001fb4:	10 40 00 ff 	AND        $255,R2
 2001fb8:	78 a8 19 08 	BNZ        @0x020038c4    // 20038c4 <_vfprintf_r+0x203c>
 2001fbc:	1b 42 40 00 	MOV        R9,R3
 2001fc0:	18 c0 01 00 	OR         $256,R3
 2001fc4:	1c c7 40 20 	SW         R3,$32(SP)
 2001fc8:	24 87 40 58 	LW         88(SP),R4
 2001fcc:	87 a0 a3 00 	MOV        R4,R0          | CMP        $0,R4
 2001fd0:	78 90 00 0c 	BLT        @0x02001fe0    // 2001fe0 <_vfprintf_r+0x758>
 2001fd4:	78 80 00 1c 	BRA        @0x02001ff4    // 2001ff4 <_vfprintf_r+0x76c>
 2001fd8:	ae 47 ad 1c 	LDI        $71,R5         | SW         R5,$28(SP)
 2001fdc:	b6 01 87 98 	LDI        $1,R6          | MOV        R3,R0
 2001fe0:	0a 00 00 01 	BREV       $1,R1
 2001fe4:	01 04 40 00 	XOR        R1,R0
 2001fe8:	85 24 8e 2d 	SW         R0,$36(SP)     | LDI        $45,R1
 2001fec:	0c c7 40 3c 	SW         R1,$60(SP)
 2001ff0:	78 80 00 08 	BRA        @0x02001ffc    // 2001ffc <_vfprintf_r+0x774>
 2001ff4:	a5 24 9e 00 	SW         R4,$36(SP)     | CLR        R3
 2001ff8:	1c c7 40 3c 	SW         R3,$60(SP)
 2001ffc:	24 87 40 1c 	LW         28(SP),R4
 2002000:	24 00 00 46 	CMP        $70,R4
 2002004:	78 88 18 34 	BZ         @0x0200383c    // 200383c <_vfprintf_r+0x1fb4>
 2002008:	24 00 00 45 	CMP        $69,R4
 200200c:	78 a8 17 ec 	BNZ        @0x020037fc    // 20037fc <_vfprintf_r+0x1f74>
 2002010:	af b0 aa 01 	MOV        R6,R5          | ADD        $1,R5
 2002014:	ad 2c 8f e8 	SW         R5,$44(SP)     | MOV        SP,R1
 2002018:	08 80 00 84 	ADD        $132,R1
 200201c:	0c c7 40 08 	SW         R1,$8(SP)
 2002020:	0b 40 5f f4 	MOV        $-12+R1,R1
 2002024:	8d 04 8f 8c 	SW         R1,$4(SP)      | MOV        $-4+R1,R1
 2002028:	8d 00 a6 02 	SW         R1,(SP)        | LDI        $2,R4
 200202c:	14 87 40 24 	LW         36(SP),R2
 2002030:	1c 87 40 54 	LW         84(SP),R3
 2002034:	0b 43 00 00 	MOV        R12,R1
 2002038:	87 fa fc f8 	JSR        0x02003d2c     // 2003d2c <_dtoa_r>
 200203c:	02 00 3d 2c 
 2002040:	0c c7 40 48 	SW         R1,$72(SP)
 2002044:	af 88 84 2c 	MOV        R1,R5          | LW         44(SP),R0
 2002048:	78 80 17 a8 	BRA        @0x020037f4    // 20037f4 <_vfprintf_r+0x1f6c>
 200204c:	0c 87 40 84 	LW         132(SP),R1
 2002050:	78 80 00 68 	BRA        @0x020020bc    // 20020bc <_vfprintf_r+0x834>
 2002054:	0c 87 40 74 	LW         116(SP),R1
 2002058:	78 80 00 08 	BRA        @0x02002064    // 2002064 <_vfprintf_r+0x7dc>
 200205c:	8e 01 88 b0 	LDI        $1,R1          | SUB        R6,R1
 2002060:	0c c7 40 74 	SW         R1,$116(SP)
 2002064:	08 85 80 00 	ADD        R6,R1
 2002068:	2c 87 40 48 	LW         72(SP),R5
 200206c:	28 84 40 00 	ADD        R1,R5
 2002070:	9e 00 a6 00 	CLR        R3             | CLR        R4
 2002074:	0c 87 40 24 	LW         36(SP),R1
 2002078:	14 87 40 54 	LW         84(SP),R2
 200207c:	87 fa fc f8 	JSR        0x0200d500     // 200d500 <__eqdf2>
 2002080:	02 00 d5 00 
 2002084:	0c 00 00 00 	CMP        $0,R1
 2002088:	78 88 00 2c 	BZ         @0x020020b8    // 20020b8 <_vfprintf_r+0x830>
 200208c:	0c 87 40 84 	LW         132(SP),R1
 2002090:	0c 05 40 00 	CMP        R5,R1
 2002094:	78 b8 00 24 	BNC        @0x020020bc    // 20020bc <_vfprintf_r+0x834>
 2002098:	97 88 92 01 	MOV        R1,R2          | ADD        $1,R2
 200209c:	14 c7 40 84 	SW         R2,$132(SP)
 20020a0:	16 00 00 30 	LDI        $48,R2
 20020a4:	15 c4 40 00 	SB         R2,(R1)
 20020a8:	0c 87 40 84 	LW         132(SP),R1
 20020ac:	0c 05 40 00 	CMP        R5,R1
 20020b0:	78 9b ff e4 	BC         @0x02002098    // 2002098 <_vfprintf_r+0x810>
 20020b4:	78 80 00 04 	BRA        @0x020020bc    // 20020bc <_vfprintf_r+0x834>
 20020b8:	0b 41 40 00 	MOV        R5,R1
 20020bc:	2c 87 40 48 	LW         72(SP),R5
 20020c0:	88 a8 8d 34 	SUB        R5,R1          | SW         R1,$52(SP)
 20020c4:	0c 87 40 1c 	LW         28(SP),R1
 20020c8:	0c 00 00 47 	CMP        $71,R1
 20020cc:	78 a8 00 28 	BNZ        @0x020020f8    // 20020f8 <_vfprintf_r+0x870>
 20020d0:	2c 87 40 74 	LW         116(SP),R5
 20020d4:	2c c7 40 4c 	SW         R5,$76(SP)
 20020d8:	ab 7d 8e 00 	CMP        $-3,R5         | CLR        R1
 20020dc:	0a 50 00 01 	LDILO.LT   $1,R1
 20020e0:	34 05 40 00 	CMP        R5,R6
 20020e4:	08 d0 00 01 	OR.LT      $1,R1
 20020e8:	0c 00 00 00 	CMP        $0,R1
 20020ec:	78 88 01 bc 	BZ         @0x020022ac    // 20022ac <_vfprintf_r+0xa24>
 20020f0:	ba 7e 8f a8 	ADD        $-2,R7         | MOV        R5,R1
 20020f4:	78 80 00 14 	BRA        @0x0200210c    // 200210c <_vfprintf_r+0x884>
 20020f8:	3c 00 00 66 	CMP        $102,R7
 20020fc:	78 b0 01 28 	BGE        @0x02002228    // 2002228 <_vfprintf_r+0x9a0>
 2002100:	2c 87 40 74 	LW         116(SP),R5
 2002104:	2c c7 40 4c 	SW         R5,$76(SP)
 2002108:	0b 41 40 00 	MOV        R5,R1
 200210c:	08 83 ff ff 	ADD        $-1,R1
 2002110:	0c c7 40 74 	SW         R1,$116(SP)
 2002114:	3d c7 40 7d 	SB         R7,$125(SP)
 2002118:	0c 00 00 00 	CMP        $0,R1
 200211c:	78 b0 00 14 	BGE        @0x02002134    // 2002134 <_vfprintf_r+0x8ac>
 2002120:	0e 00 00 01 	LDI        $1,R1
 2002124:	2c 87 40 4c 	LW         76(SP),R5
 2002128:	88 a8 96 2d 	SUB        R5,R1          | LDI        $45,R2
 200212c:	15 c7 40 7e 	SB         R2,$126(SP)
 2002130:	78 80 00 08 	BRA        @0x0200213c    // 200213c <_vfprintf_r+0x8b4>
 2002134:	1e 00 00 2b 	LDI        $43,R3
 2002138:	1d c7 40 7e 	SB         R3,$126(SP)
 200213c:	13 43 40 8b 	MOV        $139+SP,R2
 2002140:	0c 00 00 0a 	CMP        $10,R1
 2002144:	78 b0 00 08 	BGE        @0x02002150    // 2002150 <_vfprintf_r+0x8c8>
 2002148:	78 80 00 64 	BRA        @0x020021b0    // 20021b0 <_vfprintf_r+0x928>
 200214c:	13 41 40 00 	MOV        R5,R2
 2002150:	af 90 aa 7f 	MOV        R2,R5          | ADD        $-1,R5
 2002154:	23 40 40 00 	MOV        R1,R4
 2002158:	23 c0 00 0a 	DIVS       $10,R4
 200215c:	1b 41 00 00 	MOV        R4,R3
 2002160:	19 80 00 02 	LSL        $2,R3
 2002164:	9a a0 9a 98 	ADD        R4,R3          | ADD        R3,R3
 2002168:	88 98 8a 30 	SUB        R3,R1          | ADD        $48,R1
 200216c:	0d c4 bf ff 	SB         R1,$-1(R2)
 2002170:	8f a0 a3 0a 	MOV        R4,R1          | CMP        $10,R4
 2002174:	78 b3 ff d4 	BGE        @0x0200214c    // 200214c <_vfprintf_r+0x8c4>
 2002178:	92 7e 8a 30 	ADD        $-2,R2         | ADD        $48,R1
 200217c:	0d c5 7f ff 	SB         R1,$-1(R5)
 2002180:	a4 0c 93 a0 	LW         12(SP),R4      | CMP        R4,R2
 2002184:	78 b8 00 44 	BNC        @0x020021cc    // 20021cc <_vfprintf_r+0x944>
 2002188:	0b 43 40 7f 	MOV        $127+SP,R1
 200218c:	8a 01 92 01 	ADD        $1,R1          | ADD        $1,R2
 2002190:	1d 84 bf ff 	LB         -1(R2),R3
 2002194:	1d c4 7f ff 	SB         R3,$-1(R1)
 2002198:	14 05 00 00 	CMP        R4,R2
 200219c:	78 ab ff ec 	BNZ        @0x0200218c    // 200218c <_vfprintf_r+0x904>
 20021a0:	8c 14 88 a8 	LW         20(SP),R1      | SUB        R5,R1
 20021a4:	2b 43 40 7f 	MOV        $127+SP,R5
 20021a8:	aa 88 8f a8 	ADD        R1,R5          | MOV        R5,R1
 20021ac:	78 80 00 24 	BRA        @0x020021d4    // 20021d4 <_vfprintf_r+0x94c>
 20021b0:	16 00 00 30 	LDI        $48,R2
 20021b4:	15 c7 40 7f 	SB         R2,$127(SP)
 20021b8:	08 80 00 30 	ADD        $48,R1
 20021bc:	0d c7 40 80 	SB         R1,$128(SP)
 20021c0:	0b 43 40 00 	MOV        SP,R1
 20021c4:	08 80 00 81 	ADD        $129,R1
 20021c8:	78 80 00 08 	BRA        @0x020021d4    // 20021d4 <_vfprintf_r+0x94c>
 20021cc:	0b 43 40 00 	MOV        SP,R1
 20021d0:	08 80 00 7f 	ADD        $127,R1
 20021d4:	9c 10 88 98 	LW         16(SP),R3      | SUB        R3,R1
 20021d8:	0c c7 40 60 	SW         R1,$96(SP)
 20021dc:	ac 34 aa 88 	LW         52(SP),R5      | ADD        R1,R5
 20021e0:	ad 24 ac 34 	SW         R5,$36(SP)     | LW         52(SP),R5
 20021e4:	2c 00 00 02 	CMP        $2,R5
 20021e8:	78 b0 00 1c 	BGE        @0x02002208    // 2002208 <_vfprintf_r+0x980>
 20021ec:	48 40 00 01 	AND        $1,R9
 20021f0:	4c c7 40 4c 	SW         R9,$76(SP)
 20021f4:	78 a8 00 10 	BNZ        @0x02002208    // 2002208 <_vfprintf_r+0x980>
 20021f8:	ac 24 ab c8 	LW         36(SP),R5      | CMP        R9,R5
 20021fc:	2b 52 40 00 	MOV.LT     R9,R5
 2002200:	2c c7 40 1c 	SW         R5,$28(SP)
 2002204:	78 80 01 38 	BRA        @0x02002340    // 2002340 <_vfprintf_r+0xab8>
 2002208:	24 87 40 24 	LW         36(SP),R4
 200220c:	2c 87 40 5c 	LW         92(SP),R5
 2002210:	a2 a8 a5 24 	ADD        R5,R4          | SW         R4,$36(SP)
 2002214:	8e 00 a3 88 	CLR        R1             | CMP        R1,R4
 2002218:	23 50 40 00 	MOV.LT     R1,R4
 200221c:	24 c7 40 1c 	SW         R4,$28(SP)
 2002220:	0c c7 40 4c 	SW         R1,$76(SP)
 2002224:	78 80 01 18 	BRA        @0x02002340    // 2002340 <_vfprintf_r+0xab8>
 2002228:	78 88 00 0c 	BZ         @0x02002238    // 2002238 <_vfprintf_r+0x9b0>
 200222c:	3c 87 40 74 	LW         116(SP),R7
 2002230:	3c c7 40 4c 	SW         R7,$76(SP)
 2002234:	78 80 00 74 	BRA        @0x020022ac    // 20022ac <_vfprintf_r+0xa24>
 2002238:	2c 87 40 74 	LW         116(SP),R5
 200223c:	2c c7 40 4c 	SW         R5,$76(SP)
 2002240:	2c 00 00 01 	CMP        $1,R5
 2002244:	78 90 00 38 	BLT        @0x02002280    // 2002280 <_vfprintf_r+0x9f8>
 2002248:	34 00 00 00 	CMP        $0,R6
 200224c:	78 a8 00 10 	BNZ        @0x02002260    // 2002260 <_vfprintf_r+0x9d8>
 2002250:	8f c8 89 01 	MOV        R9,R1          | AND        $1,R1
 2002254:	78 a8 00 08 	BNZ        @0x02002260    // 2002260 <_vfprintf_r+0x9d8>
 2002258:	ad 1c ad 24 	SW         R5,$28(SP)     | SW         R5,$36(SP)
 200225c:	78 80 00 e0 	BRA        @0x02002340    // 2002340 <_vfprintf_r+0xab8>
 2002260:	0c 87 40 4c 	LW         76(SP),R1
 2002264:	14 87 40 5c 	LW         92(SP),R2
 2002268:	8a 90 8a b0 	ADD        R2,R1          | ADD        R6,R1
 200226c:	8d 24 8e 00 	SW         R1,$36(SP)     | CLR        R1
 2002270:	ac 24 ab 88 	LW         36(SP),R5      | CMP        R1,R5
 2002274:	2b 50 40 00 	MOV.LT     R1,R5
 2002278:	2c c7 40 1c 	SW         R5,$28(SP)
 200227c:	78 80 00 c0 	BRA        @0x02002340    // 2002340 <_vfprintf_r+0xab8>
 2002280:	34 00 00 00 	CMP        $0,R6
 2002284:	78 a8 00 08 	BNZ        @0x02002290    // 2002290 <_vfprintf_r+0xa08>
 2002288:	8f c8 89 01 	MOV        R9,R1          | AND        $1,R1
 200228c:	78 88 00 a8 	BZ         @0x02002338    // 2002338 <_vfprintf_r+0xab0>
 2002290:	0c 87 40 5c 	LW         92(SP),R1
 2002294:	8a 01 8a b0 	ADD        $1,R1          | ADD        R6,R1
 2002298:	8d 24 8e 00 	SW         R1,$36(SP)     | CLR        R1
 200229c:	ac 24 ab 88 	LW         36(SP),R5      | CMP        R1,R5
 20022a0:	2b 50 40 00 	MOV.LT     R1,R5
 20022a4:	2c c7 40 1c 	SW         R5,$28(SP)
 20022a8:	78 80 00 94 	BRA        @0x02002340    // 2002340 <_vfprintf_r+0xab8>
 20022ac:	3c 87 40 4c 	LW         76(SP),R7
 20022b0:	ac 34 bb a8 	LW         52(SP),R5      | CMP        R5,R7
 20022b4:	78 90 00 3c 	BLT        @0x020022f4    // 20022f4 <_vfprintf_r+0xa6c>
 20022b8:	8f c8 89 01 	MOV        R9,R1          | AND        $1,R1
 20022bc:	78 a8 00 18 	BNZ        @0x020022d8    // 20022d8 <_vfprintf_r+0xa50>
 20022c0:	3c 04 40 00 	CMP        R1,R7
 20022c4:	3b 50 40 00 	MOV.LT     R1,R7
 20022c8:	3c c7 40 1c 	SW         R7,$28(SP)
 20022cc:	3c 87 40 4c 	LW         76(SP),R7
 20022d0:	bd 24 be 67 	SW         R7,$36(SP)     | LDI        $103,R7
 20022d4:	78 80 00 68 	BRA        @0x02002340    // 2002340 <_vfprintf_r+0xab8>
 20022d8:	2b 41 c0 00 	MOV        R7,R5
 20022dc:	3c 87 40 5c 	LW         92(SP),R7
 20022e0:	aa b8 ad 24 	ADD        R7,R5          | SW         R5,$36(SP)
 20022e4:	8e 00 ab 88 	CLR        R1             | CMP        R1,R5
 20022e8:	2b 50 40 00 	MOV.LT     R1,R5
 20022ec:	ad 1c be 67 	SW         R5,$28(SP)     | LDI        $103,R7
 20022f0:	78 80 00 4c 	BRA        @0x02002340    // 2002340 <_vfprintf_r+0xab8>
 20022f4:	3c 87 40 5c 	LW         92(SP),R7
 20022f8:	aa b8 ad 24 	ADD        R7,R5          | SW         R5,$36(SP)
 20022fc:	2c 87 40 4c 	LW         76(SP),R5
 2002300:	2c 00 00 01 	CMP        $1,R5
 2002304:	78 90 00 14 	BLT        @0x0200231c    // 200231c <_vfprintf_r+0xa94>
 2002308:	8e 00 bc 24 	CLR        R1             | LW         36(SP),R7
 200230c:	3c 04 40 00 	CMP        R1,R7
 2002310:	3b 50 40 00 	MOV.LT     R1,R7
 2002314:	bd 1c be 67 	SW         R7,$28(SP)     | LDI        $103,R7
 2002318:	78 80 00 24 	BRA        @0x02002340    // 2002340 <_vfprintf_r+0xab8>
 200231c:	8c 24 88 a8 	LW         36(SP),R1      | SUB        R5,R1
 2002320:	8f 89 8d 24 	MOV        $1+R1,R1       | SW         R1,$36(SP)
 2002324:	8e 00 bc 24 	CLR        R1             | LW         36(SP),R7
 2002328:	3c 04 40 00 	CMP        R1,R7
 200232c:	3b 50 40 00 	MOV.LT     R1,R7
 2002330:	bd 1c be 67 	SW         R7,$28(SP)     | LDI        $103,R7
 2002334:	78 80 00 08 	BRA        @0x02002340    // 2002340 <_vfprintf_r+0xab8>
 2002338:	ae 01 ad 1c 	LDI        $1,R5          | SW         R5,$28(SP)
 200233c:	2c c7 40 24 	SW         R5,$36(SP)
 2002340:	8c 3c 8b 00 	LW         60(SP),R1      | CMP        $0,R1
 2002344:	78 a8 00 0c 	BNZ        @0x02002354    // 2002354 <_vfprintf_r+0xacc>
 2002348:	2d 87 40 71 	LB         113(SP),R5
 200234c:	ad 2c b7 88 	SW         R5,$44(SP)     | MOV        R1,R6
 2002350:	78 80 05 f4 	BRA        @0x02002948    // 2002948 <_vfprintf_r+0x10c0>
 2002354:	0e 00 00 2d 	LDI        $45,R1
 2002358:	0d c7 40 71 	SB         R1,$113(SP)
 200235c:	ae 2d ad 2c 	LDI        $45,R5         | SW         R5,$44(SP)
 2002360:	36 00 00 00 	CLR        R6
 2002364:	78 80 05 e8 	BRA        @0x02002950    // 2002950 <_vfprintf_r+0x10c8>
 2002368:	0c 00 00 00 	CMP        $0,R1
 200236c:	25 ef 40 71 	SB.NZ      R4,$113(SP)
 2002370:	8f c8 89 10 	MOV        R9,R1          | AND        $16,R1
 2002374:	78 88 00 24 	BZ         @0x0200239c    // 200239c <_vfprintf_r+0xb14>
 2002378:	bc 28 8c b8 	LW         40(SP),R7      | LW         (R7),R1
 200237c:	3c 87 40 30 	LW         48(SP),R7
 2002380:	3c c4 40 04 	SW         R7,$4(R1)
 2002384:	13 41 c0 00 	MOV        R7,R2
 2002388:	11 c0 00 1f 	ASR        $31,R2
 200238c:	95 88 bc 28 	SW         R2,(R1)        | LW         40(SP),R7
 2002390:	3b 41 c0 04 	MOV        $4+R7,R7
 2002394:	3c c7 40 28 	SW         R7,$40(SP)
 2002398:	78 83 f6 44 	BRA        @0x020019e0    // 20019e0 <_vfprintf_r+0x158>
 200239c:	0b 42 40 00 	MOV        R9,R1
 20023a0:	08 40 00 40 	AND        $64,R1
 20023a4:	bc 28 8c b8 	LW         40(SP),R7      | LW         (R7),R1
 20023a8:	3c 87 40 30 	LW         48(SP),R7
 20023ac:	3d 6c 40 00 	SH.NZ      R7,(R1)
 20023b0:	3c cc 40 00 	SW.Z       R7,(R1)
 20023b4:	3c 87 40 28 	LW         40(SP),R7
 20023b8:	3b 41 c0 04 	MOV        $4+R7,R7
 20023bc:	3c c7 40 28 	SW         R7,$40(SP)
 20023c0:	78 83 f6 1c 	BRA        @0x020019e0    // 20019e0 <_vfprintf_r+0x158>
 20023c4:	48 c0 00 10 	OR         $16,R9
 20023c8:	8f c8 89 10 	MOV        R9,R1          | AND        $16,R1
 20023cc:	78 88 00 20 	BZ         @0x020023f0    // 20023f0 <_vfprintf_r+0xb68>
 20023d0:	94 28 8c 90 	LW         40(SP),R2      | LW         (R2),R1
 20023d4:	14 84 80 04 	LW         4(R2),R2
 20023d8:	0c c7 40 40 	SW         R1,$64(SP)
 20023dc:	14 c7 40 44 	SW         R2,$68(SP)
 20023e0:	1c 87 40 28 	LW         40(SP),R3
 20023e4:	1b 40 c0 08 	MOV        $8+R3,R3
 20023e8:	9d 28 96 00 	SW         R3,$40(SP)     | CLR        R2
 20023ec:	78 80 02 8c 	BRA        @0x0200267c    // 200267c <_vfprintf_r+0xdf4>
 20023f0:	13 42 40 00 	MOV        R9,R2
 20023f4:	10 40 00 40 	AND        $64,R2
 20023f8:	78 88 00 1c 	BZ         @0x02002418    // 2002418 <_vfprintf_r+0xb90>
 20023fc:	a4 28 94 a0 	LW         40(SP),R4      | LW         (R4),R2
 2002400:	10 40 ff ff 	AND        $65535,R2
 2002404:	14 c7 40 44 	SW         R2,$68(SP)
 2002408:	0c c7 40 40 	SW         R1,$64(SP)
 200240c:	23 41 00 04 	MOV        $4+R4,R4
 2002410:	a5 28 97 88 	SW         R4,$40(SP)     | MOV        R1,R2
 2002414:	78 80 02 64 	BRA        @0x0200267c    // 200267c <_vfprintf_r+0xdf4>
 2002418:	ac 28 ac a8 	LW         40(SP),R5      | LW         (R5),R5
 200241c:	2c c7 40 44 	SW         R5,$68(SP)
 2002420:	14 c7 40 40 	SW         R2,$64(SP)
 2002424:	0c 87 40 28 	LW         40(SP),R1
 2002428:	0b 40 40 04 	MOV        $4+R1,R1
 200242c:	0c c7 40 28 	SW         R1,$40(SP)
 2002430:	78 80 02 48 	BRA        @0x0200267c    // 200267c <_vfprintf_r+0xdf4>
 2002434:	bc 28 bc b8 	LW         40(SP),R7      | LW         (R7),R7
 2002438:	3c c7 40 44 	SW         R7,$68(SP)
 200243c:	0e 00 00 00 	CLR        R1
 2002440:	0c c7 40 40 	SW         R1,$64(SP)
 2002444:	48 c0 00 02 	OR         $2,R9
 2002448:	16 00 00 30 	LDI        $48,R2
 200244c:	15 c7 40 72 	SB         R2,$114(SP)
 2002450:	1e 00 00 78 	LDI        $120,R3
 2002454:	1d c7 40 73 	SB         R3,$115(SP)
 2002458:	3c 87 40 28 	LW         40(SP),R7
 200245c:	3b 41 c0 04 	MOV        $4+R7,R7
 2002460:	3c c7 40 28 	SW         R7,$40(SP)
 2002464:	3a 03 00 40 	LDI        0x0200e2e0,R7  // 200e2e0 <__call_exitprocs+0x2bc>
 2002468:	3a 40 e2 e0 
 200246c:	3c c7 40 64 	SW         R7,$100(SP)
 2002470:	96 02 be 78 	LDI        $2,R2          | LDI        $120,R7
 2002474:	78 80 02 04 	BRA        @0x0200267c    // 200267c <_vfprintf_r+0xdf4>
 2002478:	ac 28 aa 04 	LW         40(SP),R5      | ADD        $4,R5
 200247c:	8c 28 8c 88 	LW         40(SP),R1      | LW         (R1),R1
 2002480:	0c c7 40 48 	SW         R1,$72(SP)
 2002484:	16 00 00 00 	CLR        R2
 2002488:	15 c7 40 71 	SB         R2,$113(SP)
 200248c:	0c 00 00 00 	CMP        $0,R1
 2002490:	78 a8 00 28 	BNZ        @0x020024bc    // 20024bc <_vfprintf_r+0xc34>
 2002494:	8e 06 8b b0 	LDI        $6,R1          | CMP        R6,R1
 2002498:	33 58 40 00 	MOV.C      R1,R6
 200249c:	b5 1c ad 28 	SW         R6,$28(SP)     | SW         R5,$40(SP)
 20024a0:	b5 24 cd 20 	SW         R6,$36(SP)     | SW         R9,$32(SP)
 20024a4:	b6 00 b5 2c 	CLR        R6             | SW         R6,$44(SP)
 20024a8:	34 c7 40 4c 	SW         R6,$76(SP)
 20024ac:	2a 03 00 40 	LDI        0x0200e2f4,R5  // 200e2f4 <__call_exitprocs+0x2d0>
 20024b0:	2a 40 e2 f4 
 20024b4:	2c c7 40 48 	SW         R5,$72(SP)
 20024b8:	78 80 04 9c 	BRA        @0x02002958    // 2002958 <_vfprintf_r+0x10d0>
 20024bc:	34 03 ff ff 	CMP        $-1,R6
 20024c0:	78 88 00 5c 	BZ         @0x02002520    // 2002520 <_vfprintf_r+0xc98>
 20024c4:	9f b0 96 00 	MOV        R6,R3          | CLR        R2
 20024c8:	87 fa fc f8 	JSR        0x02006f88     // 2006f88 <memchr>
 20024cc:	02 00 6f 88 
 20024d0:	0c 00 00 00 	CMP        $0,R1
 20024d4:	78 a8 00 1c 	BNZ        @0x020024f4    // 20024f4 <_vfprintf_r+0xc6c>
 20024d8:	15 87 40 71 	LB         113(SP),R2
 20024dc:	95 2c b5 1c 	SW         R2,$44(SP)     | SW         R6,$28(SP)
 20024e0:	ad 28 b5 24 	SW         R5,$40(SP)     | SW         R6,$36(SP)
 20024e4:	cd 20 b7 88 	SW         R9,$32(SP)     | MOV        R1,R6
 20024e8:	0c c7 40 4c 	SW         R1,$76(SP)
 20024ec:	2b 40 80 00 	MOV        R2,R5
 20024f0:	78 80 04 54 	BRA        @0x02002948    // 2002948 <_vfprintf_r+0x10c0>
 20024f4:	1c 87 40 48 	LW         72(SP),R3
 20024f8:	88 98 8d 24 	SUB        R3,R1          | SW         R1,$36(SP)
 20024fc:	b6 00 8b b0 	CLR        R6             | CMP        R6,R1
 2002500:	0b 51 80 00 	MOV.LT     R6,R1
 2002504:	0c c7 40 1c 	SW         R1,$28(SP)
 2002508:	25 87 40 71 	LB         113(SP),R4
 200250c:	a5 2c ad 28 	SW         R4,$44(SP)     | SW         R5,$40(SP)
 2002510:	4c c7 40 20 	SW         R9,$32(SP)
 2002514:	34 c7 40 4c 	SW         R6,$76(SP)
 2002518:	2b 41 00 00 	MOV        R4,R5
 200251c:	78 80 04 28 	BRA        @0x02002948    // 2002948 <_vfprintf_r+0x10c0>
 2002520:	87 fa fc f8 	JSR        0x02001774     // 2001774 <strlen>
 2002524:	02 00 17 74 
 2002528:	8d 24 b6 00 	SW         R1,$36(SP)     | CLR        R6
 200252c:	0c 05 80 00 	CMP        R6,R1
 2002530:	0b 51 80 00 	MOV.LT     R6,R1
 2002534:	0c c7 40 1c 	SW         R1,$28(SP)
 2002538:	0d 87 40 71 	LB         113(SP),R1
 200253c:	8d 2c ad 28 	SW         R1,$44(SP)     | SW         R5,$40(SP)
 2002540:	4c c7 40 20 	SW         R9,$32(SP)
 2002544:	34 c7 40 4c 	SW         R6,$76(SP)
 2002548:	2b 40 40 00 	MOV        R1,R5
 200254c:	78 80 03 f8 	BRA        @0x02002948    // 2002948 <_vfprintf_r+0x10c0>
 2002550:	48 c0 00 10 	OR         $16,R9
 2002554:	8f c8 89 10 	MOV        R9,R1          | AND        $16,R1
 2002558:	78 88 00 20 	BZ         @0x0200257c    // 200257c <_vfprintf_r+0xcf4>
 200255c:	9c 28 94 98 	LW         40(SP),R3      | LW         (R3),R2
 2002560:	1c 84 c0 04 	LW         4(R3),R3
 2002564:	14 c7 40 40 	SW         R2,$64(SP)
 2002568:	1c c7 40 44 	SW         R3,$68(SP)
 200256c:	24 87 40 28 	LW         40(SP),R4
 2002570:	23 41 00 08 	MOV        $8+R4,R4
 2002574:	a5 28 96 01 	SW         R4,$40(SP)     | LDI        $1,R2
 2002578:	78 80 01 00 	BRA        @0x0200267c    // 200267c <_vfprintf_r+0xdf4>
 200257c:	13 42 40 00 	MOV        R9,R2
 2002580:	10 40 00 40 	AND        $64,R2
 2002584:	78 88 00 1c 	BZ         @0x020025a4    // 20025a4 <_vfprintf_r+0xd1c>
 2002588:	ac 28 94 a8 	LW         40(SP),R5      | LW         (R5),R2
 200258c:	10 40 ff ff 	AND        $65535,R2
 2002590:	14 c7 40 44 	SW         R2,$68(SP)
 2002594:	0c c7 40 40 	SW         R1,$64(SP)
 2002598:	2b 41 40 04 	MOV        $4+R5,R5
 200259c:	ad 28 96 01 	SW         R5,$40(SP)     | LDI        $1,R2
 20025a0:	78 80 00 d8 	BRA        @0x0200267c    // 200267c <_vfprintf_r+0xdf4>
 20025a4:	8c 28 8c 88 	LW         40(SP),R1      | LW         (R1),R1
 20025a8:	0c c7 40 44 	SW         R1,$68(SP)
 20025ac:	14 c7 40 40 	SW         R2,$64(SP)
 20025b0:	14 87 40 28 	LW         40(SP),R2
 20025b4:	13 40 80 04 	MOV        $4+R2,R2
 20025b8:	95 28 96 01 	SW         R2,$40(SP)     | LDI        $1,R2
 20025bc:	78 80 00 bc 	BRA        @0x0200267c    // 200267c <_vfprintf_r+0xdf4>
 20025c0:	0c 00 00 00 	CMP        $0,R1
 20025c4:	25 ef 40 71 	SB.NZ      R4,$113(SP)
 20025c8:	1e 00 00 78 	LDI        $120,R3
 20025cc:	22 03 00 40 	LDI        0x0200e2e0,R4  // 200e2e0 <__call_exitprocs+0x2bc>
 20025d0:	22 40 e2 e0 
 20025d4:	24 c7 40 64 	SW         R4,$100(SP)
 20025d8:	8f c8 89 10 	MOV        R9,R1          | AND        $16,R1
 20025dc:	78 88 00 20 	BZ         @0x02002600    // 2002600 <_vfprintf_r+0xd78>
 20025e0:	94 28 8c 90 	LW         40(SP),R2      | LW         (R2),R1
 20025e4:	14 84 80 04 	LW         4(R2),R2
 20025e8:	0c c7 40 40 	SW         R1,$64(SP)
 20025ec:	14 c7 40 44 	SW         R2,$68(SP)
 20025f0:	24 87 40 28 	LW         40(SP),R4
 20025f4:	23 41 00 08 	MOV        $8+R4,R4
 20025f8:	24 c7 40 28 	SW         R4,$40(SP)
 20025fc:	78 80 00 40 	BRA        @0x02002640    // 2002640 <_vfprintf_r+0xdb8>
 2002600:	13 42 40 00 	MOV        R9,R2
 2002604:	10 40 00 40 	AND        $64,R2
 2002608:	78 88 00 1c 	BZ         @0x02002628    // 2002628 <_vfprintf_r+0xda0>
 200260c:	ac 28 94 a8 	LW         40(SP),R5      | LW         (R5),R2
 2002610:	10 40 ff ff 	AND        $65535,R2
 2002614:	14 c7 40 44 	SW         R2,$68(SP)
 2002618:	0c c7 40 40 	SW         R1,$64(SP)
 200261c:	2b 41 40 04 	MOV        $4+R5,R5
 2002620:	2c c7 40 28 	SW         R5,$40(SP)
 2002624:	78 80 00 18 	BRA        @0x02002640    // 2002640 <_vfprintf_r+0xdb8>
 2002628:	8c 28 8c 88 	LW         40(SP),R1      | LW         (R1),R1
 200262c:	0c c7 40 44 	SW         R1,$68(SP)
 2002630:	14 c7 40 40 	SW         R2,$64(SP)
 2002634:	14 87 40 28 	LW         40(SP),R2
 2002638:	13 40 80 04 	MOV        $4+R2,R2
 200263c:	14 c7 40 28 	SW         R2,$40(SP)
 2002640:	8f c8 89 01 	MOV        R9,R1          | AND        $1,R1
 2002644:	78 88 00 2c 	BZ         @0x02002674    // 2002674 <_vfprintf_r+0xdec>
 2002648:	24 87 40 40 	LW         64(SP),R4
 200264c:	2c 87 40 44 	LW         68(SP),R5
 2002650:	96 02 a3 00 	LDI        $2,R2          | CMP        $0,R4
 2002654:	2c 08 00 00 	CMP.Z      $0,R5
 2002658:	78 88 00 20 	BZ         @0x0200267c    // 200267c <_vfprintf_r+0xdf4>
 200265c:	2e 00 00 30 	LDI        $48,R5
 2002660:	2d c7 40 72 	SB         R5,$114(SP)
 2002664:	1d c7 40 73 	SB         R3,$115(SP)
 2002668:	48 c0 00 02 	OR         $2,R9
 200266c:	16 00 00 02 	LDI        $2,R2
 2002670:	78 80 00 08 	BRA        @0x0200267c    // 200267c <_vfprintf_r+0xdf4>
 2002674:	16 00 00 02 	LDI        $2,R2
 2002678:	78 80 00 00 	BRA        @0x0200267c    // 200267c <_vfprintf_r+0xdf4>
 200267c:	0e 00 00 00 	CLR        R1
 2002680:	0d c7 40 71 	SB         R1,$113(SP)
 2002684:	ae 00 ad 2c 	CLR        R5             | SW         R5,$44(SP)
 2002688:	34 03 ff ff 	CMP        $-1,R6
 200268c:	78 88 00 34 	BZ         @0x020026c4    // 20026c4 <_vfprintf_r+0xe3c>
 2002690:	0b 42 40 00 	MOV        R9,R1
 2002694:	08 43 ff 7f 	AND        $-129,R1
 2002698:	0c c7 40 20 	SW         R1,$32(SP)
 200269c:	0c 87 40 40 	LW         64(SP),R1
 20026a0:	1c 87 40 44 	LW         68(SP),R3
 20026a4:	08 c4 c0 00 	OR         R3,R1
 20026a8:	1e 00 00 00 	CLR        R3
 20026ac:	1a 68 00 01 	LDILO.NZ   $1,R3
 20026b0:	34 00 00 00 	CMP        $0,R6
 20026b4:	18 e8 00 01 	OR.NZ      $1,R3
 20026b8:	1c 00 00 00 	CMP        $0,R3
 20026bc:	78 88 01 e4 	BZ         @0x020028a4    // 20028a4 <_vfprintf_r+0x101c>
 20026c0:	4c 87 40 20 	LW         32(SP),R9
 20026c4:	14 00 00 01 	CMP        $1,R2
 20026c8:	78 88 00 b0 	BZ         @0x0200277c    // 200277c <_vfprintf_r+0xef4>
 20026cc:	14 00 00 02 	CMP        $2,R2
 20026d0:	78 88 01 54 	BZ         @0x02002828    // 2002828 <_vfprintf_r+0xfa0>
 20026d4:	13 43 40 c0 	MOV        $192+SP,R2
 20026d8:	d5 1c bd 20 	SW         R10,$28(SP)    | SW         R7,$32(SP)
 20026dc:	4c c7 40 24 	SW         R9,$36(SP)
 20026e0:	24 87 40 40 	LW         64(SP),R4
 20026e4:	2c 87 40 44 	LW         68(SP),R5
 20026e8:	78 80 00 04 	BRA        @0x020026f0    // 20026f0 <_vfprintf_r+0xe68>
 20026ec:	13 42 80 00 	MOV        R10,R2
 20026f0:	d7 90 d2 7f 	MOV        R2,R10         | ADD        $-1,R10
 20026f4:	8f a8 89 07 	MOV        R5,R1          | AND        $7,R1
 20026f8:	08 80 00 30 	ADD        $48,R1
 20026fc:	0d c4 bf ff 	SB         R1,$-1(R2)
 2002700:	3b 41 00 00 	MOV        R4,R7
 2002704:	39 80 00 1d 	LSL        $29,R7
 2002708:	1b 41 40 00 	MOV        R5,R3
 200270c:	19 40 00 03 	LSR        $3,R3
 2002710:	4b 41 00 00 	MOV        R4,R9
 2002714:	49 40 00 03 	LSR        $3,R9
 2002718:	a7 c8 af b8 	MOV        R9,R4          | MOV        R7,R5
 200271c:	28 c4 c0 00 	OR         R3,R5
 2002720:	24 00 00 00 	CMP        $0,R4
 2002724:	2c 08 00 00 	CMP.Z      $0,R5
 2002728:	78 ab ff c0 	BNZ        @0x020026ec    // 20026ec <_vfprintf_r+0xe64>
 200272c:	bc 20 cc 24 	LW         32(SP),R7      | LW         36(SP),R9
 2002730:	24 c7 40 40 	SW         R4,$64(SP)
 2002734:	2c c7 40 44 	SW         R5,$68(SP)
 2002738:	9f d0 d4 1c 	MOV        R10,R3         | LW         28(SP),R10
 200273c:	8b 30 8e 00 	CMP        $48,R1         | CLR        R1
 2002740:	0a 68 00 01 	LDILO.NZ   $1,R1
 2002744:	a7 c8 a1 88 	MOV        R9,R4          | AND        R1,R4
 2002748:	78 a8 00 10 	BNZ        @0x0200275c    // 200275c <_vfprintf_r+0xed4>
 200274c:	ac 18 a8 98 	LW         24(SP),R5      | SUB        R3,R5
 2002750:	ad 24 cd 20 	SW         R5,$36(SP)     | SW         R9,$32(SP)
 2002754:	1c c7 40 48 	SW         R3,$72(SP)
 2002758:	78 80 01 94 	BRA        @0x020028f0    // 20028f0 <_vfprintf_r+0x1068>
 200275c:	10 83 ff fe 	ADD        $-2,R2
 2002760:	14 c7 40 48 	SW         R2,$72(SP)
 2002764:	0e 00 00 30 	LDI        $48,R1
 2002768:	0d c4 ff ff 	SB         R1,$-1(R3)
 200276c:	9c 18 98 90 	LW         24(SP),R3      | SUB        R2,R3
 2002770:	9d 24 cd 20 	SW         R3,$36(SP)     | SW         R9,$32(SP)
 2002774:	2b 40 c0 00 	MOV        R3,R5
 2002778:	78 80 01 74 	BRA        @0x020028f0    // 20028f0 <_vfprintf_r+0x1068>
 200277c:	24 87 40 40 	LW         64(SP),R4
 2002780:	2c 87 40 44 	LW         68(SP),R5
 2002784:	24 00 00 00 	CMP        $0,R4
 2002788:	78 a8 00 28 	BNZ        @0x020027b4    // 20027b4 <_vfprintf_r+0xf2c>
 200278c:	2c 00 00 0a 	CMP        $10,R5
 2002790:	78 b8 00 20 	BNC        @0x020027b4    // 20027b4 <_vfprintf_r+0xf2c>
 2002794:	8f a8 8a 30 	MOV        R5,R1          | ADD        $48,R1
 2002798:	0d c7 40 bf 	SB         R1,$191(SP)
 200279c:	cd 20 95 24 	SW         R9,$32(SP)     | SW         R2,$36(SP)
 20027a0:	2b 43 40 00 	MOV        SP,R5
 20027a4:	28 80 00 bf 	ADD        $191,R5
 20027a8:	2c c7 40 48 	SW         R5,$72(SP)
 20027ac:	2b 40 80 00 	MOV        R2,R5
 20027b0:	78 80 01 3c 	BRA        @0x020028f0    // 20028f0 <_vfprintf_r+0x1068>
 20027b4:	2b 43 40 c0 	MOV        $192+SP,R5
 20027b8:	2c c7 40 48 	SW         R5,$72(SP)
 20027bc:	d5 1c bd 20 	SW         R10,$28(SP)    | SW         R7,$32(SP)
 20027c0:	3b 42 c0 00 	MOV        R11,R7
 20027c4:	54 87 40 40 	LW         64(SP),R10
 20027c8:	5c 87 40 44 	LW         68(SP),R11
 20027cc:	aa 7f 9e 00 	ADD        $-1,R5         | CLR        R3
 20027d0:	a6 0a 8f d0 	LDI        $10,R4         | MOV        R10,R1
 20027d4:	13 42 c0 00 	MOV        R11,R2
 20027d8:	87 fa fc f8 	JSR        0x0200c27c     // 200c27c <__umoddi3>
 20027dc:	02 00 c2 7c 
 20027e0:	10 80 00 30 	ADD        $48,R2
 20027e4:	15 c5 40 00 	SB         R2,(R5)
 20027e8:	9e 00 a6 0a 	CLR        R3             | LDI        $10,R4
 20027ec:	8f d0 97 d8 	MOV        R10,R1         | MOV        R11,R2
 20027f0:	87 fa fc f8 	JSR        0x0200bd24     // 200bd24 <__udivdi3>
 20027f4:	02 00 bd 24 
 20027f8:	d7 88 df 90 	MOV        R1,R10         | MOV        R2,R11
 20027fc:	0c 00 00 00 	CMP        $0,R1
 2002800:	14 08 00 00 	CMP.Z      $0,R2
 2002804:	78 ab ff c4 	BNZ        @0x020027cc    // 20027cc <_vfprintf_r+0xf44>
 2002808:	2c c7 40 48 	SW         R5,$72(SP)
 200280c:	0c c7 40 40 	SW         R1,$64(SP)
 2002810:	14 c7 40 44 	SW         R2,$68(SP)
 2002814:	d4 1c df b8 	LW         28(SP),R10     | MOV        R7,R11
 2002818:	bc 20 8c 18 	LW         32(SP),R7      | LW         24(SP),R1
 200281c:	88 a8 8d 24 	SUB        R5,R1          | SW         R1,$36(SP)
 2002820:	cd 20 af 88 	SW         R9,$32(SP)     | MOV        R1,R5
 2002824:	78 80 00 c8 	BRA        @0x020028f0    // 20028f0 <_vfprintf_r+0x1068>
 2002828:	2b 43 40 c0 	MOV        $192+SP,R5
 200282c:	2c c7 40 48 	SW         R5,$72(SP)
 2002830:	d5 1c bd 20 	SW         R10,$28(SP)    | SW         R7,$32(SP)
 2002834:	0b 41 40 00 	MOV        R5,R1
 2002838:	54 87 40 64 	LW         100(SP),R10
 200283c:	14 87 40 40 	LW         64(SP),R2
 2002840:	1c 87 40 44 	LW         68(SP),R3
 2002844:	8a 7f a7 98 	ADD        $-1,R1         | MOV        R3,R4
 2002848:	a1 0f bf d0 	AND        $15,R4         | MOV        R10,R7
 200284c:	38 85 00 00 	ADD        R4,R7
 2002850:	25 85 c0 00 	LB         (R7),R4
 2002854:	25 c4 40 00 	SB         R4,(R1)
 2002858:	2b 40 80 00 	MOV        R2,R5
 200285c:	29 80 00 1c 	LSL        $28,R5
 2002860:	23 40 c0 00 	MOV        R3,R4
 2002864:	21 40 00 04 	LSR        $4,R4
 2002868:	3b 40 80 00 	MOV        R2,R7
 200286c:	39 40 00 04 	LSR        $4,R7
 2002870:	97 b8 9f a8 	MOV        R7,R2          | MOV        R5,R3
 2002874:	18 c5 00 00 	OR         R4,R3
 2002878:	14 00 00 00 	CMP        $0,R2
 200287c:	1c 08 00 00 	CMP.Z      $0,R3
 2002880:	78 ab ff c0 	BNZ        @0x02002844    // 2002844 <_vfprintf_r+0xfbc>
 2002884:	d4 1c bc 20 	LW         28(SP),R10     | LW         32(SP),R7
 2002888:	0c c7 40 48 	SW         R1,$72(SP)
 200288c:	14 c7 40 40 	SW         R2,$64(SP)
 2002890:	1c c7 40 44 	SW         R3,$68(SP)
 2002894:	94 18 90 88 	LW         24(SP),R2      | SUB        R1,R2
 2002898:	95 24 cd 20 	SW         R2,$36(SP)     | SW         R9,$32(SP)
 200289c:	2b 40 80 00 	MOV        R2,R5
 20028a0:	78 80 00 4c 	BRA        @0x020028f0    // 20028f0 <_vfprintf_r+0x1068>
 20028a4:	14 00 00 00 	CMP        $0,R2
 20028a8:	78 a8 00 24 	BNZ        @0x020028d0    // 20028d0 <_vfprintf_r+0x1048>
 20028ac:	c9 01 cd 24 	AND        $1,R9          | SW         R9,$36(SP)
 20028b0:	78 88 00 30 	BZ         @0x020028e4    // 20028e4 <_vfprintf_r+0x105c>
 20028b4:	1e 00 00 30 	LDI        $48,R3
 20028b8:	1d c7 40 bf 	SB         R3,$191(SP)
 20028bc:	2b 43 40 00 	MOV        SP,R5
 20028c0:	28 80 00 bf 	ADD        $191,R5
 20028c4:	2c c7 40 48 	SW         R5,$72(SP)
 20028c8:	2b 42 40 00 	MOV        R9,R5
 20028cc:	78 80 00 20 	BRA        @0x020028f0    // 20028f0 <_vfprintf_r+0x1068>
 20028d0:	1c c7 40 24 	SW         R3,$36(SP)
 20028d4:	2b 43 40 c0 	MOV        $192+SP,R5
 20028d8:	2c c7 40 48 	SW         R5,$72(SP)
 20028dc:	2b 40 c0 00 	MOV        R3,R5
 20028e0:	78 80 00 0c 	BRA        @0x020028f0    // 20028f0 <_vfprintf_r+0x1068>
 20028e4:	2b 43 40 c0 	MOV        $192+SP,R5
 20028e8:	2c c7 40 48 	SW         R5,$72(SP)
 20028ec:	2b 42 40 00 	MOV        R9,R5
 20028f0:	2c 05 80 00 	CMP        R6,R5
 20028f4:	2b 51 80 00 	MOV.LT     R6,R5
 20028f8:	ad 1c ae 00 	SW         R5,$28(SP)     | CLR        R5
 20028fc:	2c c7 40 4c 	SW         R5,$76(SP)
 2002900:	2c 87 40 2c 	LW         44(SP),R5
 2002904:	78 80 00 40 	BRA        @0x02002948    // 2002948 <_vfprintf_r+0x10c0>
 2002908:	0c 00 00 00 	CMP        $0,R1
 200290c:	25 ef 40 71 	SB.NZ      R4,$113(SP)
 2002910:	3c 00 00 00 	CMP        $0,R7
 2002914:	78 88 0d 38 	BZ         @0x02003650    // 2003650 <_vfprintf_r+0x1dc8>
 2002918:	3d c7 40 98 	SB         R7,$152(SP)
 200291c:	0e 00 00 00 	CLR        R1
 2002920:	0d c7 40 71 	SB         R1,$113(SP)
 2002924:	cd 20 ae 00 	SW         R9,$32(SP)     | CLR        R5
 2002928:	ad 2c ae 01 	SW         R5,$44(SP)     | LDI        $1,R5
 200292c:	ad 1c ad 24 	SW         R5,$28(SP)     | SW         R5,$36(SP)
 2002930:	36 00 00 00 	CLR        R6
 2002934:	34 c7 40 4c 	SW         R6,$76(SP)
 2002938:	2b 43 40 00 	MOV        SP,R5
 200293c:	28 80 00 98 	ADD        $152,R5
 2002940:	2c c7 40 48 	SW         R5,$72(SP)
 2002944:	78 80 00 10 	BRA        @0x02002958    // 2002958 <_vfprintf_r+0x10d0>
 2002948:	2c 00 00 00 	CMP        $0,R5
 200294c:	78 88 00 08 	BZ         @0x02002958    // 2002958 <_vfprintf_r+0x10d0>
 2002950:	ac 1c aa 01 	LW         28(SP),R5      | ADD        $1,R5
 2002954:	2c c7 40 1c 	SW         R5,$28(SP)
 2002958:	8c 20 89 02 	LW         32(SP),R1      | AND        $2,R1
 200295c:	0c c7 40 3c 	SW         R1,$60(SP)
 2002960:	78 88 00 08 	BZ         @0x0200296c    // 200296c <_vfprintf_r+0x10e4>
 2002964:	ac 1c aa 02 	LW         28(SP),R5      | ADD        $2,R5
 2002968:	2c c7 40 1c 	SW         R5,$28(SP)
 200296c:	4c 87 40 20 	LW         32(SP),R9
 2002970:	48 40 00 84 	AND        $132,R9
 2002974:	78 88 00 0c 	BZ         @0x02002984    // 2002984 <_vfprintf_r+0x10fc>
 2002978:	2c 87 40 94 	LW         148(SP),R5
 200297c:	0c 87 40 2c 	LW         44(SP),R1
 2002980:	78 80 00 ec 	BRA        @0x02002a70    // 2002a70 <_vfprintf_r+0x11e8>
 2002984:	ac 38 8c 1c 	LW         56(SP),R5      | LW         28(SP),R1
 2002988:	a8 88 ab 01 	SUB        R1,R5          | CMP        $1,R5
 200298c:	78 b0 00 0c 	BGE        @0x0200299c    // 200299c <_vfprintf_r+0x1114>
 2002990:	2c 87 40 94 	LW         148(SP),R5
 2002994:	0c 87 40 2c 	LW         44(SP),R1
 2002998:	78 80 00 d4 	BRA        @0x02002a70    // 2002a70 <_vfprintf_r+0x11e8>
 200299c:	2c 00 00 11 	CMP        $17,R5
 20029a0:	78 b0 00 0c 	BGE        @0x020029b0    // 20029b0 <_vfprintf_r+0x1128>
 20029a4:	14 87 40 94 	LW         148(SP),R2
 20029a8:	0c 87 40 90 	LW         144(SP),R1
 20029ac:	78 80 00 5c 	BRA        @0x02002a0c    // 2002a0c <_vfprintf_r+0x1184>
 20029b0:	14 87 40 94 	LW         148(SP),R2
 20029b4:	0c 87 40 90 	LW         144(SP),R1
 20029b8:	1a 03 00 40 	LDI        0x0200e310,R3  // 200e310 <blanks.4493>
 20029bc:	1a 40 e3 10 
 20029c0:	9d d8 a6 10 	SW         R3,(R11)       | LDI        $16,R4
 20029c4:	24 c6 c0 04 	SW         R4,$4(R11)
 20029c8:	10 85 00 00 	ADD        R4,R2
 20029cc:	14 c7 40 94 	SW         R2,$148(SP)
 20029d0:	08 80 00 01 	ADD        $1,R1
 20029d4:	0c c7 40 90 	SW         R1,$144(SP)
 20029d8:	da 08 8b 08 	ADD        $8,R11         | CMP        $8,R1
 20029dc:	78 90 00 24 	BLT        @0x02002a04    // 2002a04 <_vfprintf_r+0x117c>
 20029e0:	1b 43 40 8c 	MOV        $140+SP,R3
 20029e4:	97 c0 8f e0 	MOV        R8,R2          | MOV        R12,R1
 20029e8:	87 fa fc f8 	JSR        0x02009998     // 2009998 <__sprint_r>
 20029ec:	02 00 99 98 
 20029f0:	0c 00 00 00 	CMP        $0,R1
 20029f4:	78 a8 0c 88 	BNZ        @0x02003680    // 2003680 <_vfprintf_r+0x1df8>
 20029f8:	14 87 40 94 	LW         148(SP),R2
 20029fc:	0c 87 40 90 	LW         144(SP),R1
 2002a00:	5b 43 40 c0 	MOV        $192+SP,R11
 2002a04:	aa 70 ab 11 	ADD        $-16,R5        | CMP        $17,R5
 2002a08:	78 b3 ff ac 	BGE        @0x020029b8    // 20029b8 <_vfprintf_r+0x1130>
 2002a0c:	1a 03 00 40 	LDI        0x0200e310,R3  // 200e310 <blanks.4493>
 2002a10:	1a 40 e3 10 
 2002a14:	1c c6 c0 00 	SW         R3,(R11)
 2002a18:	2c c6 c0 04 	SW         R5,$4(R11)
 2002a1c:	28 84 80 00 	ADD        R2,R5
 2002a20:	2c c7 40 94 	SW         R5,$148(SP)
 2002a24:	08 80 00 01 	ADD        $1,R1
 2002a28:	0c c7 40 90 	SW         R1,$144(SP)
 2002a2c:	0c 00 00 08 	CMP        $8,R1
 2002a30:	78 b0 00 10 	BGE        @0x02002a44    // 2002a44 <_vfprintf_r+0x11bc>
 2002a34:	58 80 00 08 	ADD        $8,R11
 2002a38:	25 87 40 71 	LB         113(SP),R4
 2002a3c:	a5 2c 8f a0 	SW         R4,$44(SP)     | MOV        R4,R1
 2002a40:	78 80 00 2c 	BRA        @0x02002a70    // 2002a70 <_vfprintf_r+0x11e8>
 2002a44:	1b 43 40 8c 	MOV        $140+SP,R3
 2002a48:	97 c0 8f e0 	MOV        R8,R2          | MOV        R12,R1
 2002a4c:	87 fa fc f8 	JSR        0x02009998     // 2009998 <__sprint_r>
 2002a50:	02 00 99 98 
 2002a54:	0c 00 00 00 	CMP        $0,R1
 2002a58:	78 a8 0c 2c 	BNZ        @0x02003688    // 2003688 <_vfprintf_r+0x1e00>
 2002a5c:	2d 87 40 71 	LB         113(SP),R5
 2002a60:	2c c7 40 2c 	SW         R5,$44(SP)
 2002a64:	2c 87 40 94 	LW         148(SP),R5
 2002a68:	5b 43 40 c0 	MOV        $192+SP,R11
 2002a6c:	0c 87 40 2c 	LW         44(SP),R1
 2002a70:	0c 00 00 00 	CMP        $0,R1
 2002a74:	78 88 00 48 	BZ         @0x02002ac0    // 2002ac0 <_vfprintf_r+0x1238>
 2002a78:	13 43 40 71 	MOV        $113+SP,R2
 2002a7c:	95 d8 9e 01 	SW         R2,(R11)       | LDI        $1,R3
 2002a80:	1c c6 c0 04 	SW         R3,$4(R11)
 2002a84:	28 84 c0 00 	ADD        R3,R5
 2002a88:	2c c7 40 94 	SW         R5,$148(SP)
 2002a8c:	0c 87 40 90 	LW         144(SP),R1
 2002a90:	08 84 c0 00 	ADD        R3,R1
 2002a94:	0c c7 40 90 	SW         R1,$144(SP)
 2002a98:	da 08 8b 08 	ADD        $8,R11         | CMP        $8,R1
 2002a9c:	78 90 00 20 	BLT        @0x02002ac0    // 2002ac0 <_vfprintf_r+0x1238>
 2002aa0:	1b 43 40 8c 	MOV        $140+SP,R3
 2002aa4:	97 c0 8f e0 	MOV        R8,R2          | MOV        R12,R1
 2002aa8:	87 fa fc f8 	JSR        0x02009998     // 2009998 <__sprint_r>
 2002aac:	02 00 99 98 
 2002ab0:	0c 00 00 00 	CMP        $0,R1
 2002ab4:	78 a8 0b d8 	BNZ        @0x02003690    // 2003690 <_vfprintf_r+0x1e08>
 2002ab8:	2c 87 40 94 	LW         148(SP),R5
 2002abc:	5b 43 40 c0 	MOV        $192+SP,R11
 2002ac0:	a4 3c a3 00 	LW         60(SP),R4      | CMP        $0,R4
 2002ac4:	78 88 00 48 	BZ         @0x02002b10    // 2002b10 <_vfprintf_r+0x1288>
 2002ac8:	0b 43 40 72 	MOV        $114+SP,R1
 2002acc:	8d d8 96 02 	SW         R1,(R11)       | LDI        $2,R2
 2002ad0:	14 c6 c0 04 	SW         R2,$4(R11)
 2002ad4:	28 84 80 00 	ADD        R2,R5
 2002ad8:	2c c7 40 94 	SW         R5,$148(SP)
 2002adc:	0c 87 40 90 	LW         144(SP),R1
 2002ae0:	08 80 00 01 	ADD        $1,R1
 2002ae4:	0c c7 40 90 	SW         R1,$144(SP)
 2002ae8:	da 08 8b 08 	ADD        $8,R11         | CMP        $8,R1
 2002aec:	78 90 00 20 	BLT        @0x02002b10    // 2002b10 <_vfprintf_r+0x1288>
 2002af0:	1b 43 40 8c 	MOV        $140+SP,R3
 2002af4:	97 c0 8f e0 	MOV        R8,R2          | MOV        R12,R1
 2002af8:	87 fa fc f8 	JSR        0x02009998     // 2009998 <__sprint_r>
 2002afc:	02 00 99 98 
 2002b00:	0c 00 00 00 	CMP        $0,R1
 2002b04:	78 a8 0b 90 	BNZ        @0x02003698    // 2003698 <_vfprintf_r+0x1e10>
 2002b08:	2c 87 40 94 	LW         148(SP),R5
 2002b0c:	5b 43 40 c0 	MOV        $192+SP,R11
 2002b10:	4c 00 00 80 	CMP        $128,R9
 2002b14:	78 a8 00 b8 	BNZ        @0x02002bd0    // 2002bd0 <_vfprintf_r+0x1348>
 2002b18:	cc 38 9c 1c 	LW         56(SP),R9      | LW         28(SP),R3
 2002b1c:	c8 98 cb 01 	SUB        R3,R9          | CMP        $1,R9
 2002b20:	78 90 00 ac 	BLT        @0x02002bd0    // 2002bd0 <_vfprintf_r+0x1348>
 2002b24:	0c 87 40 90 	LW         144(SP),R1
 2002b28:	4c 00 00 11 	CMP        $17,R9
 2002b2c:	78 90 00 58 	BLT        @0x02002b88    // 2002b88 <_vfprintf_r+0x1300>
 2002b30:	0c 87 40 90 	LW         144(SP),R1
 2002b34:	22 03 00 40 	LDI        0x0200e300,R4  // 200e300 <zeroes.4494>
 2002b38:	22 40 e3 00 
 2002b3c:	a5 d8 96 10 	SW         R4,(R11)       | LDI        $16,R2
 2002b40:	14 c6 c0 04 	SW         R2,$4(R11)
 2002b44:	28 84 80 00 	ADD        R2,R5
 2002b48:	2c c7 40 94 	SW         R5,$148(SP)
 2002b4c:	08 80 00 01 	ADD        $1,R1
 2002b50:	0c c7 40 90 	SW         R1,$144(SP)
 2002b54:	da 08 8b 08 	ADD        $8,R11         | CMP        $8,R1
 2002b58:	78 90 00 24 	BLT        @0x02002b80    // 2002b80 <_vfprintf_r+0x12f8>
 2002b5c:	1b 43 40 8c 	MOV        $140+SP,R3
 2002b60:	97 c0 8f e0 	MOV        R8,R2          | MOV        R12,R1
 2002b64:	87 fa fc f8 	JSR        0x02009998     // 2009998 <__sprint_r>
 2002b68:	02 00 99 98 
 2002b6c:	0c 00 00 00 	CMP        $0,R1
 2002b70:	78 a8 0b 2c 	BNZ        @0x020036a0    // 20036a0 <_vfprintf_r+0x1e18>
 2002b74:	2c 87 40 94 	LW         148(SP),R5
 2002b78:	0c 87 40 90 	LW         144(SP),R1
 2002b7c:	5b 43 40 c0 	MOV        $192+SP,R11
 2002b80:	ca 70 cb 11 	ADD        $-16,R9        | CMP        $17,R9
 2002b84:	78 b3 ff ac 	BGE        @0x02002b34    // 2002b34 <_vfprintf_r+0x12ac>
 2002b88:	1a 03 00 40 	LDI        0x0200e300,R3  // 200e300 <zeroes.4494>
 2002b8c:	1a 40 e3 00 
 2002b90:	1c c6 c0 00 	SW         R3,(R11)
 2002b94:	4c c6 c0 04 	SW         R9,$4(R11)
 2002b98:	28 86 40 00 	ADD        R9,R5
 2002b9c:	2c c7 40 94 	SW         R5,$148(SP)
 2002ba0:	08 80 00 01 	ADD        $1,R1
 2002ba4:	0c c7 40 90 	SW         R1,$144(SP)
 2002ba8:	da 08 8b 08 	ADD        $8,R11         | CMP        $8,R1
 2002bac:	78 90 00 20 	BLT        @0x02002bd0    // 2002bd0 <_vfprintf_r+0x1348>
 2002bb0:	1b 43 40 8c 	MOV        $140+SP,R3
 2002bb4:	97 c0 8f e0 	MOV        R8,R2          | MOV        R12,R1
 2002bb8:	87 fa fc f8 	JSR        0x02009998     // 2009998 <__sprint_r>
 2002bbc:	02 00 99 98 
 2002bc0:	0c 00 00 00 	CMP        $0,R1
 2002bc4:	78 a8 0a e0 	BNZ        @0x020036a8    // 20036a8 <_vfprintf_r+0x1e20>
 2002bc8:	2c 87 40 94 	LW         148(SP),R5
 2002bcc:	5b 43 40 c0 	MOV        $192+SP,R11
 2002bd0:	a4 24 b0 a0 	LW         36(SP),R4      | SUB        R4,R6
 2002bd4:	34 00 00 01 	CMP        $1,R6
 2002bd8:	78 90 00 ac 	BLT        @0x02002c88    // 2002c88 <_vfprintf_r+0x1400>
 2002bdc:	0c 87 40 90 	LW         144(SP),R1
 2002be0:	34 00 00 11 	CMP        $17,R6
 2002be4:	78 90 00 58 	BLT        @0x02002c40    // 2002c40 <_vfprintf_r+0x13b8>
 2002be8:	0c 87 40 90 	LW         144(SP),R1
 2002bec:	12 03 00 40 	LDI        0x0200e300,R2  // 200e300 <zeroes.4494>
 2002bf0:	12 40 e3 00 
 2002bf4:	95 d8 9e 10 	SW         R2,(R11)       | LDI        $16,R3
 2002bf8:	1c c6 c0 04 	SW         R3,$4(R11)
 2002bfc:	28 84 c0 00 	ADD        R3,R5
 2002c00:	2c c7 40 94 	SW         R5,$148(SP)
 2002c04:	08 80 00 01 	ADD        $1,R1
 2002c08:	0c c7 40 90 	SW         R1,$144(SP)
 2002c0c:	da 08 8b 08 	ADD        $8,R11         | CMP        $8,R1
 2002c10:	78 90 00 24 	BLT        @0x02002c38    // 2002c38 <_vfprintf_r+0x13b0>
 2002c14:	1b 43 40 8c 	MOV        $140+SP,R3
 2002c18:	97 c0 8f e0 	MOV        R8,R2          | MOV        R12,R1
 2002c1c:	87 fa fc f8 	JSR        0x02009998     // 2009998 <__sprint_r>
 2002c20:	02 00 99 98 
 2002c24:	0c 00 00 00 	CMP        $0,R1
 2002c28:	78 a8 0a 84 	BNZ        @0x020036b0    // 20036b0 <_vfprintf_r+0x1e28>
 2002c2c:	2c 87 40 94 	LW         148(SP),R5
 2002c30:	0c 87 40 90 	LW         144(SP),R1
 2002c34:	5b 43 40 c0 	MOV        $192+SP,R11
 2002c38:	b2 70 b3 11 	ADD        $-16,R6        | CMP        $17,R6
 2002c3c:	78 b3 ff ac 	BGE        @0x02002bec    // 2002bec <_vfprintf_r+0x1364>
 2002c40:	22 03 00 40 	LDI        0x0200e300,R4  // 200e300 <zeroes.4494>
 2002c44:	22 40 e3 00 
 2002c48:	24 c6 c0 00 	SW         R4,(R11)
 2002c4c:	34 c6 c0 04 	SW         R6,$4(R11)
 2002c50:	28 85 80 00 	ADD        R6,R5
 2002c54:	2c c7 40 94 	SW         R5,$148(SP)
 2002c58:	08 80 00 01 	ADD        $1,R1
 2002c5c:	0c c7 40 90 	SW         R1,$144(SP)
 2002c60:	da 08 8b 08 	ADD        $8,R11         | CMP        $8,R1
 2002c64:	78 90 00 20 	BLT        @0x02002c88    // 2002c88 <_vfprintf_r+0x1400>
 2002c68:	1b 43 40 8c 	MOV        $140+SP,R3
 2002c6c:	97 c0 8f e0 	MOV        R8,R2          | MOV        R12,R1
 2002c70:	87 fa fc f8 	JSR        0x02009998     // 2009998 <__sprint_r>
 2002c74:	02 00 99 98 
 2002c78:	0c 00 00 00 	CMP        $0,R1
 2002c7c:	78 a8 0a 38 	BNZ        @0x020036b8    // 20036b8 <_vfprintf_r+0x1e30>
 2002c80:	2c 87 40 94 	LW         148(SP),R5
 2002c84:	5b 43 40 c0 	MOV        $192+SP,R11
 2002c88:	0c 87 40 20 	LW         32(SP),R1
 2002c8c:	08 40 01 00 	AND        $256,R1
 2002c90:	78 a8 00 4c 	BNZ        @0x02002ce0    // 2002ce0 <_vfprintf_r+0x1458>
 2002c94:	3c 87 40 48 	LW         72(SP),R7
 2002c98:	bd d8 a4 24 	SW         R7,(R11)       | LW         36(SP),R4
 2002c9c:	24 c6 c0 04 	SW         R4,$4(R11)
 2002ca0:	28 85 00 00 	ADD        R4,R5
 2002ca4:	2c c7 40 94 	SW         R5,$148(SP)
 2002ca8:	0c 87 40 90 	LW         144(SP),R1
 2002cac:	08 80 00 01 	ADD        $1,R1
 2002cb0:	0c c7 40 90 	SW         R1,$144(SP)
 2002cb4:	da 08 8b 08 	ADD        $8,R11         | CMP        $8,R1
 2002cb8:	78 90 08 90 	BLT        @0x0200354c    // 200354c <_vfprintf_r+0x1cc4>
 2002cbc:	1b 43 40 8c 	MOV        $140+SP,R3
 2002cc0:	97 c0 8f e0 	MOV        R8,R2          | MOV        R12,R1
 2002cc4:	87 fa fc f8 	JSR        0x02009998     // 2009998 <__sprint_r>
 2002cc8:	02 00 99 98 
 2002ccc:	0c 00 00 00 	CMP        $0,R1
 2002cd0:	78 a8 09 ec 	BNZ        @0x020036c0    // 20036c0 <_vfprintf_r+0x1e38>
 2002cd4:	2c 87 40 94 	LW         148(SP),R5
 2002cd8:	5b 43 40 c0 	MOV        $192+SP,R11
 2002cdc:	78 80 08 6c 	BRA        @0x0200354c    // 200354c <_vfprintf_r+0x1cc4>
 2002ce0:	3c 00 00 66 	CMP        $102,R7
 2002ce4:	78 90 06 04 	BLT        @0x020032ec    // 20032ec <_vfprintf_r+0x1a64>
 2002ce8:	9e 00 a6 00 	CLR        R3             | CLR        R4
 2002cec:	0c 87 40 58 	LW         88(SP),R1
 2002cf0:	14 87 40 54 	LW         84(SP),R2
 2002cf4:	87 fa fc f8 	JSR        0x0200d500     // 200d500 <__eqdf2>
 2002cf8:	02 00 d5 00 
 2002cfc:	0c 00 00 00 	CMP        $0,R1
 2002d00:	78 a8 01 70 	BNZ        @0x02002e74    // 2002e74 <_vfprintf_r+0x15ec>
 2002d04:	3a 03 00 40 	LDI        0x0200e2fc,R7  // 200e2fc <__call_exitprocs+0x2d8>
 2002d08:	3a 40 e2 fc 
 2002d0c:	bd d8 8e 01 	SW         R7,(R11)       | LDI        $1,R1
 2002d10:	0c c6 c0 04 	SW         R1,$4(R11)
 2002d14:	28 84 40 00 	ADD        R1,R5
 2002d18:	2c c7 40 94 	SW         R5,$148(SP)
 2002d1c:	0c 87 40 90 	LW         144(SP),R1
 2002d20:	08 80 00 01 	ADD        $1,R1
 2002d24:	0c c7 40 90 	SW         R1,$144(SP)
 2002d28:	da 08 8b 08 	ADD        $8,R11         | CMP        $8,R1
 2002d2c:	78 90 00 1c 	BLT        @0x02002d4c    // 2002d4c <_vfprintf_r+0x14c4>
 2002d30:	1b 43 40 8c 	MOV        $140+SP,R3
 2002d34:	97 c0 8f e0 	MOV        R8,R2          | MOV        R12,R1
 2002d38:	87 fa fc f8 	JSR        0x02009998     // 2009998 <__sprint_r>
 2002d3c:	02 00 99 98 
 2002d40:	0c 00 00 00 	CMP        $0,R1
 2002d44:	78 a8 09 80 	BNZ        @0x020036c8    // 20036c8 <_vfprintf_r+0x1e40>
 2002d48:	5b 43 40 c0 	MOV        $192+SP,R11
 2002d4c:	0c 87 40 74 	LW         116(SP),R1
 2002d50:	ac 34 8b a8 	LW         52(SP),R5      | CMP        R5,R1
 2002d54:	78 90 00 10 	BLT        @0x02002d68    // 2002d68 <_vfprintf_r+0x14e0>
 2002d58:	8c 20 89 01 	LW         32(SP),R1      | AND        $1,R1
 2002d5c:	78 a8 00 08 	BNZ        @0x02002d68    // 2002d68 <_vfprintf_r+0x14e0>
 2002d60:	2c 87 40 94 	LW         148(SP),R5
 2002d64:	78 80 07 e4 	BRA        @0x0200354c    // 200354c <_vfprintf_r+0x1cc4>
 2002d68:	3c 87 40 50 	LW         80(SP),R7
 2002d6c:	3c c6 c0 00 	SW         R7,(R11)
 2002d70:	3c 87 40 5c 	LW         92(SP),R7
 2002d74:	3c c6 c0 04 	SW         R7,$4(R11)
 2002d78:	0c 87 40 94 	LW         148(SP),R1
 2002d7c:	af b8 aa 88 	MOV        R7,R5          | ADD        R1,R5
 2002d80:	2c c7 40 94 	SW         R5,$148(SP)
 2002d84:	0c 87 40 90 	LW         144(SP),R1
 2002d88:	08 80 00 01 	ADD        $1,R1
 2002d8c:	0c c7 40 90 	SW         R1,$144(SP)
 2002d90:	da 08 8b 08 	ADD        $8,R11         | CMP        $8,R1
 2002d94:	78 90 00 20 	BLT        @0x02002db8    // 2002db8 <_vfprintf_r+0x1530>
 2002d98:	1b 43 40 8c 	MOV        $140+SP,R3
 2002d9c:	97 c0 8f e0 	MOV        R8,R2          | MOV        R12,R1
 2002da0:	87 fa fc f8 	JSR        0x02009998     // 2009998 <__sprint_r>
 2002da4:	02 00 99 98 
 2002da8:	0c 00 00 00 	CMP        $0,R1
 2002dac:	78 a8 09 20 	BNZ        @0x020036d0    // 20036d0 <_vfprintf_r+0x1e48>
 2002db0:	2c 87 40 94 	LW         148(SP),R5
 2002db4:	5b 43 40 c0 	MOV        $192+SP,R11
 2002db8:	b4 34 b2 7f 	LW         52(SP),R6      | ADD        $-1,R6
 2002dbc:	34 00 00 01 	CMP        $1,R6
 2002dc0:	78 90 07 88 	BLT        @0x0200354c    // 200354c <_vfprintf_r+0x1cc4>
 2002dc4:	0c 87 40 90 	LW         144(SP),R1
 2002dc8:	34 00 00 11 	CMP        $17,R6
 2002dcc:	78 90 00 58 	BLT        @0x02002e28    // 2002e28 <_vfprintf_r+0x15a0>
 2002dd0:	0c 87 40 90 	LW         144(SP),R1
 2002dd4:	12 03 00 40 	LDI        0x0200e300,R2  // 200e300 <zeroes.4494>
 2002dd8:	12 40 e3 00 
 2002ddc:	95 d8 9e 10 	SW         R2,(R11)       | LDI        $16,R3
 2002de0:	1c c6 c0 04 	SW         R3,$4(R11)
 2002de4:	28 84 c0 00 	ADD        R3,R5
 2002de8:	2c c7 40 94 	SW         R5,$148(SP)
 2002dec:	08 80 00 01 	ADD        $1,R1
 2002df0:	0c c7 40 90 	SW         R1,$144(SP)
 2002df4:	da 08 8b 08 	ADD        $8,R11         | CMP        $8,R1
 2002df8:	78 90 00 24 	BLT        @0x02002e20    // 2002e20 <_vfprintf_r+0x1598>
 2002dfc:	1b 43 40 8c 	MOV        $140+SP,R3
 2002e00:	97 c0 8f e0 	MOV        R8,R2          | MOV        R12,R1
 2002e04:	87 fa fc f8 	JSR        0x02009998     // 2009998 <__sprint_r>
 2002e08:	02 00 99 98 
 2002e0c:	0c 00 00 00 	CMP        $0,R1
 2002e10:	78 a8 08 c4 	BNZ        @0x020036d8    // 20036d8 <_vfprintf_r+0x1e50>
 2002e14:	2c 87 40 94 	LW         148(SP),R5
 2002e18:	0c 87 40 90 	LW         144(SP),R1
 2002e1c:	5b 43 40 c0 	MOV        $192+SP,R11
 2002e20:	b2 70 b3 11 	ADD        $-16,R6        | CMP        $17,R6
 2002e24:	78 b3 ff ac 	BGE        @0x02002dd4    // 2002dd4 <_vfprintf_r+0x154c>
 2002e28:	22 03 00 40 	LDI        0x0200e300,R4  // 200e300 <zeroes.4494>
 2002e2c:	22 40 e3 00 
 2002e30:	24 c6 c0 00 	SW         R4,(R11)
 2002e34:	34 c6 c0 04 	SW         R6,$4(R11)
 2002e38:	28 85 80 00 	ADD        R6,R5
 2002e3c:	2c c7 40 94 	SW         R5,$148(SP)
 2002e40:	08 80 00 01 	ADD        $1,R1
 2002e44:	0c c7 40 90 	SW         R1,$144(SP)
 2002e48:	da 08 8b 08 	ADD        $8,R11         | CMP        $8,R1
 2002e4c:	78 90 06 fc 	BLT        @0x0200354c    // 200354c <_vfprintf_r+0x1cc4>
 2002e50:	1b 43 40 8c 	MOV        $140+SP,R3
 2002e54:	97 c0 8f e0 	MOV        R8,R2          | MOV        R12,R1
 2002e58:	87 fa fc f8 	JSR        0x02009998     // 2009998 <__sprint_r>
 2002e5c:	02 00 99 98 
 2002e60:	0c 00 00 00 	CMP        $0,R1
 2002e64:	78 a8 08 78 	BNZ        @0x020036e0    // 20036e0 <_vfprintf_r+0x1e58>
 2002e68:	2c 87 40 94 	LW         148(SP),R5
 2002e6c:	5b 43 40 c0 	MOV        $192+SP,R11
 2002e70:	78 80 06 d8 	BRA        @0x0200354c    // 200354c <_vfprintf_r+0x1cc4>
 2002e74:	14 87 40 74 	LW         116(SP),R2
 2002e78:	14 00 00 01 	CMP        $1,R2
 2002e7c:	78 b0 01 b8 	BGE        @0x02003038    // 2003038 <_vfprintf_r+0x17b0>
 2002e80:	3a 03 00 40 	LDI        0x0200e2fc,R7  // 200e2fc <__call_exitprocs+0x2d8>
 2002e84:	3a 40 e2 fc 
 2002e88:	bd d8 8e 01 	SW         R7,(R11)       | LDI        $1,R1
 2002e8c:	0c c6 c0 04 	SW         R1,$4(R11)
 2002e90:	28 84 40 00 	ADD        R1,R5
 2002e94:	2c c7 40 94 	SW         R5,$148(SP)
 2002e98:	0c 87 40 90 	LW         144(SP),R1
 2002e9c:	08 80 00 01 	ADD        $1,R1
 2002ea0:	0c c7 40 90 	SW         R1,$144(SP)
 2002ea4:	da 08 8b 08 	ADD        $8,R11         | CMP        $8,R1
 2002ea8:	78 90 00 24 	BLT        @0x02002ed0    // 2002ed0 <_vfprintf_r+0x1648>
 2002eac:	1b 43 40 8c 	MOV        $140+SP,R3
 2002eb0:	97 c0 8f e0 	MOV        R8,R2          | MOV        R12,R1
 2002eb4:	87 fa fc f8 	JSR        0x02009998     // 2009998 <__sprint_r>
 2002eb8:	02 00 99 98 
 2002ebc:	0c 00 00 00 	CMP        $0,R1
 2002ec0:	78 a8 08 24 	BNZ        @0x020036e8    // 20036e8 <_vfprintf_r+0x1e60>
 2002ec4:	14 87 40 74 	LW         116(SP),R2
 2002ec8:	2c 87 40 94 	LW         148(SP),R5
 2002ecc:	5b 43 40 c0 	MOV        $192+SP,R11
 2002ed0:	0c 87 40 34 	LW         52(SP),R1
 2002ed4:	08 c4 80 00 	OR         R2,R1
 2002ed8:	78 a8 00 08 	BNZ        @0x02002ee4    // 2002ee4 <_vfprintf_r+0x165c>
 2002edc:	8c 20 89 01 	LW         32(SP),R1      | AND        $1,R1
 2002ee0:	78 88 06 68 	BZ         @0x0200354c    // 200354c <_vfprintf_r+0x1cc4>
 2002ee4:	3c 87 40 50 	LW         80(SP),R7
 2002ee8:	3c c6 c0 00 	SW         R7,(R11)
 2002eec:	3c 87 40 5c 	LW         92(SP),R7
 2002ef0:	3c c6 c0 04 	SW         R7,$4(R11)
 2002ef4:	9f b8 9a a8 	MOV        R7,R3          | ADD        R5,R3
 2002ef8:	1c c7 40 94 	SW         R3,$148(SP)
 2002efc:	0c 87 40 90 	LW         144(SP),R1
 2002f00:	08 80 00 01 	ADD        $1,R1
 2002f04:	0c c7 40 90 	SW         R1,$144(SP)
 2002f08:	da 08 8b 08 	ADD        $8,R11         | CMP        $8,R1
 2002f0c:	78 90 00 28 	BLT        @0x02002f38    // 2002f38 <_vfprintf_r+0x16b0>
 2002f10:	1b 43 40 8c 	MOV        $140+SP,R3
 2002f14:	97 c0 8f e0 	MOV        R8,R2          | MOV        R12,R1
 2002f18:	87 fa fc f8 	JSR        0x02009998     // 2009998 <__sprint_r>
 2002f1c:	02 00 99 98 
 2002f20:	0c 00 00 00 	CMP        $0,R1
 2002f24:	78 a8 07 c8 	BNZ        @0x020036f0    // 20036f0 <_vfprintf_r+0x1e68>
 2002f28:	14 87 40 74 	LW         116(SP),R2
 2002f2c:	1c 87 40 94 	LW         148(SP),R3
 2002f30:	0c 87 40 90 	LW         144(SP),R1
 2002f34:	5b 43 40 c0 	MOV        $192+SP,R11
 2002f38:	14 00 00 00 	CMP        $0,R2
 2002f3c:	78 b0 00 b0 	BGE        @0x02002ff0    // 2002ff0 <_vfprintf_r+0x1768>
 2002f40:	2b 40 9f ff 	MOV        $-1+R2,R5
 2002f44:	29 03 ff ff 	XOR        $-1,R5
 2002f48:	14 03 ff f0 	CMP        $-16,R2
 2002f4c:	78 b0 00 54 	BGE        @0x02002fa4    // 2002fa4 <_vfprintf_r+0x171c>
 2002f50:	12 03 00 40 	LDI        0x0200e300,R2  // 200e300 <zeroes.4494>
 2002f54:	12 40 e3 00 
 2002f58:	95 d8 a6 10 	SW         R2,(R11)       | LDI        $16,R4
 2002f5c:	24 c6 c0 04 	SW         R4,$4(R11)
 2002f60:	18 85 00 00 	ADD        R4,R3
 2002f64:	1c c7 40 94 	SW         R3,$148(SP)
 2002f68:	08 80 00 01 	ADD        $1,R1
 2002f6c:	0c c7 40 90 	SW         R1,$144(SP)
 2002f70:	da 08 8b 08 	ADD        $8,R11         | CMP        $8,R1
 2002f74:	78 90 00 24 	BLT        @0x02002f9c    // 2002f9c <_vfprintf_r+0x1714>
 2002f78:	1b 43 40 8c 	MOV        $140+SP,R3
 2002f7c:	97 c0 8f e0 	MOV        R8,R2          | MOV        R12,R1
 2002f80:	87 fa fc f8 	JSR        0x02009998     // 2009998 <__sprint_r>
 2002f84:	02 00 99 98 
 2002f88:	0c 00 00 00 	CMP        $0,R1
 2002f8c:	78 a8 07 68 	BNZ        @0x020036f8    // 20036f8 <_vfprintf_r+0x1e70>
 2002f90:	1c 87 40 94 	LW         148(SP),R3
 2002f94:	0c 87 40 90 	LW         144(SP),R1
 2002f98:	5b 43 40 c0 	MOV        $192+SP,R11
 2002f9c:	aa 70 ab 11 	ADD        $-16,R5        | CMP        $17,R5
 2002fa0:	78 b3 ff ac 	BGE        @0x02002f50    // 2002f50 <_vfprintf_r+0x16c8>
 2002fa4:	3a 03 00 40 	LDI        0x0200e300,R7  // 200e300 <zeroes.4494>
 2002fa8:	3a 40 e3 00 
 2002fac:	3c c6 c0 00 	SW         R7,(R11)
 2002fb0:	2c c6 c0 04 	SW         R5,$4(R11)
 2002fb4:	18 85 40 00 	ADD        R5,R3
 2002fb8:	1c c7 40 94 	SW         R3,$148(SP)
 2002fbc:	da 08 8a 01 	ADD        $8,R11         | ADD        $1,R1
 2002fc0:	0c c7 40 90 	SW         R1,$144(SP)
 2002fc4:	0c 00 00 08 	CMP        $8,R1
 2002fc8:	78 90 00 24 	BLT        @0x02002ff0    // 2002ff0 <_vfprintf_r+0x1768>
 2002fcc:	1b 43 40 8c 	MOV        $140+SP,R3
 2002fd0:	97 c0 8f e0 	MOV        R8,R2          | MOV        R12,R1
 2002fd4:	87 fa fc f8 	JSR        0x02009998     // 2009998 <__sprint_r>
 2002fd8:	02 00 99 98 
 2002fdc:	0c 00 00 00 	CMP        $0,R1
 2002fe0:	78 a8 07 1c 	BNZ        @0x02003700    // 2003700 <_vfprintf_r+0x1e78>
 2002fe4:	1c 87 40 94 	LW         148(SP),R3
 2002fe8:	0c 87 40 90 	LW         144(SP),R1
 2002fec:	5b 43 40 c0 	MOV        $192+SP,R11
 2002ff0:	2c 87 40 48 	LW         72(SP),R5
 2002ff4:	ad d8 bc 34 	SW         R5,(R11)       | LW         52(SP),R7
 2002ff8:	3c c6 c0 04 	SW         R7,$4(R11)
 2002ffc:	af b8 aa 98 	MOV        R7,R5          | ADD        R3,R5
 2003000:	2c c7 40 94 	SW         R5,$148(SP)
 2003004:	08 80 00 01 	ADD        $1,R1
 2003008:	0c c7 40 90 	SW         R1,$144(SP)
 200300c:	da 08 8b 08 	ADD        $8,R11         | CMP        $8,R1
 2003010:	78 90 05 38 	BLT        @0x0200354c    // 200354c <_vfprintf_r+0x1cc4>
 2003014:	1b 43 40 8c 	MOV        $140+SP,R3
 2003018:	97 c0 8f e0 	MOV        R8,R2          | MOV        R12,R1
 200301c:	87 fa fc f8 	JSR        0x02009998     // 2009998 <__sprint_r>
 2003020:	02 00 99 98 
 2003024:	0c 00 00 00 	CMP        $0,R1
 2003028:	78 a8 06 dc 	BNZ        @0x02003708    // 2003708 <_vfprintf_r+0x1e80>
 200302c:	2c 87 40 94 	LW         148(SP),R5
 2003030:	5b 43 40 c0 	MOV        $192+SP,R11
 2003034:	78 80 05 14 	BRA        @0x0200354c    // 200354c <_vfprintf_r+0x1cc4>
 2003038:	34 87 40 4c 	LW         76(SP),R6
 200303c:	bc 34 b3 b8 	LW         52(SP),R7      | CMP        R7,R6
 2003040:	33 71 c0 00 	MOV.GE     R7,R6
 2003044:	34 00 00 01 	CMP        $1,R6
 2003048:	78 90 00 48 	BLT        @0x02003094    // 2003094 <_vfprintf_r+0x180c>
 200304c:	3c 87 40 48 	LW         72(SP),R7
 2003050:	3c c6 c0 00 	SW         R7,(R11)
 2003054:	34 c6 c0 04 	SW         R6,$4(R11)
 2003058:	28 85 80 00 	ADD        R6,R5
 200305c:	2c c7 40 94 	SW         R5,$148(SP)
 2003060:	0c 87 40 90 	LW         144(SP),R1
 2003064:	08 80 00 01 	ADD        $1,R1
 2003068:	0c c7 40 90 	SW         R1,$144(SP)
 200306c:	da 08 8b 08 	ADD        $8,R11         | CMP        $8,R1
 2003070:	78 90 00 20 	BLT        @0x02003094    // 2003094 <_vfprintf_r+0x180c>
 2003074:	1b 43 40 8c 	MOV        $140+SP,R3
 2003078:	97 c0 8f e0 	MOV        R8,R2          | MOV        R12,R1
 200307c:	87 fa fc f8 	JSR        0x02009998     // 2009998 <__sprint_r>
 2003080:	02 00 99 98 
 2003084:	0c 00 00 00 	CMP        $0,R1
 2003088:	78 a8 06 84 	BNZ        @0x02003710    // 2003710 <_vfprintf_r+0x1e88>
 200308c:	2c 87 40 94 	LW         148(SP),R5
 2003090:	5b 43 40 c0 	MOV        $192+SP,R11
 2003094:	8e 00 8b b0 	CLR        R1             | CMP        R6,R1
 2003098:	0b 51 80 00 	MOV.LT     R6,R1
 200309c:	34 87 40 4c 	LW         76(SP),R6
 20030a0:	b0 88 b3 01 	SUB        R1,R6          | CMP        $1,R6
 20030a4:	78 90 00 ac 	BLT        @0x02003154    // 2003154 <_vfprintf_r+0x18cc>
 20030a8:	0c 87 40 90 	LW         144(SP),R1
 20030ac:	34 00 00 11 	CMP        $17,R6
 20030b0:	78 90 00 58 	BLT        @0x0200310c    // 200310c <_vfprintf_r+0x1884>
 20030b4:	0c 87 40 90 	LW         144(SP),R1
 20030b8:	12 03 00 40 	LDI        0x0200e300,R2  // 200e300 <zeroes.4494>
 20030bc:	12 40 e3 00 
 20030c0:	95 d8 9e 10 	SW         R2,(R11)       | LDI        $16,R3
 20030c4:	1c c6 c0 04 	SW         R3,$4(R11)
 20030c8:	28 84 c0 00 	ADD        R3,R5
 20030cc:	2c c7 40 94 	SW         R5,$148(SP)
 20030d0:	08 80 00 01 	ADD        $1,R1
 20030d4:	0c c7 40 90 	SW         R1,$144(SP)
 20030d8:	da 08 8b 08 	ADD        $8,R11         | CMP        $8,R1
 20030dc:	78 90 00 24 	BLT        @0x02003104    // 2003104 <_vfprintf_r+0x187c>
 20030e0:	1b 43 40 8c 	MOV        $140+SP,R3
 20030e4:	97 c0 8f e0 	MOV        R8,R2          | MOV        R12,R1
 20030e8:	87 fa fc f8 	JSR        0x02009998     // 2009998 <__sprint_r>
 20030ec:	02 00 99 98 
 20030f0:	0c 00 00 00 	CMP        $0,R1
 20030f4:	78 a8 06 20 	BNZ        @0x02003718    // 2003718 <_vfprintf_r+0x1e90>
 20030f8:	2c 87 40 94 	LW         148(SP),R5
 20030fc:	0c 87 40 90 	LW         144(SP),R1
 2003100:	5b 43 40 c0 	MOV        $192+SP,R11
 2003104:	b2 70 b3 11 	ADD        $-16,R6        | CMP        $17,R6
 2003108:	78 b3 ff ac 	BGE        @0x020030b8    // 20030b8 <_vfprintf_r+0x1830>
 200310c:	22 03 00 40 	LDI        0x0200e300,R4  // 200e300 <zeroes.4494>
 2003110:	22 40 e3 00 
 2003114:	24 c6 c0 00 	SW         R4,(R11)
 2003118:	34 c6 c0 04 	SW         R6,$4(R11)
 200311c:	28 85 80 00 	ADD        R6,R5
 2003120:	2c c7 40 94 	SW         R5,$148(SP)
 2003124:	08 80 00 01 	ADD        $1,R1
 2003128:	0c c7 40 90 	SW         R1,$144(SP)
 200312c:	da 08 8b 08 	ADD        $8,R11         | CMP        $8,R1
 2003130:	78 90 00 20 	BLT        @0x02003154    // 2003154 <_vfprintf_r+0x18cc>
 2003134:	1b 43 40 8c 	MOV        $140+SP,R3
 2003138:	97 c0 8f e0 	MOV        R8,R2          | MOV        R12,R1
 200313c:	87 fa fc f8 	JSR        0x02009998     // 2009998 <__sprint_r>
 2003140:	02 00 99 98 
 2003144:	0c 00 00 00 	CMP        $0,R1
 2003148:	78 a8 05 d4 	BNZ        @0x02003720    // 2003720 <_vfprintf_r+0x1e98>
 200314c:	2c 87 40 94 	LW         148(SP),R5
 2003150:	5b 43 40 c0 	MOV        $192+SP,R11
 2003154:	14 87 40 74 	LW         116(SP),R2
 2003158:	bc 34 93 b8 	LW         52(SP),R7      | CMP        R7,R2
 200315c:	78 90 00 08 	BLT        @0x02003168    // 2003168 <_vfprintf_r+0x18e0>
 2003160:	8c 20 89 01 	LW         32(SP),R1      | AND        $1,R1
 2003164:	78 88 00 5c 	BZ         @0x020031c4    // 20031c4 <_vfprintf_r+0x193c>
 2003168:	3c 87 40 50 	LW         80(SP),R7
 200316c:	3c c6 c0 00 	SW         R7,(R11)
 2003170:	3c 87 40 5c 	LW         92(SP),R7
 2003174:	3c c6 c0 04 	SW         R7,$4(R11)
 2003178:	28 85 c0 00 	ADD        R7,R5
 200317c:	2c c7 40 94 	SW         R5,$148(SP)
 2003180:	0c 87 40 90 	LW         144(SP),R1
 2003184:	08 80 00 01 	ADD        $1,R1
 2003188:	0c c7 40 90 	SW         R1,$144(SP)
 200318c:	0c 00 00 08 	CMP        $8,R1
 2003190:	78 b0 00 08 	BGE        @0x0200319c    // 200319c <_vfprintf_r+0x1914>
 2003194:	da 08 bc 34 	ADD        $8,R11         | LW         52(SP),R7
 2003198:	78 80 00 28 	BRA        @0x020031c4    // 20031c4 <_vfprintf_r+0x193c>
 200319c:	1b 43 40 8c 	MOV        $140+SP,R3
 20031a0:	97 c0 8f e0 	MOV        R8,R2          | MOV        R12,R1
 20031a4:	87 fa fc f8 	JSR        0x02009998     // 2009998 <__sprint_r>
 20031a8:	02 00 99 98 
 20031ac:	0c 00 00 00 	CMP        $0,R1
 20031b0:	78 a8 05 74 	BNZ        @0x02003728    // 2003728 <_vfprintf_r+0x1ea0>
 20031b4:	14 87 40 74 	LW         116(SP),R2
 20031b8:	2c 87 40 94 	LW         148(SP),R5
 20031bc:	5b 43 40 c0 	MOV        $192+SP,R11
 20031c0:	3c 87 40 34 	LW         52(SP),R7
 20031c4:	0c 87 40 4c 	LW         76(SP),R1
 20031c8:	b8 88 b4 34 	SUB        R1,R7          | LW         52(SP),R6
 20031cc:	b0 90 bb b0 	SUB        R2,R6          | CMP        R6,R7
 20031d0:	3b 71 80 00 	MOV.GE     R6,R7
 20031d4:	3c 00 00 01 	CMP        $1,R7
 20031d8:	78 90 00 50 	BLT        @0x0200322c    // 200322c <_vfprintf_r+0x19a4>
 20031dc:	14 87 40 48 	LW         72(SP),R2
 20031e0:	92 88 95 d8 	ADD        R1,R2          | SW         R2,(R11)
 20031e4:	3c c6 c0 04 	SW         R7,$4(R11)
 20031e8:	28 85 c0 00 	ADD        R7,R5
 20031ec:	2c c7 40 94 	SW         R5,$148(SP)
 20031f0:	0c 87 40 90 	LW         144(SP),R1
 20031f4:	08 80 00 01 	ADD        $1,R1
 20031f8:	0c c7 40 90 	SW         R1,$144(SP)
 20031fc:	da 08 8b 08 	ADD        $8,R11         | CMP        $8,R1
 2003200:	78 90 00 28 	BLT        @0x0200322c    // 200322c <_vfprintf_r+0x19a4>
 2003204:	1b 43 40 8c 	MOV        $140+SP,R3
 2003208:	97 c0 8f e0 	MOV        R8,R2          | MOV        R12,R1
 200320c:	87 fa fc f8 	JSR        0x02009998     // 2009998 <__sprint_r>
 2003210:	02 00 99 98 
 2003214:	0c 00 00 00 	CMP        $0,R1
 2003218:	78 a8 05 14 	BNZ        @0x02003730    // 2003730 <_vfprintf_r+0x1ea8>
 200321c:	0c 87 40 74 	LW         116(SP),R1
 2003220:	b4 34 b0 88 	LW         52(SP),R6      | SUB        R1,R6
 2003224:	2c 87 40 94 	LW         148(SP),R5
 2003228:	5b 43 40 c0 	MOV        $192+SP,R11
 200322c:	8e 00 bb 88 	CLR        R1             | CMP        R1,R7
 2003230:	3b 50 40 00 	MOV.LT     R1,R7
 2003234:	b0 b8 b3 01 	SUB        R7,R6          | CMP        $1,R6
 2003238:	78 90 03 10 	BLT        @0x0200354c    // 200354c <_vfprintf_r+0x1cc4>
 200323c:	0c 87 40 90 	LW         144(SP),R1
 2003240:	34 00 00 11 	CMP        $17,R6
 2003244:	78 90 00 58 	BLT        @0x020032a0    // 20032a0 <_vfprintf_r+0x1a18>
 2003248:	0c 87 40 90 	LW         144(SP),R1
 200324c:	12 03 00 40 	LDI        0x0200e300,R2  // 200e300 <zeroes.4494>
 2003250:	12 40 e3 00 
 2003254:	95 d8 9e 10 	SW         R2,(R11)       | LDI        $16,R3
 2003258:	1c c6 c0 04 	SW         R3,$4(R11)
 200325c:	28 84 c0 00 	ADD        R3,R5
 2003260:	2c c7 40 94 	SW         R5,$148(SP)
 2003264:	08 80 00 01 	ADD        $1,R1
 2003268:	0c c7 40 90 	SW         R1,$144(SP)
 200326c:	da 08 8b 08 	ADD        $8,R11         | CMP        $8,R1
 2003270:	78 90 00 24 	BLT        @0x02003298    // 2003298 <_vfprintf_r+0x1a10>
 2003274:	1b 43 40 8c 	MOV        $140+SP,R3
 2003278:	97 c0 8f e0 	MOV        R8,R2          | MOV        R12,R1
 200327c:	87 fa fc f8 	JSR        0x02009998     // 2009998 <__sprint_r>
 2003280:	02 00 99 98 
 2003284:	0c 00 00 00 	CMP        $0,R1
 2003288:	78 a8 04 ac 	BNZ        @0x02003738    // 2003738 <_vfprintf_r+0x1eb0>
 200328c:	2c 87 40 94 	LW         148(SP),R5
 2003290:	0c 87 40 90 	LW         144(SP),R1
 2003294:	5b 43 40 c0 	MOV        $192+SP,R11
 2003298:	b2 70 b3 11 	ADD        $-16,R6        | CMP        $17,R6
 200329c:	78 b3 ff ac 	BGE        @0x0200324c    // 200324c <_vfprintf_r+0x19c4>
 20032a0:	22 03 00 40 	LDI        0x0200e300,R4  // 200e300 <zeroes.4494>
 20032a4:	22 40 e3 00 
 20032a8:	24 c6 c0 00 	SW         R4,(R11)
 20032ac:	34 c6 c0 04 	SW         R6,$4(R11)
 20032b0:	28 85 80 00 	ADD        R6,R5
 20032b4:	2c c7 40 94 	SW         R5,$148(SP)
 20032b8:	08 80 00 01 	ADD        $1,R1
 20032bc:	0c c7 40 90 	SW         R1,$144(SP)
 20032c0:	da 08 8b 08 	ADD        $8,R11         | CMP        $8,R1
 20032c4:	78 90 02 84 	BLT        @0x0200354c    // 200354c <_vfprintf_r+0x1cc4>
 20032c8:	1b 43 40 8c 	MOV        $140+SP,R3
 20032cc:	97 c0 8f e0 	MOV        R8,R2          | MOV        R12,R1
 20032d0:	87 fa fc f8 	JSR        0x02009998     // 2009998 <__sprint_r>
 20032d4:	02 00 99 98 
 20032d8:	0c 00 00 00 	CMP        $0,R1
 20032dc:	78 a8 04 60 	BNZ        @0x02003740    // 2003740 <_vfprintf_r+0x1eb8>
 20032e0:	2c 87 40 94 	LW         148(SP),R5
 20032e4:	5b 43 40 c0 	MOV        $192+SP,R11
 20032e8:	78 80 02 60 	BRA        @0x0200354c    // 200354c <_vfprintf_r+0x1cc4>
 20032ec:	bc 34 bb 02 	LW         52(SP),R7      | CMP        $2,R7
 20032f0:	78 b0 00 08 	BGE        @0x020032fc    // 20032fc <_vfprintf_r+0x1a74>
 20032f4:	8c 20 89 01 	LW         32(SP),R1      | AND        $1,R1
 20032f8:	78 88 01 bc 	BZ         @0x020034b8    // 20034b8 <_vfprintf_r+0x1c30>
 20032fc:	3c 87 40 48 	LW         72(SP),R7
 2003300:	bd d8 86 01 	SW         R7,(R11)       | LDI        $1,R0
 2003304:	04 c6 c0 04 	SW         R0,$4(R11)
 2003308:	28 84 00 00 	ADD        R0,R5
 200330c:	2c c7 40 94 	SW         R5,$148(SP)
 2003310:	34 87 40 90 	LW         144(SP),R6
 2003314:	30 84 00 00 	ADD        R0,R6
 2003318:	34 c7 40 90 	SW         R6,$144(SP)
 200331c:	da 08 b3 08 	ADD        $8,R11         | CMP        $8,R6
 2003320:	78 90 00 24 	BLT        @0x02003348    // 2003348 <_vfprintf_r+0x1ac0>
 2003324:	1b 43 40 8c 	MOV        $140+SP,R3
 2003328:	97 c0 8f e0 	MOV        R8,R2          | MOV        R12,R1
 200332c:	87 fa fc f8 	JSR        0x02009998     // 2009998 <__sprint_r>
 2003330:	02 00 99 98 
 2003334:	0c 00 00 00 	CMP        $0,R1
 2003338:	78 a8 04 0c 	BNZ        @0x02003748    // 2003748 <_vfprintf_r+0x1ec0>
 200333c:	2c 87 40 94 	LW         148(SP),R5
 2003340:	34 87 40 90 	LW         144(SP),R6
 2003344:	5b 43 40 c0 	MOV        $192+SP,R11
 2003348:	3c 87 40 50 	LW         80(SP),R7
 200334c:	3c c6 c0 00 	SW         R7,(R11)
 2003350:	3c 87 40 5c 	LW         92(SP),R7
 2003354:	3c c6 c0 04 	SW         R7,$4(R11)
 2003358:	ba a8 af b8 	ADD        R5,R7          | MOV        R7,R5
 200335c:	3c c7 40 94 	SW         R7,$148(SP)
 2003360:	30 80 00 01 	ADD        $1,R6
 2003364:	34 c7 40 90 	SW         R6,$144(SP)
 2003368:	da 08 b3 08 	ADD        $8,R11         | CMP        $8,R6
 200336c:	78 90 00 24 	BLT        @0x02003394    // 2003394 <_vfprintf_r+0x1b0c>
 2003370:	1b 43 40 8c 	MOV        $140+SP,R3
 2003374:	97 c0 8f e0 	MOV        R8,R2          | MOV        R12,R1
 2003378:	87 fa fc f8 	JSR        0x02009998     // 2009998 <__sprint_r>
 200337c:	02 00 99 98 
 2003380:	0c 00 00 00 	CMP        $0,R1
 2003384:	78 a8 03 c8 	BNZ        @0x02003750    // 2003750 <_vfprintf_r+0x1ec8>
 2003388:	2c 87 40 94 	LW         148(SP),R5
 200338c:	34 87 40 90 	LW         144(SP),R6
 2003390:	5b 43 40 c0 	MOV        $192+SP,R11
 2003394:	9e 00 a6 00 	CLR        R3             | CLR        R4
 2003398:	0c 87 40 58 	LW         88(SP),R1
 200339c:	14 87 40 54 	LW         84(SP),R2
 20033a0:	87 fa fc f8 	JSR        0x0200d564     // 200d564 <__nedf2>
 20033a4:	02 00 d5 64 
 20033a8:	0c 00 00 00 	CMP        $0,R1
 20033ac:	78 88 00 50 	BZ         @0x02003400    // 2003400 <_vfprintf_r+0x1b78>
 20033b0:	14 87 40 48 	LW         72(SP),R2
 20033b4:	92 01 95 d8 	ADD        $1,R2          | SW         R2,(R11)
 20033b8:	8c 34 8a 7f 	LW         52(SP),R1      | ADD        $-1,R1
 20033bc:	0c c6 c0 04 	SW         R1,$4(R11)
 20033c0:	28 84 40 00 	ADD        R1,R5
 20033c4:	2c c7 40 94 	SW         R5,$148(SP)
 20033c8:	30 80 00 01 	ADD        $1,R6
 20033cc:	34 c7 40 90 	SW         R6,$144(SP)
 20033d0:	da 08 b3 08 	ADD        $8,R11         | CMP        $8,R6
 20033d4:	78 90 01 2c 	BLT        @0x02003504    // 2003504 <_vfprintf_r+0x1c7c>
 20033d8:	1b 43 40 8c 	MOV        $140+SP,R3
 20033dc:	97 c0 8f e0 	MOV        R8,R2          | MOV        R12,R1
 20033e0:	87 fa fc f8 	JSR        0x02009998     // 2009998 <__sprint_r>
 20033e4:	02 00 99 98 
 20033e8:	0c 00 00 00 	CMP        $0,R1
 20033ec:	78 a8 03 68 	BNZ        @0x02003758    // 2003758 <_vfprintf_r+0x1ed0>
 20033f0:	2c 87 40 94 	LW         148(SP),R5
 20033f4:	34 87 40 90 	LW         144(SP),R6
 20033f8:	5b 43 40 c0 	MOV        $192+SP,R11
 20033fc:	78 80 01 04 	BRA        @0x02003504    // 2003504 <_vfprintf_r+0x1c7c>
 2003400:	bc 34 ba 7f 	LW         52(SP),R7      | ADD        $-1,R7
 2003404:	3c 00 00 01 	CMP        $1,R7
 2003408:	78 90 00 f8 	BLT        @0x02003504    // 2003504 <_vfprintf_r+0x1c7c>
 200340c:	3c 00 00 11 	CMP        $17,R7
 2003410:	78 90 00 54 	BLT        @0x02003468    // 2003468 <_vfprintf_r+0x1be0>
 2003414:	0a 03 00 40 	LDI        0x0200e300,R1  // 200e300 <zeroes.4494>
 2003418:	0a 40 e3 00 
 200341c:	8d d8 96 10 	SW         R1,(R11)       | LDI        $16,R2
 2003420:	14 c6 c0 04 	SW         R2,$4(R11)
 2003424:	28 84 80 00 	ADD        R2,R5
 2003428:	2c c7 40 94 	SW         R5,$148(SP)
 200342c:	30 80 00 01 	ADD        $1,R6
 2003430:	34 c7 40 90 	SW         R6,$144(SP)
 2003434:	da 08 b3 08 	ADD        $8,R11         | CMP        $8,R6
 2003438:	78 90 00 24 	BLT        @0x02003460    // 2003460 <_vfprintf_r+0x1bd8>
 200343c:	1b 43 40 8c 	MOV        $140+SP,R3
 2003440:	97 c0 8f e0 	MOV        R8,R2          | MOV        R12,R1
 2003444:	87 fa fc f8 	JSR        0x02009998     // 2009998 <__sprint_r>
 2003448:	02 00 99 98 
 200344c:	0c 00 00 00 	CMP        $0,R1
 2003450:	78 a8 03 0c 	BNZ        @0x02003760    // 2003760 <_vfprintf_r+0x1ed8>
 2003454:	2c 87 40 94 	LW         148(SP),R5
 2003458:	34 87 40 90 	LW         144(SP),R6
 200345c:	5b 43 40 c0 	MOV        $192+SP,R11
 2003460:	ba 70 bb 11 	ADD        $-16,R7        | CMP        $17,R7
 2003464:	78 b3 ff ac 	BGE        @0x02003414    // 2003414 <_vfprintf_r+0x1b8c>
 2003468:	1a 03 00 40 	LDI        0x0200e300,R3  // 200e300 <zeroes.4494>
 200346c:	1a 40 e3 00 
 2003470:	1c c6 c0 00 	SW         R3,(R11)
 2003474:	3c c6 c0 04 	SW         R7,$4(R11)
 2003478:	28 85 c0 00 	ADD        R7,R5
 200347c:	2c c7 40 94 	SW         R5,$148(SP)
 2003480:	30 80 00 01 	ADD        $1,R6
 2003484:	34 c7 40 90 	SW         R6,$144(SP)
 2003488:	da 08 b3 08 	ADD        $8,R11         | CMP        $8,R6
 200348c:	78 90 00 74 	BLT        @0x02003504    // 2003504 <_vfprintf_r+0x1c7c>
 2003490:	1b 43 40 8c 	MOV        $140+SP,R3
 2003494:	97 c0 8f e0 	MOV        R8,R2          | MOV        R12,R1
 2003498:	87 fa fc f8 	JSR        0x02009998     // 2009998 <__sprint_r>
 200349c:	02 00 99 98 
 20034a0:	0c 00 00 00 	CMP        $0,R1
 20034a4:	78 a8 02 c0 	BNZ        @0x02003768    // 2003768 <_vfprintf_r+0x1ee0>
 20034a8:	2c 87 40 94 	LW         148(SP),R5
 20034ac:	34 87 40 90 	LW         144(SP),R6
 20034b0:	5b 43 40 c0 	MOV        $192+SP,R11
 20034b4:	78 80 00 4c 	BRA        @0x02003504    // 2003504 <_vfprintf_r+0x1c7c>
 20034b8:	3c 87 40 48 	LW         72(SP),R7
 20034bc:	bd d8 8e 01 	SW         R7,(R11)       | LDI        $1,R1
 20034c0:	0c c6 c0 04 	SW         R1,$4(R11)
 20034c4:	28 84 40 00 	ADD        R1,R5
 20034c8:	2c c7 40 94 	SW         R5,$148(SP)
 20034cc:	34 87 40 90 	LW         144(SP),R6
 20034d0:	30 84 40 00 	ADD        R1,R6
 20034d4:	34 c7 40 90 	SW         R6,$144(SP)
 20034d8:	da 08 b3 08 	ADD        $8,R11         | CMP        $8,R6
 20034dc:	78 90 00 24 	BLT        @0x02003504    // 2003504 <_vfprintf_r+0x1c7c>
 20034e0:	1b 43 40 8c 	MOV        $140+SP,R3
 20034e4:	97 c0 8f e0 	MOV        R8,R2          | MOV        R12,R1
 20034e8:	87 fa fc f8 	JSR        0x02009998     // 2009998 <__sprint_r>
 20034ec:	02 00 99 98 
 20034f0:	0c 00 00 00 	CMP        $0,R1
 20034f4:	78 a8 02 78 	BNZ        @0x02003770    // 2003770 <_vfprintf_r+0x1ee8>
 20034f8:	2c 87 40 94 	LW         148(SP),R5
 20034fc:	34 87 40 90 	LW         144(SP),R6
 2003500:	5b 43 40 c0 	MOV        $192+SP,R11
 2003504:	13 43 40 7d 	MOV        $125+SP,R2
 2003508:	14 c6 c0 00 	SW         R2,(R11)
 200350c:	3c 87 40 60 	LW         96(SP),R7
 2003510:	3c c6 c0 04 	SW         R7,$4(R11)
 2003514:	ba a8 af b8 	ADD        R5,R7          | MOV        R7,R5
 2003518:	3c c7 40 94 	SW         R7,$148(SP)
 200351c:	30 80 00 01 	ADD        $1,R6
 2003520:	34 c7 40 90 	SW         R6,$144(SP)
 2003524:	da 08 b3 08 	ADD        $8,R11         | CMP        $8,R6
 2003528:	78 90 00 20 	BLT        @0x0200354c    // 200354c <_vfprintf_r+0x1cc4>
 200352c:	1b 43 40 8c 	MOV        $140+SP,R3
 2003530:	97 c0 8f e0 	MOV        R8,R2          | MOV        R12,R1
 2003534:	87 fa fc f8 	JSR        0x02009998     // 2009998 <__sprint_r>
 2003538:	02 00 99 98 
 200353c:	0c 00 00 00 	CMP        $0,R1
 2003540:	78 a8 02 34 	BNZ        @0x02003778    // 2003778 <_vfprintf_r+0x1ef0>
 2003544:	2c 87 40 94 	LW         148(SP),R5
 2003548:	5b 43 40 c0 	MOV        $192+SP,R11
 200354c:	8c 20 89 04 	LW         32(SP),R1      | AND        $4,R1
 2003550:	78 88 00 b4 	BZ         @0x02003608    // 2003608 <_vfprintf_r+0x1d80>
 2003554:	b4 38 bc 1c 	LW         56(SP),R6      | LW         28(SP),R7
 2003558:	b0 b8 b3 01 	SUB        R7,R6          | CMP        $1,R6
 200355c:	78 90 00 a8 	BLT        @0x02003608    // 2003608 <_vfprintf_r+0x1d80>
 2003560:	0c 87 40 90 	LW         144(SP),R1
 2003564:	34 00 00 11 	CMP        $17,R6
 2003568:	78 90 00 58 	BLT        @0x020035c4    // 20035c4 <_vfprintf_r+0x1d3c>
 200356c:	0c 87 40 90 	LW         144(SP),R1
 2003570:	12 03 00 40 	LDI        0x0200e310,R2  // 200e310 <blanks.4493>
 2003574:	12 40 e3 10 
 2003578:	95 d8 9e 10 	SW         R2,(R11)       | LDI        $16,R3
 200357c:	1c c6 c0 04 	SW         R3,$4(R11)
 2003580:	28 84 c0 00 	ADD        R3,R5
 2003584:	2c c7 40 94 	SW         R5,$148(SP)
 2003588:	08 80 00 01 	ADD        $1,R1
 200358c:	0c c7 40 90 	SW         R1,$144(SP)
 2003590:	da 08 8b 08 	ADD        $8,R11         | CMP        $8,R1
 2003594:	78 90 00 24 	BLT        @0x020035bc    // 20035bc <_vfprintf_r+0x1d34>
 2003598:	1b 43 40 8c 	MOV        $140+SP,R3
 200359c:	97 c0 8f e0 	MOV        R8,R2          | MOV        R12,R1
 20035a0:	87 fa fc f8 	JSR        0x02009998     // 2009998 <__sprint_r>
 20035a4:	02 00 99 98 
 20035a8:	0c 00 00 00 	CMP        $0,R1
 20035ac:	78 a8 01 d0 	BNZ        @0x02003780    // 2003780 <_vfprintf_r+0x1ef8>
 20035b0:	2c 87 40 94 	LW         148(SP),R5
 20035b4:	0c 87 40 90 	LW         144(SP),R1
 20035b8:	5b 43 40 c0 	MOV        $192+SP,R11
 20035bc:	b2 70 b3 11 	ADD        $-16,R6        | CMP        $17,R6
 20035c0:	78 b3 ff ac 	BGE        @0x02003570    // 2003570 <_vfprintf_r+0x1ce8>
 20035c4:	22 03 00 40 	LDI        0x0200e310,R4  // 200e310 <blanks.4493>
 20035c8:	22 40 e3 10 
 20035cc:	24 c6 c0 00 	SW         R4,(R11)
 20035d0:	34 c6 c0 04 	SW         R6,$4(R11)
 20035d4:	28 85 80 00 	ADD        R6,R5
 20035d8:	2c c7 40 94 	SW         R5,$148(SP)
 20035dc:	08 80 00 01 	ADD        $1,R1
 20035e0:	0c c7 40 90 	SW         R1,$144(SP)
 20035e4:	0c 00 00 08 	CMP        $8,R1
 20035e8:	78 90 00 1c 	BLT        @0x02003608    // 2003608 <_vfprintf_r+0x1d80>
 20035ec:	1b 43 40 8c 	MOV        $140+SP,R3
 20035f0:	97 c0 8f e0 	MOV        R8,R2          | MOV        R12,R1
 20035f4:	87 fa fc f8 	JSR        0x02009998     // 2009998 <__sprint_r>
 20035f8:	02 00 99 98 
 20035fc:	0c 00 00 00 	CMP        $0,R1
 2003600:	78 a8 01 84 	BNZ        @0x02003788    // 2003788 <_vfprintf_r+0x1f00>
 2003604:	2c 87 40 94 	LW         148(SP),R5
 2003608:	8c 38 bc 1c 	LW         56(SP),R1      | LW         28(SP),R7
 200360c:	0c 05 c0 00 	CMP        R7,R1
 2003610:	0b 51 c0 00 	MOV.LT     R7,R1
 2003614:	bc 30 ba 88 	LW         48(SP),R7      | ADD        R1,R7
 2003618:	bd 30 ab 00 	SW         R7,$48(SP)     | CMP        $0,R5
 200361c:	78 a8 00 10 	BNZ        @0x02003630    // 2003630 <_vfprintf_r+0x1da8>
 2003620:	0e 00 00 00 	CLR        R1
 2003624:	0c c7 40 90 	SW         R1,$144(SP)
 2003628:	5b 43 40 c0 	MOV        $192+SP,R11
 200362c:	78 83 e3 b0 	BRA        @0x020019e0    // 20019e0 <_vfprintf_r+0x158>
 2003630:	1b 43 40 8c 	MOV        $140+SP,R3
 2003634:	97 c0 8f e0 	MOV        R8,R2          | MOV        R12,R1
 2003638:	87 fa fc f8 	JSR        0x02009998     // 2009998 <__sprint_r>
 200363c:	02 00 99 98 
 2003640:	0c 00 00 00 	CMP        $0,R1
 2003644:	78 8b ff d8 	BZ         @0x02003620    // 2003620 <_vfprintf_r+0x1d98>
 2003648:	63 42 00 00 	MOV        R8,R12
 200364c:	78 80 01 3c 	BRA        @0x0200378c    // 200378c <_vfprintf_r+0x1f04>
 2003650:	cf e0 e7 c0 	MOV        R12,R9         | MOV        R8,R12
 2003654:	0c 87 40 94 	LW         148(SP),R1
 2003658:	0c 00 00 00 	CMP        $0,R1
 200365c:	78 88 01 2c 	BZ         @0x0200378c    // 200378c <_vfprintf_r+0x1f04>
 2003660:	1b 43 40 00 	MOV        SP,R3
 2003664:	18 80 00 8c 	ADD        $140,R3
 2003668:	97 c0 8f c8 	MOV        R8,R2          | MOV        R9,R1
 200366c:	87 fa fc f8 	JSR        0x02009998     // 2009998 <__sprint_r>
 2003670:	02 00 99 98 
 2003674:	78 80 01 14 	BRA        @0x0200378c    // 200378c <_vfprintf_r+0x1f04>
 2003678:	63 42 00 00 	MOV        R8,R12
 200367c:	78 80 01 0c 	BRA        @0x0200378c    // 200378c <_vfprintf_r+0x1f04>
 2003680:	63 42 00 00 	MOV        R8,R12
 2003684:	78 80 01 04 	BRA        @0x0200378c    // 200378c <_vfprintf_r+0x1f04>
 2003688:	63 42 00 00 	MOV        R8,R12
 200368c:	78 80 00 fc 	BRA        @0x0200378c    // 200378c <_vfprintf_r+0x1f04>
 2003690:	63 42 00 00 	MOV        R8,R12
 2003694:	78 80 00 f4 	BRA        @0x0200378c    // 200378c <_vfprintf_r+0x1f04>
 2003698:	63 42 00 00 	MOV        R8,R12
 200369c:	78 80 00 ec 	BRA        @0x0200378c    // 200378c <_vfprintf_r+0x1f04>
 20036a0:	63 42 00 00 	MOV        R8,R12
 20036a4:	78 80 00 e4 	BRA        @0x0200378c    // 200378c <_vfprintf_r+0x1f04>
 20036a8:	63 42 00 00 	MOV        R8,R12
 20036ac:	78 80 00 dc 	BRA        @0x0200378c    // 200378c <_vfprintf_r+0x1f04>
 20036b0:	63 42 00 00 	MOV        R8,R12
 20036b4:	78 80 00 d4 	BRA        @0x0200378c    // 200378c <_vfprintf_r+0x1f04>
 20036b8:	63 42 00 00 	MOV        R8,R12
 20036bc:	78 80 00 cc 	BRA        @0x0200378c    // 200378c <_vfprintf_r+0x1f04>
 20036c0:	63 42 00 00 	MOV        R8,R12
 20036c4:	78 80 00 c4 	BRA        @0x0200378c    // 200378c <_vfprintf_r+0x1f04>
 20036c8:	63 42 00 00 	MOV        R8,R12
 20036cc:	78 80 00 bc 	BRA        @0x0200378c    // 200378c <_vfprintf_r+0x1f04>
 20036d0:	63 42 00 00 	MOV        R8,R12
 20036d4:	78 80 00 b4 	BRA        @0x0200378c    // 200378c <_vfprintf_r+0x1f04>
 20036d8:	63 42 00 00 	MOV        R8,R12
 20036dc:	78 80 00 ac 	BRA        @0x0200378c    // 200378c <_vfprintf_r+0x1f04>
 20036e0:	63 42 00 00 	MOV        R8,R12
 20036e4:	78 80 00 a4 	BRA        @0x0200378c    // 200378c <_vfprintf_r+0x1f04>
 20036e8:	63 42 00 00 	MOV        R8,R12
 20036ec:	78 80 00 9c 	BRA        @0x0200378c    // 200378c <_vfprintf_r+0x1f04>
 20036f0:	63 42 00 00 	MOV        R8,R12
 20036f4:	78 80 00 94 	BRA        @0x0200378c    // 200378c <_vfprintf_r+0x1f04>
 20036f8:	63 42 00 00 	MOV        R8,R12
 20036fc:	78 80 00 8c 	BRA        @0x0200378c    // 200378c <_vfprintf_r+0x1f04>
 2003700:	63 42 00 00 	MOV        R8,R12
 2003704:	78 80 00 84 	BRA        @0x0200378c    // 200378c <_vfprintf_r+0x1f04>
 2003708:	63 42 00 00 	MOV        R8,R12
 200370c:	78 80 00 7c 	BRA        @0x0200378c    // 200378c <_vfprintf_r+0x1f04>
 2003710:	63 42 00 00 	MOV        R8,R12
 2003714:	78 80 00 74 	BRA        @0x0200378c    // 200378c <_vfprintf_r+0x1f04>
 2003718:	63 42 00 00 	MOV        R8,R12
 200371c:	78 80 00 6c 	BRA        @0x0200378c    // 200378c <_vfprintf_r+0x1f04>
 2003720:	63 42 00 00 	MOV        R8,R12
 2003724:	78 80 00 64 	BRA        @0x0200378c    // 200378c <_vfprintf_r+0x1f04>
 2003728:	63 42 00 00 	MOV        R8,R12
 200372c:	78 80 00 5c 	BRA        @0x0200378c    // 200378c <_vfprintf_r+0x1f04>
 2003730:	63 42 00 00 	MOV        R8,R12
 2003734:	78 80 00 54 	BRA        @0x0200378c    // 200378c <_vfprintf_r+0x1f04>
 2003738:	63 42 00 00 	MOV        R8,R12
 200373c:	78 80 00 4c 	BRA        @0x0200378c    // 200378c <_vfprintf_r+0x1f04>
 2003740:	63 42 00 00 	MOV        R8,R12
 2003744:	78 80 00 44 	BRA        @0x0200378c    // 200378c <_vfprintf_r+0x1f04>
 2003748:	63 42 00 00 	MOV        R8,R12
 200374c:	78 80 00 3c 	BRA        @0x0200378c    // 200378c <_vfprintf_r+0x1f04>
 2003750:	63 42 00 00 	MOV        R8,R12
 2003754:	78 80 00 34 	BRA        @0x0200378c    // 200378c <_vfprintf_r+0x1f04>
 2003758:	63 42 00 00 	MOV        R8,R12
 200375c:	78 80 00 2c 	BRA        @0x0200378c    // 200378c <_vfprintf_r+0x1f04>
 2003760:	63 42 00 00 	MOV        R8,R12
 2003764:	78 80 00 24 	BRA        @0x0200378c    // 200378c <_vfprintf_r+0x1f04>
 2003768:	63 42 00 00 	MOV        R8,R12
 200376c:	78 80 00 1c 	BRA        @0x0200378c    // 200378c <_vfprintf_r+0x1f04>
 2003770:	63 42 00 00 	MOV        R8,R12
 2003774:	78 80 00 14 	BRA        @0x0200378c    // 200378c <_vfprintf_r+0x1f04>
 2003778:	63 42 00 00 	MOV        R8,R12
 200377c:	78 80 00 0c 	BRA        @0x0200378c    // 200378c <_vfprintf_r+0x1f04>
 2003780:	63 42 00 00 	MOV        R8,R12
 2003784:	78 80 00 04 	BRA        @0x0200378c    // 200378c <_vfprintf_r+0x1f04>
 2003788:	63 42 00 00 	MOV        R8,R12
 200378c:	0d 07 00 0c 	LH         12(R12),R1
 2003790:	08 40 00 40 	AND        $64,R1
 2003794:	78 88 01 54 	BZ         @0x020038ec    // 20038ec <_vfprintf_r+0x2064>
 2003798:	be ff bd 30 	LDI        $-1,R7         | SW         R7,$48(SP)
 200379c:	78 80 01 4c 	BRA        @0x020038ec    // 20038ec <_vfprintf_r+0x2064>
 20037a0:	1c 87 40 58 	LW         88(SP),R3
 20037a4:	24 87 40 54 	LW         84(SP),R4
 20037a8:	8f 98 97 a0 	MOV        R3,R1          | MOV        R4,R2
 20037ac:	87 fa fc f8 	JSR        0x0200d6f4     // 200d6f4 <__unorddf2>
 20037b0:	02 00 d6 f4 
 20037b4:	0c 00 00 00 	CMP        $0,R1
 20037b8:	78 8b e7 bc 	BZ         @0x02001f78    // 2001f78 <_vfprintf_r+0x6f0>
 20037bc:	78 83 e7 7c 	BRA        @0x02001f3c    // 2001f3c <_vfprintf_r+0x6b4>
 20037c0:	9c 1c a7 98 	LW         28(SP),R3      | MOV        R3,R4
 20037c4:	0c 87 40 58 	LW         88(SP),R1
 20037c8:	14 87 40 54 	LW         84(SP),R2
 20037cc:	87 fa fc f8 	JSR        0x0200d62c     // 200d62c <__ltdf2>
 20037d0:	02 00 d6 2c 
 20037d4:	0c 00 00 00 	CMP        $0,R1
 20037d8:	78 93 e7 20 	BLT        @0x02001efc    // 2001efc <_vfprintf_r+0x674>
 20037dc:	2d 87 40 71 	LB         113(SP),R5
 20037e0:	2c c7 40 2c 	SW         R5,$44(SP)
 20037e4:	78 83 e7 20 	BRA        @0x02001f08    // 2001f08 <_vfprintf_r+0x680>
 20037e8:	34 c7 40 2c 	SW         R6,$44(SP)
 20037ec:	2c 87 40 48 	LW         72(SP),R5
 20037f0:	03 41 80 00 	MOV        R6,R0
 20037f4:	28 84 00 00 	ADD        R0,R5
 20037f8:	78 83 e8 74 	BRA        @0x02002070    // 2002070 <_vfprintf_r+0x7e8>
 20037fc:	0b 43 40 00 	MOV        SP,R1
 2003800:	08 80 00 84 	ADD        $132,R1
 2003804:	0c c7 40 08 	SW         R1,$8(SP)
 2003808:	0b 40 5f f4 	MOV        $-12+R1,R1
 200380c:	8d 04 8f 8c 	SW         R1,$4(SP)      | MOV        $-4+R1,R1
 2003810:	8d 00 af b0 	SW         R1,(SP)        | MOV        R6,R5
 2003814:	a6 02 94 24 	LDI        $2,R4          | LW         36(SP),R2
 2003818:	1c 87 40 54 	LW         84(SP),R3
 200381c:	0b 43 00 00 	MOV        R12,R1
 2003820:	87 fa fc f8 	JSR        0x02003d2c     // 2003d2c <_dtoa_r>
 2003824:	02 00 3d 2c 
 2003828:	0c c7 40 48 	SW         R1,$72(SP)
 200382c:	0c 87 40 1c 	LW         28(SP),R1
 2003830:	0c 00 00 47 	CMP        $71,R1
 2003834:	78 88 00 80 	BZ         @0x020038b8    // 20038b8 <_vfprintf_r+0x2030>
 2003838:	78 83 ff ac 	BRA        @0x020037e8    // 20037e8 <_vfprintf_r+0x1f60>
 200383c:	0b 43 40 00 	MOV        SP,R1
 2003840:	08 80 00 84 	ADD        $132,R1
 2003844:	0c c7 40 08 	SW         R1,$8(SP)
 2003848:	0b 40 5f f4 	MOV        $-12+R1,R1
 200384c:	8d 04 8f 8c 	SW         R1,$4(SP)      | MOV        $-4+R1,R1
 2003850:	8d 00 af b0 	SW         R1,(SP)        | MOV        R6,R5
 2003854:	a6 03 94 24 	LDI        $3,R4          | LW         36(SP),R2
 2003858:	1c 87 40 54 	LW         84(SP),R3
 200385c:	0b 43 00 00 	MOV        R12,R1
 2003860:	87 fa fc f8 	JSR        0x02003d2c     // 2003d2c <_dtoa_r>
 2003864:	02 00 3d 2c 
 2003868:	0c c7 40 48 	SW         R1,$72(SP)
 200386c:	0d 84 40 00 	LB         (R1),R1
 2003870:	8b 30 ae 00 	CMP        $48,R1         | CLR        R5
 2003874:	2a 48 00 01 	LDILO.Z    $1,R5
 2003878:	2d c7 40 2f 	SB         R5,$47(SP)
 200387c:	ae 01 9e 00 	LDI        $1,R5          | CLR        R3
 2003880:	a6 00 8c 24 	CLR        R4             | LW         36(SP),R1
 2003884:	14 87 40 54 	LW         84(SP),R2
 2003888:	87 fa fc f8 	JSR        0x0200d564     // 200d564 <__nedf2>
 200388c:	02 00 d5 64 
 2003890:	0c 00 00 00 	CMP        $0,R1
 2003894:	2b 48 40 00 	MOV.Z      R1,R5
 2003898:	0d 87 40 2f 	LB         47(SP),R1
 200389c:	08 45 40 00 	AND        R5,R1
 20038a0:	08 40 00 ff 	AND        $255,R1
 20038a4:	78 ab e7 b4 	BNZ        @0x0200205c    // 200205c <_vfprintf_r+0x7d4>
 20038a8:	78 83 e7 a8 	BRA        @0x02002054    // 2002054 <_vfprintf_r+0x7cc>
 20038ac:	2c 87 40 48 	LW         72(SP),R5
 20038b0:	28 85 80 00 	ADD        R6,R5
 20038b4:	78 83 e7 b8 	BRA        @0x02002070    // 2002070 <_vfprintf_r+0x7e8>
 20038b8:	8f c8 89 01 	MOV        R9,R1          | AND        $1,R1
 20038bc:	78 ab ff ec 	BNZ        @0x020038ac    // 20038ac <_vfprintf_r+0x2024>
 20038c0:	78 83 e7 88 	BRA        @0x0200204c    // 200204c <_vfprintf_r+0x7c4>
 20038c4:	13 42 40 00 	MOV        R9,R2
 20038c8:	10 c0 01 00 	OR         $256,R2
 20038cc:	14 c7 40 20 	SW         R2,$32(SP)
 20038d0:	1c 87 40 58 	LW         88(SP),R3
 20038d4:	1c 00 00 00 	CMP        $0,R3
 20038d8:	78 93 e6 fc 	BLT        @0x02001fd8    // 2001fd8 <_vfprintf_r+0x750>
 20038dc:	9d 24 a6 47 	SW         R3,$36(SP)     | LDI        $71,R4
 20038e0:	a5 1c 8d 3c 	SW         R4,$28(SP)     | SW         R1,$60(SP)
 20038e4:	36 00 00 01 	LDI        $1,R6
 20038e8:	78 83 ff 10 	BRA        @0x020037fc    // 20037fc <_vfprintf_r+0x1f74>
 20038ec:	0c 87 40 30 	LW         48(SP),R1
 20038f0:	04 87 41 00 	LW         256(SP),R0
 20038f4:	2c 87 41 04 	LW         260(SP),R5
 20038f8:	34 87 41 08 	LW         264(SP),R6
 20038fc:	3c 87 41 0c 	LW         268(SP),R7
 2003900:	44 87 41 10 	LW         272(SP),R8
 2003904:	4c 87 41 14 	LW         276(SP),R9
 2003908:	54 87 41 18 	LW         280(SP),R10
 200390c:	5c 87 41 1c 	LW         284(SP),R11
 2003910:	64 87 41 20 	LW         288(SP),R12
 2003914:	68 80 01 24 	ADD        $292,SP
 2003918:	7b 40 00 00 	RTN

0200391c <vfprintf>:
 200391c:	e8 04 85 00 	SUB        $4,SP          | SW         R0,(SP)
 2003920:	a7 98 9f 90 	MOV        R3,R4          | MOV        R2,R3
 2003924:	13 40 40 00 	MOV        R1,R2
 2003928:	0a 03 00 40 	LDI        0x0200eab4,R1  // 200eab4 <_impure_ptr>
 200392c:	0a 40 ea b4 
 2003930:	8c 88 84 00 	LW         (R1),R1        | LW         (SP),R0
 2003934:	68 80 00 04 	ADD        $4,SP
 2003938:	78 83 df 4c 	BRA        @0x02001888    // 2001888 <_vfprintf_r>

0200393c <__sbprintf>:
 200393c:	68 00 04 7c 	SUB        $1148,SP
 2003940:	04 c7 44 6c 	SW         R0,$1132(SP)
 2003944:	2c c7 44 70 	SW         R5,$1136(SP)
 2003948:	34 c7 44 74 	SW         R6,$1140(SP)
 200394c:	3c c7 44 78 	SW         R7,$1144(SP)
 2003950:	bf 88 af 90 	MOV        R1,R7          | MOV        R2,R5
 2003954:	15 04 80 0c 	LH         12(R2),R2
 2003958:	10 40 ff fd 	AND        $65533,R2
 200395c:	15 47 40 0c 	SH         R2,$12(SP)
 2003960:	04 85 40 68 	LW         104(R5),R0
 2003964:	04 c7 40 68 	SW         R0,$104(SP)
 2003968:	05 05 40 0e 	LH         14(R5),R0
 200396c:	05 47 40 0e 	SH         R0,$14(SP)
 2003970:	04 85 40 1c 	LW         28(R5),R0
 2003974:	04 c7 40 1c 	SW         R0,$28(SP)
 2003978:	04 85 40 24 	LW         36(R5),R0
 200397c:	85 24 97 e8 	SW         R0,$36(SP)     | MOV        SP,R2
 2003980:	10 80 00 6c 	ADD        $108,R2
 2003984:	95 00 95 10 	SW         R2,(SP)        | SW         R2,$16(SP)
 2003988:	06 00 04 00 	LDI        $1024,R0
 200398c:	85 08 85 14 	SW         R0,$8(SP)      | SW         R0,$20(SP)
 2003990:	86 00 85 18 	CLR        R0             | SW         R0,$24(SP)
 2003994:	13 43 40 00 	MOV        SP,R2
 2003998:	87 fa fc f8 	JSR        0x02001888     // 2001888 <_vfprintf_r>
 200399c:	02 00 18 88 
 20039a0:	b7 88 8b 00 	MOV        R1,R6          | CMP        $0,R1
 20039a4:	78 90 00 14 	BLT        @0x020039bc    // 20039bc <__sbprintf+0x80>
 20039a8:	97 e8 8f b8 	MOV        SP,R2          | MOV        R7,R1
 20039ac:	87 fa fc f8 	JSR        0x02005294     // 2005294 <_fflush_r>
 20039b0:	02 00 52 94 
 20039b4:	0c 00 00 00 	CMP        $0,R1
 20039b8:	32 2b ff ff 	BREV.NZ    $-1,R6
 20039bc:	0d 07 40 0c 	LH         12(SP),R1
 20039c0:	08 40 00 40 	AND        $64,R1
 20039c4:	78 88 00 0c 	BZ         @0x020039d4    // 20039d4 <__sbprintf+0x98>
 20039c8:	0d 05 40 0c 	LH         12(R5),R1
 20039cc:	08 c0 00 40 	OR         $64,R1
 20039d0:	0d 45 40 0c 	SH         R1,$12(R5)
 20039d4:	0b 41 80 00 	MOV        R6,R1
 20039d8:	04 87 44 6c 	LW         1132(SP),R0
 20039dc:	2c 87 44 70 	LW         1136(SP),R5
 20039e0:	34 87 44 74 	LW         1140(SP),R6
 20039e4:	3c 87 44 78 	LW         1144(SP),R7
 20039e8:	68 80 04 7c 	ADD        $1148,SP
 20039ec:	7b 40 00 00 	RTN

020039f0 <__swsetup_r>:
 20039f0:	e8 0c 85 00 	SUB        $12,SP         | SW         R0,(SP)
 20039f4:	ad 04 b5 08 	SW         R5,$4(SP)      | SW         R6,$8(SP)
 20039f8:	b7 88 af 90 	MOV        R1,R6          | MOV        R2,R5
 20039fc:	0a 03 00 40 	LDI        0x0200eab4,R1  // 200eab4 <_impure_ptr>
 2003a00:	0a 40 ea b4 
 2003a04:	8c 88 8b 00 	LW         (R1),R1        | CMP        $0,R1
 2003a08:	78 88 00 14 	BZ         @0x02003a20    // 2003a20 <__swsetup_r+0x30>
 2003a0c:	14 84 40 38 	LW         56(R1),R2
 2003a10:	14 00 00 00 	CMP        $0,R2
 2003a14:	78 a8 00 08 	BNZ        @0x02003a20    // 2003a20 <__swsetup_r+0x30>
 2003a18:	87 fa fc f8 	JSR        0x02005e60     // 2005e60 <__sinit>
 2003a1c:	02 00 5e 60 
 2003a20:	1d 05 40 0c 	LH         12(R5),R3
 2003a24:	13 40 c0 00 	MOV        R3,R2
 2003a28:	10 40 ff ff 	AND        $65535,R2
 2003a2c:	8f 90 89 08 	MOV        R2,R1          | AND        $8,R1
 2003a30:	78 88 00 08 	BZ         @0x02003a3c    // 2003a3c <__swsetup_r+0x4c>
 2003a34:	0c 85 40 10 	LW         16(R5),R1
 2003a38:	78 80 00 84 	BRA        @0x02003ac0    // 2003ac0 <__swsetup_r+0xd0>
 2003a3c:	8f 90 89 10 	MOV        R2,R1          | AND        $16,R1
 2003a40:	78 a8 00 14 	BNZ        @0x02003a58    // 2003a58 <__swsetup_r+0x68>
 2003a44:	8e 09 8d b0 	LDI        $9,R1          | SW         R1,(R6)
 2003a48:	18 c0 00 40 	OR         $64,R3
 2003a4c:	1d 45 40 0c 	SH         R3,$12(R5)
 2003a50:	0e 7f ff ff 	LDI        $-1,R1
 2003a54:	78 80 00 f4 	BRA        @0x02003b4c    // 2003b4c <__swsetup_r+0x15c>
 2003a58:	10 40 00 04 	AND        $4,R2
 2003a5c:	78 a8 00 08 	BNZ        @0x02003a68    // 2003a68 <__swsetup_r+0x78>
 2003a60:	0c 85 40 10 	LW         16(R5),R1
 2003a64:	78 80 00 48 	BRA        @0x02003ab0    // 2003ab0 <__swsetup_r+0xc0>
 2003a68:	14 85 40 30 	LW         48(R5),R2
 2003a6c:	14 00 00 00 	CMP        $0,R2
 2003a70:	78 88 00 28 	BZ         @0x02003a9c    // 2003a9c <__swsetup_r+0xac>
 2003a74:	0b 41 40 00 	MOV        R5,R1
 2003a78:	08 80 00 40 	ADD        $64,R1
 2003a7c:	14 04 40 00 	CMP        R1,R2
 2003a80:	78 88 00 10 	BZ         @0x02003a94    // 2003a94 <__swsetup_r+0xa4>
 2003a84:	0b 41 80 00 	MOV        R6,R1
 2003a88:	87 fa fc f8 	JSR        0x020061c0     // 20061c0 <_free_r>
 2003a8c:	02 00 61 c0 
 2003a90:	1d 05 40 0c 	LH         12(R5),R3
 2003a94:	26 00 00 00 	CLR        R4
 2003a98:	24 c5 40 30 	SW         R4,$48(R5)
 2003a9c:	18 40 ff db 	AND        $65499,R3
 2003aa0:	0e 00 00 00 	CLR        R1
 2003aa4:	0c c5 40 04 	SW         R1,$4(R5)
 2003aa8:	0c 85 40 10 	LW         16(R5),R1
 2003aac:	0c c5 40 00 	SW         R1,(R5)
 2003ab0:	18 c0 00 08 	OR         $8,R3
 2003ab4:	1d 45 40 0c 	SH         R3,$12(R5)
 2003ab8:	13 40 c0 00 	MOV        R3,R2
 2003abc:	10 40 ff ff 	AND        $65535,R2
 2003ac0:	0c 00 00 00 	CMP        $0,R1
 2003ac4:	78 a8 00 2c 	BNZ        @0x02003af4    // 2003af4 <__swsetup_r+0x104>
 2003ac8:	23 40 80 00 	MOV        R2,R4
 2003acc:	20 40 02 80 	AND        $640,R4
 2003ad0:	24 00 02 00 	CMP        $512,R4
 2003ad4:	78 88 00 1c 	BZ         @0x02003af4    // 2003af4 <__swsetup_r+0x104>
 2003ad8:	97 a8 8f b0 	MOV        R5,R2          | MOV        R6,R1
 2003adc:	87 fa fc f8 	JSR        0x02006ca0     // 2006ca0 <__smakebuf_r>
 2003ae0:	02 00 6c a0 
 2003ae4:	1d 05 40 0c 	LH         12(R5),R3
 2003ae8:	13 40 c0 00 	MOV        R3,R2
 2003aec:	10 40 ff ff 	AND        $65535,R2
 2003af0:	0c 85 40 10 	LW         16(R5),R1
 2003af4:	a7 90 a1 01 	MOV        R2,R4          | AND        $1,R4
 2003af8:	78 88 00 1c 	BZ         @0x02003b18    // 2003b18 <__swsetup_r+0x128>
 2003afc:	26 00 00 00 	CLR        R4
 2003b00:	24 c5 40 08 	SW         R4,$8(R5)
 2003b04:	24 85 40 14 	LW         20(R5),R4
 2003b08:	23 41 1f ff 	MOV        $-1+R4,R4
 2003b0c:	21 03 ff ff 	XOR        $-1,R4
 2003b10:	24 c5 40 18 	SW         R4,$24(R5)
 2003b14:	78 80 00 0c 	BRA        @0x02003b24    // 2003b24 <__swsetup_r+0x134>
 2003b18:	b7 90 b1 02 	MOV        R2,R6          | AND        $2,R6
 2003b1c:	24 8d 40 14 	LW.Z       20(R5),R4
 2003b20:	24 c5 40 08 	SW         R4,$8(R5)
 2003b24:	0c 00 00 00 	CMP        $0,R1
 2003b28:	78 a8 00 18 	BNZ        @0x02003b44    // 2003b44 <__swsetup_r+0x154>
 2003b2c:	10 40 00 80 	AND        $128,R2
 2003b30:	78 88 00 18 	BZ         @0x02003b4c    // 2003b4c <__swsetup_r+0x15c>
 2003b34:	18 c0 00 40 	OR         $64,R3
 2003b38:	1d 45 40 0c 	SH         R3,$12(R5)
 2003b3c:	0e 7f ff ff 	LDI        $-1,R1
 2003b40:	78 80 00 08 	BRA        @0x02003b4c    // 2003b4c <__swsetup_r+0x15c>
 2003b44:	0e 00 00 00 	CLR        R1
 2003b48:	78 80 00 00 	BRA        @0x02003b4c    // 2003b4c <__swsetup_r+0x15c>
 2003b4c:	84 00 ac 04 	LW         (SP),R0        | LW         4(SP),R5
 2003b50:	b4 08 ea 0c 	LW         8(SP),R6       | ADD        $12,SP
 2003b54:	7b 40 00 00 	RTN

02003b58 <quorem>:
 2003b58:	e8 2c 85 08 	SUB        $44,SP         | SW         R0,$8(SP)
 2003b5c:	ad 0c b5 10 	SW         R5,$12(SP)     | SW         R6,$16(SP)
 2003b60:	bd 14 c5 18 	SW         R7,$20(SP)     | SW         R8,$24(SP)
 2003b64:	cd 1c d5 20 	SW         R9,$28(SP)     | SW         R10,$32(SP)
 2003b68:	dd 24 e5 28 	SW         R11,$36(SP)    | SW         R12,$40(SP)
 2003b6c:	14 c7 40 00 	SW         R2,(SP)
 2003b70:	44 84 80 10 	LW         16(R2),R8
 2003b74:	14 84 40 10 	LW         16(R1),R2
 2003b78:	14 06 00 00 	CMP        R8,R2
 2003b7c:	78 90 01 90 	BLT        @0x02003d10    // 2003d10 <quorem+0x1b8>
 2003b80:	ac 00 aa 14 	LW         (SP),R5        | ADD        $20,R5
 2003b84:	c2 7f 87 c0 	ADD        $-1,R8         | MOV        R8,R0
 2003b88:	01 80 00 02 	LSL        $2,R0
 2003b8c:	cf a8 ca 80 	MOV        R5,R9          | ADD        R0,R9
 2003b90:	d7 88 d2 14 	MOV        R1,R10         | ADD        $20,R10
 2003b94:	97 d0 92 80 	MOV        R10,R2         | ADD        R0,R2
 2003b98:	95 04 84 c8 	SW         R2,$4(SP)      | LW         (R9),R0
 2003b9c:	3c 84 80 00 	LW         (R2),R7
 2003ba0:	3b 84 00 01 	DIVU       $1+R0,R7
 2003ba4:	78 88 00 b8 	BZ         @0x02003c60    // 2003c60 <quorem+0x108>
 2003ba8:	df a8 b7 d0 	MOV        R5,R11         | MOV        R10,R6
 2003bac:	e6 00 a6 00 	CLR        R12            | CLR        R4
 2003bb0:	9c d8 da 04 	LW         (R11),R3       | ADD        $4,R11
 2003bb4:	13 40 c0 00 	MOV        R3,R2
 2003bb8:	10 40 ff ff 	AND        $65535,R2
 2003bbc:	13 05 c0 00 	MPY        R7,R2
 2003bc0:	10 87 00 00 	ADD        R12,R2
 2003bc4:	19 40 00 10 	LSR        $16,R3
 2003bc8:	1b 05 c0 00 	MPY        R7,R3
 2003bcc:	03 40 80 00 	MOV        R2,R0
 2003bd0:	01 40 00 10 	LSR        $16,R0
 2003bd4:	9a 80 e7 98 	ADD        R0,R3          | MOV        R3,R12
 2003bd8:	61 40 00 10 	LSR        $16,R12
 2003bdc:	04 85 80 00 	LW         (R6),R0
 2003be0:	10 40 ff ff 	AND        $65535,R2
 2003be4:	a0 90 97 a0 	SUB        R2,R4          | MOV        R4,R2
 2003be8:	23 40 00 00 	MOV        R0,R4
 2003bec:	20 40 ff ff 	AND        $65535,R4
 2003bf0:	10 85 00 00 	ADD        R4,R2
 2003bf4:	01 40 00 10 	LSR        $16,R0
 2003bf8:	18 40 ff ff 	AND        $65535,R3
 2003bfc:	80 98 9f 90 	SUB        R3,R0          | MOV        R2,R3
 2003c00:	19 c0 00 10 	ASR        $16,R3
 2003c04:	82 98 a7 80 	ADD        R3,R0          | MOV        R0,R4
 2003c08:	21 c0 00 10 	ASR        $16,R4
 2003c0c:	30 80 00 04 	ADD        $4,R6
 2003c10:	01 80 00 10 	LSL        $16,R0
 2003c14:	10 40 ff ff 	AND        $65535,R2
 2003c18:	00 c4 80 00 	OR         R2,R0
 2003c1c:	85 b4 cb d8 	SW         R0,$-4(R6)     | CMP        R11,R9
 2003c20:	78 bb ff 8c 	BNC        @0x02003bb0    // 2003bb0 <quorem+0x58>
 2003c24:	9c 04 84 98 	LW         4(SP),R3       | LW         (R3),R0
 2003c28:	04 00 00 00 	CMP        $0,R0
 2003c2c:	78 a8 00 30 	BNZ        @0x02003c60    // 2003c60 <quorem+0x108>
 2003c30:	87 98 82 7c 	MOV        R3,R0          | ADD        $-4,R0
 2003c34:	54 04 00 00 	CMP        R0,R10
 2003c38:	78 b8 00 20 	BNC        @0x02003c5c    // 2003c5c <quorem+0x104>
 2003c3c:	94 9c 93 00 	LW         -4(R3),R2      | CMP        $0,R2
 2003c40:	78 a8 00 18 	BNZ        @0x02003c5c    // 2003c5c <quorem+0x104>
 2003c44:	c2 7f 82 7c 	ADD        $-1,R8         | ADD        $-4,R0
 2003c48:	54 04 00 00 	CMP        R0,R10
 2003c4c:	78 b8 00 0c 	BNC        @0x02003c5c    // 2003c5c <quorem+0x104>
 2003c50:	94 80 93 00 	LW         (R0),R2        | CMP        $0,R2
 2003c54:	78 8b ff ec 	BZ         @0x02003c44    // 2003c44 <quorem+0xec>
 2003c58:	78 80 00 00 	BRA        @0x02003c5c    // 2003c5c <quorem+0x104>
 2003c5c:	44 c4 40 10 	SW         R8,$16(R1)
 2003c60:	94 00 b7 88 	LW         (SP),R2        | MOV        R1,R6
 2003c64:	87 fa fc f8 	JSR        0x02008398     // 2008398 <__mcmp>
 2003c68:	02 00 83 98 
 2003c6c:	0c 00 00 00 	CMP        $0,R1
 2003c70:	78 90 00 94 	BLT        @0x02003d08    // 2003d08 <quorem+0x1b0>
 2003c74:	ba 01 9f d0 	ADD        $1,R7          | MOV        R10,R3
 2003c78:	16 00 00 00 	CLR        R2
 2003c7c:	dc a8 aa 04 	LW         (R5),R11       | ADD        $4,R5
 2003c80:	8c 98 a7 d8 	LW         (R3),R1        | MOV        R11,R4
 2003c84:	20 40 ff ff 	AND        $65535,R4
 2003c88:	90 a0 e7 88 	SUB        R4,R2          | MOV        R1,R12
 2003c8c:	60 40 ff ff 	AND        $65535,R12
 2003c90:	a7 90 a2 e0 	MOV        R2,R4          | ADD        R12,R4
 2003c94:	09 40 00 10 	LSR        $16,R1
 2003c98:	59 40 00 10 	LSR        $16,R11
 2003c9c:	88 d8 97 a0 	SUB        R11,R1         | MOV        R4,R2
 2003ca0:	11 c0 00 10 	ASR        $16,R2
 2003ca4:	8a 90 97 88 	ADD        R2,R1          | MOV        R1,R2
 2003ca8:	11 c0 00 10 	ASR        $16,R2
 2003cac:	18 80 00 04 	ADD        $4,R3
 2003cb0:	09 80 00 10 	LSL        $16,R1
 2003cb4:	20 40 ff ff 	AND        $65535,R4
 2003cb8:	08 c5 00 00 	OR         R4,R1
 2003cbc:	8d 9c cb a8 	SW         R1,$-4(R3)     | CMP        R5,R9
 2003cc0:	78 bb ff b8 	BNC        @0x02003c7c    // 2003c7c <quorem+0x124>
 2003cc4:	0b 42 00 00 	MOV        R8,R1
 2003cc8:	09 80 00 02 	LSL        $2,R1
 2003ccc:	97 d0 92 88 	MOV        R10,R2         | ADD        R1,R2
 2003cd0:	8c 90 8b 00 	LW         (R2),R1        | CMP        $0,R1
 2003cd4:	78 a8 00 30 	BNZ        @0x02003d08    // 2003d08 <quorem+0x1b0>
 2003cd8:	8f 90 8a 7c 	MOV        R2,R1          | ADD        $-4,R1
 2003cdc:	54 04 40 00 	CMP        R1,R10
 2003ce0:	78 b8 00 20 	BNC        @0x02003d04    // 2003d04 <quorem+0x1ac>
 2003ce4:	94 94 93 00 	LW         -4(R2),R2      | CMP        $0,R2
 2003ce8:	78 a8 00 18 	BNZ        @0x02003d04    // 2003d04 <quorem+0x1ac>
 2003cec:	c2 7f 8a 7c 	ADD        $-1,R8         | ADD        $-4,R1
 2003cf0:	54 04 40 00 	CMP        R1,R10
 2003cf4:	78 b8 00 0c 	BNC        @0x02003d04    // 2003d04 <quorem+0x1ac>
 2003cf8:	94 88 93 00 	LW         (R1),R2        | CMP        $0,R2
 2003cfc:	78 8b ff ec 	BZ         @0x02003cec    // 2003cec <quorem+0x194>
 2003d00:	78 80 00 00 	BRA        @0x02003d04    // 2003d04 <quorem+0x1ac>
 2003d04:	44 c5 80 10 	SW         R8,$16(R6)
 2003d08:	0b 41 c0 00 	MOV        R7,R1
 2003d0c:	78 80 00 04 	BRA        @0x02003d14    // 2003d14 <quorem+0x1bc>
 2003d10:	0e 00 00 00 	CLR        R1
 2003d14:	84 08 ac 0c 	LW         8(SP),R0       | LW         12(SP),R5
 2003d18:	b4 10 bc 14 	LW         16(SP),R6      | LW         20(SP),R7
 2003d1c:	c4 18 cc 1c 	LW         24(SP),R8      | LW         28(SP),R9
 2003d20:	d4 20 dc 24 	LW         32(SP),R10     | LW         36(SP),R11
 2003d24:	e4 28 ea 2c 	LW         40(SP),R12     | ADD        $44,SP
 2003d28:	7b 40 00 00 	RTN

02003d2c <_dtoa_r>:
 2003d2c:	68 00 00 78 	SUB        $120,SP
 2003d30:	04 c7 40 54 	SW         R0,$84(SP)
 2003d34:	2c c7 40 58 	SW         R5,$88(SP)
 2003d38:	34 c7 40 5c 	SW         R6,$92(SP)
 2003d3c:	3c c7 40 60 	SW         R7,$96(SP)
 2003d40:	44 c7 40 64 	SW         R8,$100(SP)
 2003d44:	4c c7 40 68 	SW         R9,$104(SP)
 2003d48:	54 c7 40 6c 	SW         R10,$108(SP)
 2003d4c:	5c c7 40 70 	SW         R11,$112(SP)
 2003d50:	64 c7 40 74 	SW         R12,$116(SP)
 2003d54:	b7 88 c7 90 	MOV        R1,R6          | MOV        R2,R8
 2003d58:	9d 08 e7 a0 	SW         R3,$8(SP)      | MOV        R4,R12
 2003d5c:	2c c7 40 10 	SW         R5,$16(SP)
 2003d60:	2c 87 40 7c 	LW         124(SP),R5
 2003d64:	14 c7 40 04 	SW         R2,$4(SP)
 2003d68:	14 84 40 40 	LW         64(R1),R2
 2003d6c:	14 00 00 00 	CMP        $0,R2
 2003d70:	78 88 00 24 	BZ         @0x02003d98    // 2003d98 <_dtoa_r+0x6c>
 2003d74:	24 84 40 44 	LW         68(R1),R4
 2003d78:	24 c4 80 04 	SW         R4,$4(R2)
 2003d7c:	1e 00 00 01 	LDI        $1,R3
 2003d80:	19 85 00 00 	LSL        R4,R3
 2003d84:	1c c4 80 08 	SW         R3,$8(R2)
 2003d88:	87 fa fc f8 	JSR        0x020075a0     // 20075a0 <_Bfree>
 2003d8c:	02 00 75 a0 
 2003d90:	0e 00 00 00 	CLR        R1
 2003d94:	0c c5 80 40 	SW         R1,$64(R6)
 2003d98:	44 00 00 00 	CMP        $0,R8
 2003d9c:	78 b0 00 10 	BGE        @0x02003db0    // 2003db0 <_dtoa_r+0x84>
 2003da0:	96 01 95 a8 	LDI        $1,R2          | SW         R2,(R5)
 2003da4:	0a 03 ff fe 	BREV       $-2,R1
 2003da8:	c1 88 c5 04 	AND        R1,R8          | SW         R8,$4(SP)
 2003dac:	78 80 00 04 	BRA        @0x02003db4    // 2003db4 <_dtoa_r+0x88>
 2003db0:	9e 00 9d a8 	CLR        R3             | SW         R3,(R5)
 2003db4:	0a 00 0f fe 	BREV       $4094,R1
 2003db8:	97 c0 91 88 	MOV        R8,R2          | AND        R1,R2
 2003dbc:	14 04 40 00 	CMP        R1,R2
 2003dc0:	78 a8 00 4c 	BNZ        @0x02003e10    // 2003e10 <_dtoa_r+0xe4>
 2003dc4:	16 00 27 0f 	LDI        $9999,R2
 2003dc8:	0c 87 40 78 	LW         120(SP),R1
 2003dcc:	95 88 9c 08 	SW         R2,(R1)        | LW         8(SP),R3
 2003dd0:	1c 00 00 00 	CMP        $0,R3
 2003dd4:	78 a8 13 0c 	BNZ        @0x020050e4    // 20050e4 <_dtoa_r+0x13b8>
 2003dd8:	0e 0f ff ff 	LDI        $1048575,R1
 2003ddc:	40 44 40 00 	AND        R1,R8
 2003de0:	78 88 13 18 	BZ         @0x020050fc    // 20050fc <_dtoa_r+0x13d0>
 2003de4:	78 80 12 fc 	BRA        @0x020050e4    // 20050e4 <_dtoa_r+0x13b8>
 2003de8:	0a 03 00 40 	LDI        0x0200e32c,R1  // 200e32c <blanks.4493+0x1c>
 2003dec:	0a 40 e3 2c 
 2003df0:	13 40 40 03 	MOV        $3+R1,R2
 2003df4:	78 80 00 0c 	BRA        @0x02003e04    // 2003e04 <_dtoa_r+0xd8>
 2003df8:	0a 03 00 40 	LDI        0x0200e320,R1  // 200e320 <blanks.4493+0x10>
 2003dfc:	0a 40 e3 20 
 2003e00:	13 40 40 08 	MOV        $8+R1,R2
 2003e04:	1c 87 40 80 	LW         128(SP),R3
 2003e08:	14 c4 c0 00 	SW         R2,(R3)
 2003e0c:	78 80 14 58 	BRA        @0x02005268    // 2005268 <_dtoa_r+0x153c>
 2003e10:	9e 00 a6 00 	CLR        R3             | CLR        R4
 2003e14:	8c 04 94 08 	LW         4(SP),R1       | LW         8(SP),R2
 2003e18:	87 fa fc f8 	JSR        0x0200d500     // 200d500 <__eqdf2>
 2003e1c:	02 00 d5 00 
 2003e20:	0c 00 00 00 	CMP        $0,R1
 2003e24:	78 a8 00 38 	BNZ        @0x02003e60    // 2003e60 <_dtoa_r+0x134>
 2003e28:	16 00 00 01 	LDI        $1,R2
 2003e2c:	0c 87 40 78 	LW         120(SP),R1
 2003e30:	14 c4 40 00 	SW         R2,(R1)
 2003e34:	1c 87 40 80 	LW         128(SP),R3
 2003e38:	0a 03 00 40 	LDI        0x0200e2fc,R1  // 200e2fc <__call_exitprocs+0x2d8>
 2003e3c:	0a 40 e2 fc 
 2003e40:	1c 00 00 00 	CMP        $0,R3
 2003e44:	78 88 14 20 	BZ         @0x02005268    // 2005268 <_dtoa_r+0x153c>
 2003e48:	0a 03 00 40 	LDI        0x0200e2fd,R1  // 200e2fd <__call_exitprocs+0x2d9>
 2003e4c:	0a 40 e2 fd 
 2003e50:	0c c4 c0 00 	SW         R1,(R3)
 2003e54:	0a 03 00 40 	LDI        0x0200e2fc,R1  // 200e2fc <__call_exitprocs+0x2d8>
 2003e58:	0a 40 e2 fc 
 2003e5c:	78 80 14 08 	BRA        @0x02005268    // 2005268 <_dtoa_r+0x153c>
 2003e60:	2b 43 40 4c 	MOV        $76+SP,R5
 2003e64:	23 43 40 50 	MOV        $80+SP,R4
 2003e68:	94 04 9c 08 	LW         4(SP),R2       | LW         8(SP),R3
 2003e6c:	0b 41 80 00 	MOV        R6,R1
 2003e70:	87 fa fc f8 	JSR        0x020088a4     // 20088a4 <__d2b>
 2003e74:	02 00 88 a4 
 2003e78:	8d 24 af c0 	SW         R1,$36(SP)     | MOV        R8,R5
 2003e7c:	29 40 00 14 	LSR        $20,R5
 2003e80:	78 88 00 2c 	BZ         @0x02003eb0    // 2003eb0 <_dtoa_r+0x184>
 2003e84:	14 87 40 08 	LW         8(SP),R2
 2003e88:	0e 0f ff ff 	LDI        $1048575,R1
 2003e8c:	9c 04 99 88 	LW         4(SP),R3       | AND        R1,R3
 2003e90:	0b 40 c0 00 	MOV        R3,R1
 2003e94:	1a 00 0f fc 	BREV       $4092,R3
 2003e98:	08 c4 c0 00 	OR         R3,R1
 2003e9c:	28 83 fc 01 	ADD        $-1023,R5
 2003ea0:	3c 87 40 4c 	LW         76(SP),R7
 2003ea4:	06 00 00 00 	CLR        R0
 2003ea8:	04 c7 40 40 	SW         R0,$64(SP)
 2003eac:	78 80 00 5c 	BRA        @0x02003f0c    // 2003f0c <_dtoa_r+0x1e0>
 2003eb0:	3c 87 40 4c 	LW         76(SP),R7
 2003eb4:	0c 87 40 50 	LW         80(SP),R1
 2003eb8:	af b8 aa 88 	MOV        R7,R5          | ADD        R1,R5
 2003ebc:	13 41 40 00 	MOV        R5,R2
 2003ec0:	10 80 04 32 	ADD        $1074,R2
 2003ec4:	14 00 00 21 	CMP        $33,R2
 2003ec8:	78 90 00 18 	BLT        @0x02003ee4    // 2003ee4 <_dtoa_r+0x1b8>
 2003ecc:	0c 87 40 08 	LW         8(SP),R1
 2003ed0:	09 45 44 12 	LSR        $1042+R5,R1
 2003ed4:	9e 40 98 90 	LDI        $64,R3         | SUB        R2,R3
 2003ed8:	41 84 c0 00 	LSL        R3,R8
 2003edc:	08 c6 00 00 	OR         R8,R1
 2003ee0:	78 80 00 10 	BRA        @0x02003ef4    // 2003ef4 <_dtoa_r+0x1c8>
 2003ee4:	8e 20 88 90 	LDI        $32,R1         | SUB        R2,R1
 2003ee8:	14 87 40 08 	LW         8(SP),R2
 2003eec:	11 84 40 00 	LSL        R1,R2
 2003ef0:	0b 40 80 00 	MOV        R2,R1
 2003ef4:	87 fa fc f8 	JSR        0x0200d8a4     // 200d8a4 <__floatunsidf>
 2003ef8:	02 00 d8 a4 
 2003efc:	1a 00 08 7f 	BREV       $2175,R3
 2003f00:	8a 98 aa 7f 	ADD        R3,R1          | ADD        $-1,R5
 2003f04:	1e 00 00 01 	LDI        $1,R3
 2003f08:	1c c7 40 40 	SW         R3,$64(SP)
 2003f0c:	1a 00 1f fc 	BREV       $8188,R3
 2003f10:	26 00 00 00 	CLR        R4
 2003f14:	87 fa fc f8 	JSR        0x0200cb2c     // 200cb2c <__subdf3>
 2003f18:	02 00 cb 2c 
 2003f1c:	1a 01 4b fc 	LDI        0x3fd287a7,R3  // 3fd287a7 <_top_of_stack+0x3cd287a7>
 2003f20:	1a 40 87 a7 
 2003f24:	22 00 f6 c6 	LDI        0x636f4361,R4  // 636f4361 <_top_of_stack+0x606f4361>
 2003f28:	22 40 43 61 
 2003f2c:	87 fa fc f8 	JSR        0x0200cf38     // 200cf38 <__muldf3>
 2003f30:	02 00 cf 38 
 2003f34:	1a 01 63 fc 	LDI        0x3fc68a28,R3  // 3fc68a28 <_top_of_stack+0x3cc68a28>
 2003f38:	1a 40 8a 28 
 2003f3c:	22 01 06 d1 	LDI        0x8b60c8b3,R4  // 8b60c8b3 <_top_of_stack+0x8860c8b3>
 2003f40:	22 40 c8 b3 
 2003f44:	87 fa fc f8 	JSR        0x0200c730     // 200c730 <__adddf3>
 2003f48:	02 00 c7 30 
 2003f4c:	cf 88 c7 90 	MOV        R1,R9          | MOV        R2,R8
 2003f50:	0b 41 40 00 	MOV        R5,R1
 2003f54:	87 fa fc f8 	JSR        0x0200d748     // 200d748 <__floatsidf>
 2003f58:	02 00 d7 48 
 2003f5c:	1a 00 cb fc 	LDI        0x3fd34413,R3  // 3fd34413 <_top_of_stack+0x3cd34413>
 2003f60:	1a 40 44 13 
 2003f64:	22 00 f9 0a 	LDI        0x509f79fb,R4  // 509f79fb <_top_of_stack+0x4d9f79fb>
 2003f68:	22 40 79 fb 
 2003f6c:	87 fa fc f8 	JSR        0x0200cf38     // 200cf38 <__muldf3>
 2003f70:	02 00 cf 38 
 2003f74:	9f 88 a7 90 	MOV        R1,R3          | MOV        R2,R4
 2003f78:	8f c8 97 c0 	MOV        R9,R1          | MOV        R8,R2
 2003f7c:	87 fa fc f8 	JSR        0x0200c730     // 200c730 <__adddf3>
 2003f80:	02 00 c7 30 
 2003f84:	cf 88 c7 90 	MOV        R1,R9          | MOV        R2,R8
 2003f88:	87 fa fc f8 	JSR        0x0200d7f4     // 200d7f4 <__fixdfsi>
 2003f8c:	02 00 d7 f4 
 2003f90:	8d 0c 9e 00 	SW         R1,$12(SP)     | CLR        R3
 2003f94:	a6 00 8f c8 	CLR        R4             | MOV        R9,R1
 2003f98:	13 42 00 00 	MOV        R8,R2
 2003f9c:	87 fa fc f8 	JSR        0x0200d62c     // 200d62c <__ltdf2>
 2003fa0:	02 00 d6 2c 
 2003fa4:	0c 00 00 00 	CMP        $0,R1
 2003fa8:	78 b0 00 2c 	BGE        @0x02003fd8    // 2003fd8 <_dtoa_r+0x2ac>
 2003fac:	0c 87 40 0c 	LW         12(SP),R1
 2003fb0:	87 fa fc f8 	JSR        0x0200d748     // 200d748 <__floatsidf>
 2003fb4:	02 00 d7 48 
 2003fb8:	9f 88 a7 90 	MOV        R1,R3          | MOV        R2,R4
 2003fbc:	8f c8 97 c0 	MOV        R9,R1          | MOV        R8,R2
 2003fc0:	87 fa fc f8 	JSR        0x0200d564     // 200d564 <__nedf2>
 2003fc4:	02 00 d5 64 
 2003fc8:	0c 00 00 00 	CMP        $0,R1
 2003fcc:	78 88 00 08 	BZ         @0x02003fd8    // 2003fd8 <_dtoa_r+0x2ac>
 2003fd0:	84 0c 82 7f 	LW         12(SP),R0      | ADD        $-1,R0
 2003fd4:	04 c7 40 0c 	SW         R0,$12(SP)
 2003fd8:	8c 0c 8b 17 	LW         12(SP),R1      | CMP        $23,R1
 2003fdc:	78 b8 00 3c 	BNC        @0x0200401c    // 200401c <_dtoa_r+0x2f0>
 2003fe0:	13 40 40 00 	MOV        R1,R2
 2003fe4:	11 80 00 03 	LSL        $3,R2
 2003fe8:	0a 03 00 40 	LDI        0x0200e3a0,R1  // 200e3a0 <__mprec_tens>
 2003fec:	0a 40 e3 a0 
 2003ff0:	8a 90 9c 88 	ADD        R2,R1          | LW         (R1),R3
 2003ff4:	24 84 40 04 	LW         4(R1),R4
 2003ff8:	8c 04 94 08 	LW         4(SP),R1       | LW         8(SP),R2
 2003ffc:	87 fa fc f8 	JSR        0x0200d62c     // 200d62c <__ltdf2>
 2004000:	02 00 d6 2c 
 2004004:	0c 00 00 00 	CMP        $0,R1
 2004008:	78 b0 00 18 	BGE        @0x02004024    // 2004024 <_dtoa_r+0x2f8>
 200400c:	94 0c 92 7f 	LW         12(SP),R2      | ADD        $-1,R2
 2004010:	95 0c 9e 00 	SW         R2,$12(SP)     | CLR        R3
 2004014:	1c c7 40 3c 	SW         R3,$60(SP)
 2004018:	78 80 00 0c 	BRA        @0x02004028    // 2004028 <_dtoa_r+0x2fc>
 200401c:	86 01 85 3c 	LDI        $1,R0          | SW         R0,$60(SP)
 2004020:	78 80 00 04 	BRA        @0x02004028    // 2004028 <_dtoa_r+0x2fc>
 2004024:	8e 00 8d 3c 	CLR        R1             | SW         R1,$60(SP)
 2004028:	b8 a8 97 b8 	SUB        R5,R7          | MOV        R7,R2
 200402c:	92 7f 95 14 	ADD        $-1,R2         | SW         R2,$20(SP)
 2004030:	78 b0 00 10 	BGE        @0x02004044    // 2004044 <_dtoa_r+0x318>
 2004034:	8e 01 88 b8 	LDI        $1,R1          | SUB        R7,R1
 2004038:	8d 20 9e 00 	SW         R1,$32(SP)     | CLR        R3
 200403c:	1c c7 40 14 	SW         R3,$20(SP)
 2004040:	78 80 00 04 	BRA        @0x02004048    // 2004048 <_dtoa_r+0x31c>
 2004044:	86 00 85 20 	CLR        R0             | SW         R0,$32(SP)
 2004048:	8c 0c 8b 00 	LW         12(SP),R1      | CMP        $0,R1
 200404c:	78 90 00 10 	BLT        @0x02004060    // 2004060 <_dtoa_r+0x334>
 2004050:	94 14 92 88 	LW         20(SP),R2      | ADD        R1,R2
 2004054:	95 14 8d 34 	SW         R2,$20(SP)     | SW         R1,$52(SP)
 2004058:	9e 00 9d 30 	CLR        R3             | SW         R3,$48(SP)
 200405c:	78 80 00 18 	BRA        @0x02004078    // 2004078 <_dtoa_r+0x34c>
 2004060:	84 20 80 88 	LW         32(SP),R0      | SUB        R1,R0
 2004064:	04 c7 40 20 	SW         R0,$32(SP)
 2004068:	13 40 5f ff 	MOV        $-1+R1,R2
 200406c:	11 03 ff ff 	XOR        $-1,R2
 2004070:	95 30 9e 00 	SW         R2,$48(SP)     | CLR        R3
 2004074:	1c c7 40 34 	SW         R3,$52(SP)
 2004078:	64 00 00 0a 	CMP        $10,R12
 200407c:	78 b8 11 a8 	BNC        @0x02005228    // 2005228 <_dtoa_r+0x14fc>
 2004080:	ae 01 e3 06 	LDI        $1,R5          | CMP        $6,R12
 2004084:	78 90 11 2c 	BLT        @0x020051b4    // 20051b4 <_dtoa_r+0x1488>
 2004088:	e2 7c ae 00 	ADD        $-4,R12        | CLR        R5
 200408c:	78 80 11 24 	BRA        @0x020051b4    // 20051b4 <_dtoa_r+0x1488>
 2004090:	86 01 85 28 	LDI        $1,R0          | SW         R0,$40(SP)
 2004094:	78 80 00 04 	BRA        @0x0200409c    // 200409c <_dtoa_r+0x370>
 2004098:	8e 00 8d 28 	CLR        R1             | SW         R1,$40(SP)
 200409c:	94 10 93 01 	LW         16(SP),R2      | CMP        $1,R2
 20040a0:	78 90 11 40 	BLT        @0x020051e4    // 20051e4 <_dtoa_r+0x14b8>
 20040a4:	bf 90 93 0f 	MOV        R2,R7          | CMP        $15,R2
 20040a8:	0e 00 00 00 	CLR        R1
 20040ac:	0a 58 00 01 	LDILO.C    $1,R1
 20040b0:	a9 88 95 2c 	AND        R1,R5          | SW         R2,$44(SP)
 20040b4:	14 c7 40 1c 	SW         R2,$28(SP)
 20040b8:	78 80 00 24 	BRA        @0x020040e0    // 20040e0 <_dtoa_r+0x3b4>
 20040bc:	9e 00 9d 28 	CLR        R3             | SW         R3,$40(SP)
 20040c0:	84 0c 8c 10 	LW         12(SP),R0      | LW         16(SP),R1
 20040c4:	82 88 85 2c 	ADD        R1,R0          | SW         R0,$44(SP)
 20040c8:	82 01 85 1c 	ADD        $1,R0          | SW         R0,$28(SP)
 20040cc:	be 01 bb 80 	LDI        $1,R7          | CMP        R0,R7
 20040d0:	3b 50 00 00 	MOV.LT     R0,R7
 20040d4:	83 0f 8e 00 	CMP        $15,R0         | CLR        R1
 20040d8:	0a 58 00 01 	LDILO.C    $1,R1
 20040dc:	28 44 40 00 	AND        R1,R5
 20040e0:	16 00 00 00 	CLR        R2
 20040e4:	14 c5 80 44 	SW         R2,$68(R6)
 20040e8:	96 00 bb 18 	CLR        R2             | CMP        $24,R7
 20040ec:	78 98 00 1c 	BC         @0x0200410c    // 200410c <_dtoa_r+0x3e0>
 20040f0:	9e 01 8e 04 	LDI        $1,R3          | LDI        $4,R1
 20040f4:	97 98 8a 88 	MOV        R3,R2          | ADD        R1,R1
 20040f8:	9f 99 a7 88 	MOV        $1+R3,R3       | MOV        R1,R4
 20040fc:	a2 14 bb a0 	ADD        $20,R4         | CMP        R4,R7
 2004100:	78 bb ff f0 	BNC        @0x020040f4    // 20040f4 <_dtoa_r+0x3c8>
 2004104:	14 c5 80 44 	SW         R2,$68(R6)
 2004108:	78 80 00 00 	BRA        @0x0200410c    // 200410c <_dtoa_r+0x3e0>
 200410c:	0b 41 80 00 	MOV        R6,R1
 2004110:	87 fa fc f8 	JSR        0x02007504     // 2007504 <_Balloc>
 2004114:	02 00 75 04 
 2004118:	0c c7 40 18 	SW         R1,$24(SP)
 200411c:	0c c5 80 40 	SW         R1,$64(R6)
 2004120:	2c 00 00 00 	CMP        $0,R5
 2004124:	78 88 05 50 	BZ         @0x02004678    // 2004678 <_dtoa_r+0x94c>
 2004128:	9c 0c 9b 01 	LW         12(SP),R3      | CMP        $1,R3
 200412c:	78 90 00 b0 	BLT        @0x020041e0    // 20041e0 <_dtoa_r+0x4b4>
 2004130:	97 98 91 0f 	MOV        R3,R2          | AND        $15,R2
 2004134:	11 80 00 03 	LSL        $3,R2
 2004138:	0a 03 00 40 	LDI        0x0200e3a0,R1  // 200e3a0 <__mprec_tens>
 200413c:	0a 40 e3 a0 
 2004140:	8a 90 d4 88 	ADD        R2,R1          | LW         (R1),R10
 2004144:	4c 84 40 04 	LW         4(R1),R9
 2004148:	2b 40 c0 00 	MOV        R3,R5
 200414c:	29 c0 00 04 	ASR        $4,R5
 2004150:	8f a8 89 10 	MOV        R5,R1          | AND        $16,R1
 2004154:	78 88 00 2c 	BZ         @0x02004184    // 2004184 <_dtoa_r+0x458>
 2004158:	28 40 00 0f 	AND        $15,R5
 200415c:	0a 03 00 40 	LDI        0x0200e378,R1  // 200e378 <__mprec_bigtens>
 2004160:	0a 40 e3 78 
 2004164:	1c 84 40 20 	LW         32(R1),R3
 2004168:	24 84 40 24 	LW         36(R1),R4
 200416c:	8c 04 94 08 	LW         4(SP),R1       | LW         8(SP),R2
 2004170:	87 fa fc f8 	JSR        0x0200d2e0     // 200d2e0 <__divdf3>
 2004174:	02 00 d2 e0 
 2004178:	8d 38 df 90 	SW         R1,$56(SP)     | MOV        R2,R11
 200417c:	46 00 00 03 	LDI        $3,R8
 2004180:	78 80 00 08 	BRA        @0x0200418c    // 200418c <_dtoa_r+0x460>
 2004184:	84 04 85 38 	LW         4(SP),R0       | SW         R0,$56(SP)
 2004188:	dc 08 c6 02 	LW         8(SP),R11      | LDI        $2,R8
 200418c:	2c 00 00 00 	CMP        $0,R5
 2004190:	78 88 00 34 	BZ         @0x020041c8    // 20041c8 <_dtoa_r+0x49c>
 2004194:	3a 03 00 40 	LDI        0x0200e378,R7  // 200e378 <__mprec_bigtens>
 2004198:	3a 40 e3 78 
 200419c:	8f d0 97 c8 	MOV        R10,R1         | MOV        R9,R2
 20041a0:	9f a8 99 01 	MOV        R5,R3          | AND        $1,R3
 20041a4:	78 88 00 10 	BZ         @0x020041b8    // 20041b8 <_dtoa_r+0x48c>
 20041a8:	c2 01 9c b8 	ADD        $1,R8          | LW         (R7),R3
 20041ac:	24 85 c0 04 	LW         4(R7),R4
 20041b0:	87 fa fc f8 	JSR        0x0200cf38     // 200cf38 <__muldf3>
 20041b4:	02 00 cf 38 
 20041b8:	29 c0 00 01 	ASR        $1,R5
 20041bc:	ba 08 ab 00 	ADD        $8,R7          | CMP        $0,R5
 20041c0:	78 ab ff dc 	BNZ        @0x020041a0    // 20041a0 <_dtoa_r+0x474>
 20041c4:	d7 88 cf 90 	MOV        R1,R10         | MOV        R2,R9
 20041c8:	9f d0 a7 c8 	MOV        R10,R3         | MOV        R9,R4
 20041cc:	8c 38 97 d8 	LW         56(SP),R1      | MOV        R11,R2
 20041d0:	87 fa fc f8 	JSR        0x0200d2e0     // 200d2e0 <__divdf3>
 20041d4:	02 00 d2 e0 
 20041d8:	d7 88 bf 90 	MOV        R1,R10         | MOV        R2,R7
 20041dc:	78 80 00 88 	BRA        @0x02004268    // 2004268 <_dtoa_r+0x53c>
 20041e0:	1c 00 00 00 	CMP        $0,R3
 20041e4:	78 88 00 70 	BZ         @0x02004258    // 2004258 <_dtoa_r+0x52c>
 20041e8:	2b 40 df ff 	MOV        $-1+R3,R5
 20041ec:	29 03 ff ff 	XOR        $-1,R5
 20041f0:	97 a8 91 0f 	MOV        R5,R2          | AND        $15,R2
 20041f4:	11 80 00 03 	LSL        $3,R2
 20041f8:	0a 03 00 40 	LDI        0x0200e3a0,R1  // 200e3a0 <__mprec_tens>
 20041fc:	0a 40 e3 a0 
 2004200:	8a 90 9c 88 	ADD        R2,R1          | LW         (R1),R3
 2004204:	24 84 40 04 	LW         4(R1),R4
 2004208:	8c 04 94 08 	LW         4(SP),R1       | LW         8(SP),R2
 200420c:	87 fa fc f8 	JSR        0x0200cf38     // 200cf38 <__muldf3>
 2004210:	02 00 cf 38 
 2004214:	d7 88 bf 90 	MOV        R1,R10         | MOV        R2,R7
 2004218:	29 c0 00 04 	ASR        $4,R5
 200421c:	78 88 00 44 	BZ         @0x02004264    // 2004264 <_dtoa_r+0x538>
 2004220:	4a 03 00 40 	LDI        0x0200e378,R9  // 200e378 <__mprec_bigtens>
 2004224:	4a 40 e3 78 
 2004228:	c6 02 8f d0 	LDI        $2,R8          | MOV        R10,R1
 200422c:	9f a8 99 01 	MOV        R5,R3          | AND        $1,R3
 2004230:	78 88 00 10 	BZ         @0x02004244    // 2004244 <_dtoa_r+0x518>
 2004234:	c2 01 9c c8 	ADD        $1,R8          | LW         (R9),R3
 2004238:	24 86 40 04 	LW         4(R9),R4
 200423c:	87 fa fc f8 	JSR        0x0200cf38     // 200cf38 <__muldf3>
 2004240:	02 00 cf 38 
 2004244:	29 c0 00 01 	ASR        $1,R5
 2004248:	ca 08 ab 00 	ADD        $8,R9          | CMP        $0,R5
 200424c:	78 ab ff dc 	BNZ        @0x0200422c    // 200422c <_dtoa_r+0x500>
 2004250:	d7 88 bf 90 	MOV        R1,R10         | MOV        R2,R7
 2004254:	78 80 00 10 	BRA        @0x02004268    // 2004268 <_dtoa_r+0x53c>
 2004258:	d4 04 bc 08 	LW         4(SP),R10      | LW         8(SP),R7
 200425c:	46 00 00 02 	LDI        $2,R8
 2004260:	78 80 00 04 	BRA        @0x02004268    // 2004268 <_dtoa_r+0x53c>
 2004264:	46 00 00 02 	LDI        $2,R8
 2004268:	94 3c 93 00 	LW         60(SP),R2      | CMP        $0,R2
 200426c:	78 88 00 88 	BZ         @0x020042f8    // 20042f8 <_dtoa_r+0x5cc>
 2004270:	1a 00 0f fc 	BREV       $4092,R3
 2004274:	a6 00 8f d0 	CLR        R4             | MOV        R10,R1
 2004278:	13 41 c0 00 	MOV        R7,R2
 200427c:	87 fa fc f8 	JSR        0x0200d62c     // 200d62c <__ltdf2>
 2004280:	02 00 d6 2c 
 2004284:	0c 00 00 00 	CMP        $0,R1
 2004288:	78 b0 00 6c 	BGE        @0x020042f8    // 20042f8 <_dtoa_r+0x5cc>
 200428c:	9c 1c 9b 00 	LW         28(SP),R3      | CMP        $0,R3
 2004290:	78 88 0e 80 	BZ         @0x02005114    // 2005114 <_dtoa_r+0x13e8>
 2004294:	84 2c 83 01 	LW         44(SP),R0      | CMP        $1,R0
 2004298:	78 90 03 dc 	BLT        @0x02004678    // 2004678 <_dtoa_r+0x94c>
 200429c:	8c 0c 8a 7f 	LW         12(SP),R1      | ADD        $-1,R1
 20042a0:	0c c7 40 44 	SW         R1,$68(SP)
 20042a4:	1a 00 24 02 	BREV       $9218,R3
 20042a8:	a6 00 8f d0 	CLR        R4             | MOV        R10,R1
 20042ac:	13 41 c0 00 	MOV        R7,R2
 20042b0:	87 fa fc f8 	JSR        0x0200cf38     // 200cf38 <__muldf3>
 20042b4:	02 00 cf 38 
 20042b8:	d7 88 bf 90 	MOV        R1,R10         | MOV        R2,R7
 20042bc:	8f c0 8a 01 	MOV        R8,R1          | ADD        $1,R1
 20042c0:	87 fa fc f8 	JSR        0x0200d748     // 200d748 <__floatsidf>
 20042c4:	02 00 d7 48 
 20042c8:	9f d0 a7 b8 	MOV        R10,R3         | MOV        R7,R4
 20042cc:	87 fa fc f8 	JSR        0x0200cf38     // 200cf38 <__muldf3>
 20042d0:	02 00 cf 38 
 20042d4:	1a 00 38 02 	BREV       $14338,R3
 20042d8:	26 00 00 00 	CLR        R4
 20042dc:	87 fa fc f8 	JSR        0x0200c730     // 200c730 <__adddf3>
 20042e0:	02 00 c7 30 
 20042e4:	43 40 80 00 	MOV        R2,R8
 20042e8:	12 00 03 3f 	BREV       $831,R2
 20042ec:	af 88 aa 90 	MOV        R1,R5          | ADD        R2,R5
 20042f0:	94 2c 95 38 	LW         44(SP),R2      | SW         R2,$56(SP)
 20042f4:	78 80 00 9c 	BRA        @0x02004394    // 2004394 <_dtoa_r+0x668>
 20042f8:	0b 42 00 00 	MOV        R8,R1
 20042fc:	87 fa fc f8 	JSR        0x0200d748     // 200d748 <__floatsidf>
 2004300:	02 00 d7 48 
 2004304:	9f d0 a7 b8 	MOV        R10,R3         | MOV        R7,R4
 2004308:	87 fa fc f8 	JSR        0x0200cf38     // 200cf38 <__muldf3>
 200430c:	02 00 cf 38 
 2004310:	1a 00 38 02 	BREV       $14338,R3
 2004314:	26 00 00 00 	CLR        R4
 2004318:	87 fa fc f8 	JSR        0x0200c730     // 200c730 <__adddf3>
 200431c:	02 00 c7 30 
 2004320:	43 40 80 00 	MOV        R2,R8
 2004324:	12 00 03 3f 	BREV       $831,R2
 2004328:	af 88 aa 90 	MOV        R1,R5          | ADD        R2,R5
 200432c:	9c 1c 9b 00 	LW         28(SP),R3      | CMP        $0,R3
 2004330:	78 a8 00 54 	BNZ        @0x02004388    // 2004388 <_dtoa_r+0x65c>
 2004334:	1a 00 28 02 	BREV       $10242,R3
 2004338:	a6 00 8f d0 	CLR        R4             | MOV        R10,R1
 200433c:	13 41 c0 00 	MOV        R7,R2
 2004340:	87 fa fc f8 	JSR        0x0200cb2c     // 200cb2c <__subdf3>
 2004344:	02 00 cb 2c 
 2004348:	cf 88 bf 90 	MOV        R1,R9          | MOV        R2,R7
 200434c:	9f a8 a7 c0 	MOV        R5,R3          | MOV        R8,R4
 2004350:	87 fa fc f8 	JSR        0x0200d5c8     // 200d5c8 <__gtdf2>
 2004354:	02 00 d5 c8 
 2004358:	0c 00 00 01 	CMP        $1,R1
 200435c:	78 b0 09 68 	BGE        @0x02004cc8    // 2004cc8 <_dtoa_r+0xf9c>
 2004360:	0a 00 00 01 	BREV       $1,R1
 2004364:	1b 41 40 00 	MOV        R5,R3
 2004368:	19 04 40 00 	XOR        R1,R3
 200436c:	a7 c0 8f c8 	MOV        R8,R4          | MOV        R9,R1
 2004370:	13 41 c0 00 	MOV        R7,R2
 2004374:	87 fa fc f8 	JSR        0x0200d62c     // 200d62c <__ltdf2>
 2004378:	02 00 d6 2c 
 200437c:	0c 00 00 00 	CMP        $0,R1
 2004380:	78 90 09 20 	BLT        @0x02004ca4    // 2004ca4 <_dtoa_r+0xf78>
 2004384:	78 80 02 f0 	BRA        @0x02004678    // 2004678 <_dtoa_r+0x94c>
 2004388:	04 87 40 0c 	LW         12(SP),R0
 200438c:	04 c7 40 44 	SW         R0,$68(SP)
 2004390:	1c c7 40 38 	SW         R3,$56(SP)
 2004394:	94 28 93 00 	LW         40(SP),R2      | CMP        $0,R2
 2004398:	78 88 01 84 	BZ         @0x02004520    // 2004520 <_dtoa_r+0x7f4>
 200439c:	94 38 92 7f 	LW         56(SP),R2      | ADD        $-1,R2
 20043a0:	11 80 00 03 	LSL        $3,R2
 20043a4:	0a 03 00 40 	LDI        0x0200e3a0,R1  // 200e3a0 <__mprec_tens>
 20043a8:	0a 40 e3 a0 
 20043ac:	8a 90 9c 88 	ADD        R2,R1          | LW         (R1),R3
 20043b0:	24 84 40 04 	LW         4(R1),R4
 20043b4:	0a 00 07 fc 	BREV       $2044,R1
 20043b8:	16 00 00 00 	CLR        R2
 20043bc:	87 fa fc f8 	JSR        0x0200d2e0     // 200d2e0 <__divdf3>
 20043c0:	02 00 d2 e0 
 20043c4:	9f a8 a7 c0 	MOV        R5,R3          | MOV        R8,R4
 20043c8:	87 fa fc f8 	JSR        0x0200cb2c     // 200cb2c <__subdf3>
 20043cc:	02 00 cb 2c 
 20043d0:	af 88 cf 90 	MOV        R1,R5          | MOV        R2,R9
 20043d4:	8f d0 97 b8 	MOV        R10,R1         | MOV        R7,R2
 20043d8:	87 fa fc f8 	JSR        0x0200d7f4     // 200d7f4 <__fixdfsi>
 20043dc:	02 00 d7 f4 
 20043e0:	43 40 40 00 	MOV        R1,R8
 20043e4:	87 fa fc f8 	JSR        0x0200d748     // 200d748 <__floatsidf>
 20043e8:	02 00 d7 48 
 20043ec:	9f 88 a7 90 	MOV        R1,R3          | MOV        R2,R4
 20043f0:	8f d0 97 b8 	MOV        R10,R1         | MOV        R7,R2
 20043f4:	87 fa fc f8 	JSR        0x0200cb2c     // 200cb2c <__subdf3>
 20043f8:	02 00 cb 2c 
 20043fc:	d7 88 df 90 	MOV        R1,R10         | MOV        R2,R11
 2004400:	bc 18 ba 01 	LW         24(SP),R7      | ADD        $1,R7
 2004404:	40 80 00 30 	ADD        $48,R8
 2004408:	40 40 00 ff 	AND        $255,R8
 200440c:	1c 87 40 18 	LW         24(SP),R3
 2004410:	45 c4 c0 00 	SB         R8,(R3)
 2004414:	9f d0 a7 90 	MOV        R10,R3         | MOV        R2,R4
 2004418:	8f a8 97 c8 	MOV        R5,R1          | MOV        R9,R2
 200441c:	87 fa fc f8 	JSR        0x0200d5c8     // 200d5c8 <__gtdf2>
 2004420:	02 00 d5 c8 
 2004424:	0c 00 00 01 	CMP        $1,R1
 2004428:	78 b0 0c 70 	BGE        @0x0200509c    // 200509c <_dtoa_r+0x1370>
 200442c:	9f d0 a7 d8 	MOV        R10,R3         | MOV        R11,R4
 2004430:	0a 00 0f fc 	BREV       $4092,R1
 2004434:	16 00 00 00 	CLR        R2
 2004438:	87 fa fc f8 	JSR        0x0200cb2c     // 200cb2c <__subdf3>
 200443c:	02 00 cb 2c 
 2004440:	9f 88 a7 90 	MOV        R1,R3          | MOV        R2,R4
 2004444:	8f a8 97 c8 	MOV        R5,R1          | MOV        R9,R2
 2004448:	87 fa fc f8 	JSR        0x0200d5c8     // 200d5c8 <__gtdf2>
 200444c:	02 00 d5 c8 
 2004450:	0c 00 00 01 	CMP        $1,R1
 2004454:	78 b0 03 f8 	BGE        @0x02004850    // 2004850 <_dtoa_r+0xb24>
 2004458:	84 38 83 01 	LW         56(SP),R0      | CMP        $1,R0
 200445c:	78 a8 00 3c 	BNZ        @0x0200449c    // 200449c <_dtoa_r+0x770>
 2004460:	78 80 02 14 	BRA        @0x02004678    // 2004678 <_dtoa_r+0x94c>
 2004464:	9f d0 a7 d8 	MOV        R10,R3         | MOV        R11,R4
 2004468:	0a 00 0f fc 	BREV       $4092,R1
 200446c:	16 00 00 00 	CLR        R2
 2004470:	87 fa fc f8 	JSR        0x0200cb2c     // 200cb2c <__subdf3>
 2004474:	02 00 cb 2c 
 2004478:	9f a8 a7 c8 	MOV        R5,R3          | MOV        R9,R4
 200447c:	87 fa fc f8 	JSR        0x0200d62c     // 200d62c <__ltdf2>
 2004480:	02 00 d6 2c 
 2004484:	0c 00 00 00 	CMP        $0,R1
 2004488:	78 90 03 cc 	BLT        @0x02004858    // 2004858 <_dtoa_r+0xb2c>
 200448c:	3c 07 00 00 	CMP        R12,R7
 2004490:	78 a8 00 10 	BNZ        @0x020044a4    // 20044a4 <_dtoa_r+0x778>
 2004494:	64 87 40 38 	LW         56(SP),R12
 2004498:	78 80 01 dc 	BRA        @0x02004678    // 2004678 <_dtoa_r+0x94c>
 200449c:	c4 18 c2 80 	LW         24(SP),R8      | ADD        R0,R8
 20044a0:	e5 38 e7 c0 	SW         R12,$56(SP)    | MOV        R8,R12
 20044a4:	1a 00 24 02 	BREV       $9218,R3
 20044a8:	a6 00 8f a8 	CLR        R4             | MOV        R5,R1
 20044ac:	13 42 40 00 	MOV        R9,R2
 20044b0:	87 fa fc f8 	JSR        0x0200cf38     // 200cf38 <__muldf3>
 20044b4:	02 00 cf 38 
 20044b8:	af 88 cf 90 	MOV        R1,R5          | MOV        R2,R9
 20044bc:	1a 00 24 02 	BREV       $9218,R3
 20044c0:	a6 00 8f d0 	CLR        R4             | MOV        R10,R1
 20044c4:	13 42 c0 00 	MOV        R11,R2
 20044c8:	87 fa fc f8 	JSR        0x0200cf38     // 200cf38 <__muldf3>
 20044cc:	02 00 cf 38 
 20044d0:	df 88 d7 90 	MOV        R1,R11         | MOV        R2,R10
 20044d4:	87 fa fc f8 	JSR        0x0200d7f4     // 200d7f4 <__fixdfsi>
 20044d8:	02 00 d7 f4 
 20044dc:	43 40 40 00 	MOV        R1,R8
 20044e0:	87 fa fc f8 	JSR        0x0200d748     // 200d748 <__floatsidf>
 20044e4:	02 00 d7 48 
 20044e8:	9f 88 a7 90 	MOV        R1,R3          | MOV        R2,R4
 20044ec:	8f d8 97 d0 	MOV        R11,R1         | MOV        R10,R2
 20044f0:	87 fa fc f8 	JSR        0x0200cb2c     // 200cb2c <__subdf3>
 20044f4:	02 00 cb 2c 
 20044f8:	d7 88 df 90 	MOV        R1,R10         | MOV        R2,R11
 20044fc:	ba 01 c2 30 	ADD        $1,R7          | ADD        $48,R8
 2004500:	40 40 00 ff 	AND        $255,R8
 2004504:	45 c5 ff ff 	SB         R8,$-1(R7)
 2004508:	9f a8 a7 c8 	MOV        R5,R3          | MOV        R9,R4
 200450c:	87 fa fc f8 	JSR        0x0200d62c     // 200d62c <__ltdf2>
 2004510:	02 00 d6 2c 
 2004514:	0c 00 00 00 	CMP        $0,R1
 2004518:	78 b3 ff 48 	BGE        @0x02004464    // 2004464 <_dtoa_r+0x738>
 200451c:	78 80 0b 88 	BRA        @0x020050a8    // 20050a8 <_dtoa_r+0x137c>
 2004520:	94 38 92 7f 	LW         56(SP),R2      | ADD        $-1,R2
 2004524:	11 80 00 03 	LSL        $3,R2
 2004528:	0a 03 00 40 	LDI        0x0200e3a0,R1  // 200e3a0 <__mprec_tens>
 200452c:	0a 40 e3 a0 
 2004530:	8a 90 9f a8 	ADD        R2,R1          | MOV        R5,R3
 2004534:	23 42 00 00 	MOV        R8,R4
 2004538:	14 84 40 04 	LW         4(R1),R2
 200453c:	0c 84 40 00 	LW         (R1),R1
 2004540:	87 fa fc f8 	JSR        0x0200cf38     // 200cf38 <__muldf3>
 2004544:	02 00 cf 38 
 2004548:	5b 40 40 00 	MOV        R1,R11
 200454c:	14 c7 40 48 	SW         R2,$72(SP)
 2004550:	8f d0 97 b8 	MOV        R10,R1         | MOV        R7,R2
 2004554:	87 fa fc f8 	JSR        0x0200d7f4     // 200d7f4 <__fixdfsi>
 2004558:	02 00 d7 f4 
 200455c:	43 40 40 00 	MOV        R1,R8
 2004560:	87 fa fc f8 	JSR        0x0200d748     // 200d748 <__floatsidf>
 2004564:	02 00 d7 48 
 2004568:	9f 88 a7 90 	MOV        R1,R3          | MOV        R2,R4
 200456c:	8f d0 97 b8 	MOV        R10,R1         | MOV        R7,R2
 2004570:	87 fa fc f8 	JSR        0x0200cb2c     // 200cb2c <__subdf3>
 2004574:	02 00 cb 2c 
 2004578:	af 88 cf 90 	MOV        R1,R5          | MOV        R2,R9
 200457c:	bc 18 ba 01 	LW         24(SP),R7      | ADD        $1,R7
 2004580:	40 80 00 30 	ADD        $48,R8
 2004584:	40 40 00 ff 	AND        $255,R8
 2004588:	14 87 40 18 	LW         24(SP),R2
 200458c:	45 c4 80 00 	SB         R8,(R2)
 2004590:	9c 38 d7 90 	LW         56(SP),R3      | MOV        R2,R10
 2004594:	d2 98 8f a8 	ADD        R3,R10         | MOV        R5,R1
 2004598:	97 c8 9b 01 	MOV        R9,R2          | CMP        $1,R3
 200459c:	78 a8 00 7c 	BNZ        @0x0200461c    // 200461c <_dtoa_r+0x8f0>
 20045a0:	1a 00 07 fc 	BREV       $2044,R3
 20045a4:	a6 00 8f d8 	CLR        R4             | MOV        R11,R1
 20045a8:	14 87 40 48 	LW         72(SP),R2
 20045ac:	87 fa fc f8 	JSR        0x0200c730     // 200c730 <__adddf3>
 20045b0:	02 00 c7 30 
 20045b4:	9f a8 a7 c8 	MOV        R5,R3          | MOV        R9,R4
 20045b8:	87 fa fc f8 	JSR        0x0200d62c     // 200d62c <__ltdf2>
 20045bc:	02 00 d6 2c 
 20045c0:	0c 00 00 00 	CMP        $0,R1
 20045c4:	78 90 02 98 	BLT        @0x02004860    // 2004860 <_dtoa_r+0xb34>
 20045c8:	1b 42 c0 00 	MOV        R11,R3
 20045cc:	24 87 40 48 	LW         72(SP),R4
 20045d0:	0a 00 07 fc 	BREV       $2044,R1
 20045d4:	16 00 00 00 	CLR        R2
 20045d8:	87 fa fc f8 	JSR        0x0200cb2c     // 200cb2c <__subdf3>
 20045dc:	02 00 cb 2c 
 20045e0:	9f a8 a7 c8 	MOV        R5,R3          | MOV        R9,R4
 20045e4:	87 fa fc f8 	JSR        0x0200d5c8     // 200d5c8 <__gtdf2>
 20045e8:	02 00 d5 c8 
 20045ec:	0c 00 00 01 	CMP        $1,R1
 20045f0:	78 b0 00 0c 	BGE        @0x02004600    // 2004600 <_dtoa_r+0x8d4>
 20045f4:	78 80 00 80 	BRA        @0x02004678    // 2004678 <_dtoa_r+0x94c>
 20045f8:	3b 40 80 00 	MOV        R2,R7
 20045fc:	78 80 00 00 	BRA        @0x02004600    // 2004600 <_dtoa_r+0x8d4>
 2004600:	97 b8 92 7f 	MOV        R7,R2          | ADD        $-1,R2
 2004604:	0d 85 ff ff 	LB         -1(R7),R1
 2004608:	0c 00 00 30 	CMP        $48,R1
 200460c:	78 8b ff e8 	BZ         @0x020045f8    // 20045f8 <_dtoa_r+0x8cc>
 2004610:	04 87 40 44 	LW         68(SP),R0
 2004614:	04 c7 40 0c 	SW         R0,$12(SP)
 2004618:	78 80 0a 94 	BRA        @0x020050b0    // 20050b0 <_dtoa_r+0x1384>
 200461c:	1a 00 24 02 	BREV       $9218,R3
 2004620:	26 00 00 00 	CLR        R4
 2004624:	87 fa fc f8 	JSR        0x0200cf38     // 200cf38 <__muldf3>
 2004628:	02 00 cf 38 
 200462c:	cf 88 af 90 	MOV        R1,R9          | MOV        R2,R5
 2004630:	87 fa fc f8 	JSR        0x0200d7f4     // 200d7f4 <__fixdfsi>
 2004634:	02 00 d7 f4 
 2004638:	43 40 40 00 	MOV        R1,R8
 200463c:	87 fa fc f8 	JSR        0x0200d748     // 200d748 <__floatsidf>
 2004640:	02 00 d7 48 
 2004644:	9f 88 a7 90 	MOV        R1,R3          | MOV        R2,R4
 2004648:	8f c8 97 a8 	MOV        R9,R1          | MOV        R5,R2
 200464c:	87 fa fc f8 	JSR        0x0200cb2c     // 200cb2c <__subdf3>
 2004650:	02 00 cb 2c 
 2004654:	ba 01 c2 30 	ADD        $1,R7          | ADD        $48,R8
 2004658:	40 40 00 ff 	AND        $255,R8
 200465c:	45 c5 ff ff 	SB         R8,$-1(R7)
 2004660:	3c 06 80 00 	CMP        R10,R7
 2004664:	78 ab ff b4 	BNZ        @0x0200461c    // 200461c <_dtoa_r+0x8f0>
 2004668:	af 88 cf 90 	MOV        R1,R5          | MOV        R2,R9
 200466c:	bc 18 94 38 	LW         24(SP),R7      | LW         56(SP),R2
 2004670:	38 84 80 00 	ADD        R2,R7
 2004674:	78 83 ff 28 	BRA        @0x020045a0    // 20045a0 <_dtoa_r+0x874>
 2004678:	1c 87 40 50 	LW         80(SP),R3
 200467c:	13 40 c0 00 	MOV        R3,R2
 2004680:	11 03 ff ff 	XOR        $-1,R2
 2004684:	11 40 00 1f 	LSR        $31,R2
 2004688:	84 0c 83 0d 	LW         12(SP),R0      | CMP        $13,R0
 200468c:	0e 00 00 00 	CLR        R1
 2004690:	0a 50 00 01 	LDILO.LT   $1,R1
 2004694:	08 44 80 00 	AND        R2,R1
 2004698:	78 88 02 94 	BZ         @0x02004930    // 2004930 <_dtoa_r+0xc04>
 200469c:	13 40 00 00 	MOV        R0,R2
 20046a0:	78 80 00 0c 	BRA        @0x020046b0    // 20046b0 <_dtoa_r+0x984>
 20046a4:	8e 00 8d 10 	CLR        R1             | SW         R1,$16(SP)
